

Microchip MPLAB XC8 Assembler V2.31 build 20201012212115 
                                                                                               Fri Mar 05 21:14:38 2021

Microchip MPLAB XC8 C Compiler v2.31 (Free license) build 20201012212115 Og1 
     1                           	processor	16F887
     2                           	pagewidth 120
     3                           	opt	flic
     4                           	psect	nvBANK0,global,class=BANK0,space=1,delta=1,noexec
     5                           	psect	cinit,global,class=CODE,merge=1,delta=2
     6                           	psect	bssCOMMON,global,class=COMMON,space=1,delta=1,noexec
     7                           	psect	bssBANK0,global,class=BANK0,space=1,delta=1,noexec
     8                           	psect	cstackCOMMON,global,class=COMMON,space=1,delta=1,noexec
     9                           	psect	cstackBANK0,global,class=BANK0,space=1,delta=1,noexec
    10                           	psect	maintext,global,class=CODE,split=1,delta=2
    11                           	psect	text1,local,class=CODE,merge=1,delta=2
    12                           	psect	text2,local,class=CODE,merge=1,delta=2
    13                           	psect	text3,local,class=CODE,merge=1,delta=2
    14                           	psect	text4,local,class=CODE,merge=1,delta=2,group=1
    15                           	psect	text5,local,class=CODE,merge=1,delta=2
    16                           	psect	text6,local,class=CODE,merge=1,delta=2
    17                           	psect	text7,local,class=CODE,merge=1,delta=2
    18                           	psect	text8,local,class=CODE,merge=1,delta=2
    19                           	psect	text9,local,class=CODE,merge=1,delta=2,group=1
    20                           	psect	text10,local,class=CODE,merge=1,delta=2,group=1
    21                           	psect	text11,local,class=CODE,merge=1,delta=2,group=1
    22                           	psect	text12,local,class=CODE,merge=1,delta=2
    23                           	psect	text13,local,class=CODE,merge=1,delta=2
    24                           	psect	text14,local,class=CODE,merge=1,delta=2
    25                           	psect	text15,local,class=CODE,merge=1,delta=2
    26                           	psect	text16,local,class=CODE,merge=1,delta=2
    27                           	psect	text17,local,class=CODE,merge=1,delta=2
    28                           	psect	text18,local,class=CODE,merge=1,delta=2
    29                           	psect	intentry,global,class=CODE,delta=2
    30                           	psect	config,global,abs,ovrld,class=CONFIG,space=4,delta=2,noexec
    31                           	dabs	1,0x7E,2
    32  0000                     
    33                           ; Version 2.20
    34                           ; Generated 12/02/2020 GMT
    35                           ; 
    36                           ; Copyright © 2020, Microchip Technology Inc. and its subsidiaries ("Microchip")
    37                           ; All rights reserved.
    38                           ; 
    39                           ; This software is developed by Microchip Technology Inc. and its subsidiaries ("Microch
      +                          ip").
    40                           ; 
    41                           ; Redistribution and use in source and binary forms, with or without modification, are
    42                           ; permitted provided that the following conditions are met:
    43                           ; 
    44                           ;     1. Redistributions of source code must retain the above copyright notice, this lis
      +                          t of
    45                           ;        conditions and the following disclaimer.
    46                           ; 
    47                           ;     2. Redistributions in binary form must reproduce the above copyright notice, this 
      +                          list
    48                           ;        of conditions and the following disclaimer in the documentation and/or other
    49                           ;        materials provided with the distribution.
    50                           ; 
    51                           ;     3. Microchip's name may not be used to endorse or promote products derived from th
      +                          is
    52                           ;        software without specific prior written permission.
    53                           ; 
    54                           ; THIS SOFTWARE IS PROVIDED BY MICROCHIP "AS IS" AND ANY EXPRESS OR IMPLIED WARRANTIES,
    55                           ; INCLUDING, BUT NOT LIMITED TO, THE IMPLIED WARRANTIES OF MERCHANTABILITY AND FITNESS F
      +                          OR
    56                           ; PURPOSE ARE DISCLAIMED.  IN NO EVENT SHALL MICROCHIP BE LIABLE FOR ANY DIRECT, INDIREC
      +                          T,
    57                           ; INCIDENTAL, SPECIAL, EXEMPLARY, OR CONSEQUENTIAL DAMAGES (INCLUDING BUT NOT LIMITED TO
    58                           ; PROCUREMENT OF SUBSTITUTE GOODS OR SERVICES; LOSS OF USE, DATA OR PROFITS; OR BUSINESS
    59                           ; INTERRUPTION) HOWSOEVER CAUSED AND ON ANY THEORY OF LIABILITY, WHETHER IN CONTRACT, ST
      +                          RICT
    60                           ; LIABILITY, OR TORT (INCLUDING NEGLIGENCE OR OTHERWISE) ARISING IN ANY WAY OUT OF THE U
      +                          SE OF
    61                           ; THIS SOFTWARE, EVEN IF ADVISED OF THE POSSIBILITY OF SUCH DAMAGE.
    62                           ; 
    63                           ; 
    64                           ; Code-generator required, PIC16F887 Definitions
    65                           ; 
    66                           ; SFR Addresses
    67  0000                     	;# 
    68  0001                     	;# 
    69  0002                     	;# 
    70  0003                     	;# 
    71  0004                     	;# 
    72  0005                     	;# 
    73  0006                     	;# 
    74  0007                     	;# 
    75  0008                     	;# 
    76  0009                     	;# 
    77  000A                     	;# 
    78  000B                     	;# 
    79  000C                     	;# 
    80  000D                     	;# 
    81  000E                     	;# 
    82  000E                     	;# 
    83  000F                     	;# 
    84  0010                     	;# 
    85  0011                     	;# 
    86  0012                     	;# 
    87  0013                     	;# 
    88  0014                     	;# 
    89  0015                     	;# 
    90  0015                     	;# 
    91  0016                     	;# 
    92  0017                     	;# 
    93  0018                     	;# 
    94  0019                     	;# 
    95  001A                     	;# 
    96  001B                     	;# 
    97  001B                     	;# 
    98  001C                     	;# 
    99  001D                     	;# 
   100  001E                     	;# 
   101  001F                     	;# 
   102  0081                     	;# 
   103  0085                     	;# 
   104  0086                     	;# 
   105  0087                     	;# 
   106  0088                     	;# 
   107  0089                     	;# 
   108  008C                     	;# 
   109  008D                     	;# 
   110  008E                     	;# 
   111  008F                     	;# 
   112  0090                     	;# 
   113  0091                     	;# 
   114  0092                     	;# 
   115  0093                     	;# 
   116  0093                     	;# 
   117  0093                     	;# 
   118  0094                     	;# 
   119  0095                     	;# 
   120  0096                     	;# 
   121  0097                     	;# 
   122  0098                     	;# 
   123  0099                     	;# 
   124  009A                     	;# 
   125  009B                     	;# 
   126  009C                     	;# 
   127  009D                     	;# 
   128  009E                     	;# 
   129  009F                     	;# 
   130  0105                     	;# 
   131  0107                     	;# 
   132  0108                     	;# 
   133  0109                     	;# 
   134  010C                     	;# 
   135  010C                     	;# 
   136  010D                     	;# 
   137  010E                     	;# 
   138  010F                     	;# 
   139  0185                     	;# 
   140  0187                     	;# 
   141  0188                     	;# 
   142  0189                     	;# 
   143  018C                     	;# 
   144  018D                     	;# 
   145  0000                     	;# 
   146  0001                     	;# 
   147  0002                     	;# 
   148  0003                     	;# 
   149  0004                     	;# 
   150  0005                     	;# 
   151  0006                     	;# 
   152  0007                     	;# 
   153  0008                     	;# 
   154  0009                     	;# 
   155  000A                     	;# 
   156  000B                     	;# 
   157  000C                     	;# 
   158  000D                     	;# 
   159  000E                     	;# 
   160  000E                     	;# 
   161  000F                     	;# 
   162  0010                     	;# 
   163  0011                     	;# 
   164  0012                     	;# 
   165  0013                     	;# 
   166  0014                     	;# 
   167  0015                     	;# 
   168  0015                     	;# 
   169  0016                     	;# 
   170  0017                     	;# 
   171  0018                     	;# 
   172  0019                     	;# 
   173  001A                     	;# 
   174  001B                     	;# 
   175  001B                     	;# 
   176  001C                     	;# 
   177  001D                     	;# 
   178  001E                     	;# 
   179  001F                     	;# 
   180  0081                     	;# 
   181  0085                     	;# 
   182  0086                     	;# 
   183  0087                     	;# 
   184  0088                     	;# 
   185  0089                     	;# 
   186  008C                     	;# 
   187  008D                     	;# 
   188  008E                     	;# 
   189  008F                     	;# 
   190  0090                     	;# 
   191  0091                     	;# 
   192  0092                     	;# 
   193  0093                     	;# 
   194  0093                     	;# 
   195  0093                     	;# 
   196  0094                     	;# 
   197  0095                     	;# 
   198  0096                     	;# 
   199  0097                     	;# 
   200  0098                     	;# 
   201  0099                     	;# 
   202  009A                     	;# 
   203  009B                     	;# 
   204  009C                     	;# 
   205  009D                     	;# 
   206  009E                     	;# 
   207  009F                     	;# 
   208  0105                     	;# 
   209  0107                     	;# 
   210  0108                     	;# 
   211  0109                     	;# 
   212  010C                     	;# 
   213  010C                     	;# 
   214  010D                     	;# 
   215  010E                     	;# 
   216  010F                     	;# 
   217  0185                     	;# 
   218  0187                     	;# 
   219  0188                     	;# 
   220  0189                     	;# 
   221  018C                     	;# 
   222  018D                     	;# 
   223  0000                     	;# 
   224  0001                     	;# 
   225  0002                     	;# 
   226  0003                     	;# 
   227  0004                     	;# 
   228  0005                     	;# 
   229  0006                     	;# 
   230  0007                     	;# 
   231  0008                     	;# 
   232  0009                     	;# 
   233  000A                     	;# 
   234  000B                     	;# 
   235  000C                     	;# 
   236  000D                     	;# 
   237  000E                     	;# 
   238  000E                     	;# 
   239  000F                     	;# 
   240  0010                     	;# 
   241  0011                     	;# 
   242  0012                     	;# 
   243  0013                     	;# 
   244  0014                     	;# 
   245  0015                     	;# 
   246  0015                     	;# 
   247  0016                     	;# 
   248  0017                     	;# 
   249  0018                     	;# 
   250  0019                     	;# 
   251  001A                     	;# 
   252  001B                     	;# 
   253  001B                     	;# 
   254  001C                     	;# 
   255  001D                     	;# 
   256  001E                     	;# 
   257  001F                     	;# 
   258  0081                     	;# 
   259  0085                     	;# 
   260  0086                     	;# 
   261  0087                     	;# 
   262  0088                     	;# 
   263  0089                     	;# 
   264  008C                     	;# 
   265  008D                     	;# 
   266  008E                     	;# 
   267  008F                     	;# 
   268  0090                     	;# 
   269  0091                     	;# 
   270  0092                     	;# 
   271  0093                     	;# 
   272  0093                     	;# 
   273  0093                     	;# 
   274  0094                     	;# 
   275  0095                     	;# 
   276  0096                     	;# 
   277  0097                     	;# 
   278  0098                     	;# 
   279  0099                     	;# 
   280  009A                     	;# 
   281  009B                     	;# 
   282  009C                     	;# 
   283  009D                     	;# 
   284  009E                     	;# 
   285  009F                     	;# 
   286  0105                     	;# 
   287  0107                     	;# 
   288  0108                     	;# 
   289  0109                     	;# 
   290  010C                     	;# 
   291  010C                     	;# 
   292  010D                     	;# 
   293  010E                     	;# 
   294  010F                     	;# 
   295  0185                     	;# 
   296  0187                     	;# 
   297  0188                     	;# 
   298  0189                     	;# 
   299  018C                     	;# 
   300  018D                     	;# 
   301  0000                     	;# 
   302  0001                     	;# 
   303  0002                     	;# 
   304  0003                     	;# 
   305  0004                     	;# 
   306  0005                     	;# 
   307  0006                     	;# 
   308  0007                     	;# 
   309  0008                     	;# 
   310  0009                     	;# 
   311  000A                     	;# 
   312  000B                     	;# 
   313  000C                     	;# 
   314  000D                     	;# 
   315  000E                     	;# 
   316  000E                     	;# 
   317  000F                     	;# 
   318  0010                     	;# 
   319  0011                     	;# 
   320  0012                     	;# 
   321  0013                     	;# 
   322  0014                     	;# 
   323  0015                     	;# 
   324  0015                     	;# 
   325  0016                     	;# 
   326  0017                     	;# 
   327  0018                     	;# 
   328  0019                     	;# 
   329  001A                     	;# 
   330  001B                     	;# 
   331  001B                     	;# 
   332  001C                     	;# 
   333  001D                     	;# 
   334  001E                     	;# 
   335  001F                     	;# 
   336  0081                     	;# 
   337  0085                     	;# 
   338  0086                     	;# 
   339  0087                     	;# 
   340  0088                     	;# 
   341  0089                     	;# 
   342  008C                     	;# 
   343  008D                     	;# 
   344  008E                     	;# 
   345  008F                     	;# 
   346  0090                     	;# 
   347  0091                     	;# 
   348  0092                     	;# 
   349  0093                     	;# 
   350  0093                     	;# 
   351  0093                     	;# 
   352  0094                     	;# 
   353  0095                     	;# 
   354  0096                     	;# 
   355  0097                     	;# 
   356  0098                     	;# 
   357  0099                     	;# 
   358  009A                     	;# 
   359  009B                     	;# 
   360  009C                     	;# 
   361  009D                     	;# 
   362  009E                     	;# 
   363  009F                     	;# 
   364  0105                     	;# 
   365  0107                     	;# 
   366  0108                     	;# 
   367  0109                     	;# 
   368  010C                     	;# 
   369  010C                     	;# 
   370  010D                     	;# 
   371  010E                     	;# 
   372  010F                     	;# 
   373  0185                     	;# 
   374  0187                     	;# 
   375  0188                     	;# 
   376  0189                     	;# 
   377  018C                     	;# 
   378  018D                     	;# 
   379                           
   380                           	psect	nvBANK0
   381  0069                     __pnvBANK0:
   382  0069                     _prueba:
   383  0069                     	ds	1
   384  006A                     _eje_x:
   385  006A                     	ds	1
   386  0018                     _RCSTAbits	set	24
   387  0013                     _SSPBUF	set	19
   388  0014                     _SSPCON	set	20
   389  0001                     _TMR0	set	1
   390  0005                     _PORTA	set	5
   391  0006                     _PORTB	set	6
   392  0009                     _PORTE	set	9
   393  001A                     _RCREG	set	26
   394  0008                     _PORTD	set	8
   395  000C                     _PIR1bits	set	12
   396  0019                     _TXREG	set	25
   397  000B                     _INTCONbits	set	11
   398  0063                     _SSPIF	set	99
   399  005E                     _PEIE	set	94
   400  005F                     _GIE	set	95
   401  0064                     _TXIF	set	100
   402  008C                     _PIE1bits	set	140
   403  009A                     _SPBRGH	set	154
   404  0098                     _TXSTAbits	set	152
   405  0099                     _SPBRG	set	153
   406  0091                     _SSPCON2bits	set	145
   407  0087                     _TRISCbits	set	135
   408  0094                     _SSPSTAT	set	148
   409  0093                     _SSPADD	set	147
   410  0091                     _SSPCON2	set	145
   411  0081                     _OPTION_REGbits	set	129
   412  0089                     _TRISE	set	137
   413  0088                     _TRISD	set	136
   414  0086                     _TRISB	set	134
   415  0085                     _TRISA	set	133
   416  0463                     _SSPIE	set	1123
   417  043C                     _TRISC4	set	1084
   418  043B                     _TRISC3	set	1083
   419  0464                     _TXIE	set	1124
   420  0187                     _BAUDCTLbits	set	391
   421  0189                     _ANSELH	set	393
   422  0188                     _ANSEL	set	392
   423                           
   424                           	psect	cinit
   425  000F                     start_initialization:	
   426                           ; #config settings
   427                           
   428  000F                     __initialization:
   429                           
   430                           ; Clear objects allocated to COMMON
   431  000F  01F8               	clrf	__pbssCOMMON& (0+127)
   432  0010  01F9               	clrf	(__pbssCOMMON+1)& (0+127)
   433  0011  01FA               	clrf	(__pbssCOMMON+2)& (0+127)
   434                           
   435                           ; Clear objects allocated to BANK0
   436  0012  1283               	bcf	3,5	;RP0=0, select bank0
   437  0013  1303               	bcf	3,6	;RP1=0, select bank0
   438  0014  01DE               	clrf	__pbssBANK0& (0+127)
   439  0015  01DF               	clrf	(__pbssBANK0+1)& (0+127)
   440  0016  01E0               	clrf	(__pbssBANK0+2)& (0+127)
   441  0017  01E1               	clrf	(__pbssBANK0+3)& (0+127)
   442  0018  01E2               	clrf	(__pbssBANK0+4)& (0+127)
   443  0019  01E3               	clrf	(__pbssBANK0+5)& (0+127)
   444  001A  01E4               	clrf	(__pbssBANK0+6)& (0+127)
   445  001B  01E5               	clrf	(__pbssBANK0+7)& (0+127)
   446  001C  01E6               	clrf	(__pbssBANK0+8)& (0+127)
   447  001D  01E7               	clrf	(__pbssBANK0+9)& (0+127)
   448  001E  01E8               	clrf	(__pbssBANK0+10)& (0+127)
   449  001F                     end_of_initialization:	
   450                           ;End of C runtime variable initialization code
   451                           
   452  001F                     __end_of__initialization:
   453  001F  0183               	clrf	3
   454  0020  120A  118A  2D5C   	ljmp	_main	;jump to C main() function
   455                           
   456                           	psect	bssCOMMON
   457  0078                     __pbssCOMMON:
   458  0078                     _bandera:
   459  0078                     	ds	1
   460  0079                     _tempx:
   461  0079                     	ds	1
   462  007A                     _eje_z:
   463  007A                     	ds	1
   464                           
   465                           	psect	bssBANK0
   466  005E                     __pbssBANK0:
   467  005E                     _tx_var:
   468  005E                     	ds	1
   469  005F                     _CONTX:
   470  005F                     	ds	1
   471  0060                     _zL:
   472  0060                     	ds	1
   473  0061                     _zH:
   474  0061                     	ds	1
   475  0062                     _yL:
   476  0062                     	ds	1
   477  0063                     _yH:
   478  0063                     	ds	1
   479  0064                     _xL:
   480  0064                     	ds	1
   481  0065                     _xH:
   482  0065                     	ds	1
   483  0066                     _tempz:
   484  0066                     	ds	1
   485  0067                     _tempy:
   486  0067                     	ds	1
   487  0068                     _eje_y:
   488  0068                     	ds	1
   489                           
   490                           	psect	cstackCOMMON
   491  0070                     __pcstackCOMMON:
   492  0070                     ?_setup:
   493  0070                     ?_initUSART:	
   494                           ; 1 bytes @ 0x0
   495                           
   496  0070                     ?_ADXL345_init:	
   497                           ; 1 bytes @ 0x0
   498                           
   499  0070                     ?_isr:	
   500                           ; 1 bytes @ 0x0
   501                           
   502  0070                     ??_isr:	
   503                           ; 1 bytes @ 0x0
   504                           
   505  0070                     ?_main:	
   506                           ; 1 bytes @ 0x0
   507                           
   508  0070                     ?_I2C_Master_Wait:	
   509                           ; 1 bytes @ 0x0
   510                           
   511  0070                     ?_I2C_Master_Start:	
   512                           ; 1 bytes @ 0x0
   513                           
   514  0070                     ?_I2C_Master_Stop:	
   515                           ; 1 bytes @ 0x0
   516                           
   517                           
   518                           ; 1 bytes @ 0x0
   519  0070                     	ds	3
   520  0073                     ??_initUSART:
   521  0073                     ??_I2C_Master_Wait:	
   522                           ; 1 bytes @ 0x3
   523                           
   524  0073                     ??_I2C_Master_Start:	
   525                           ; 1 bytes @ 0x3
   526                           
   527  0073                     ??_I2C_Master_Stop:	
   528                           ; 1 bytes @ 0x3
   529                           
   530  0073                     ?_I2C_Master_Write:	
   531                           ; 1 bytes @ 0x3
   532                           
   533  0073                     ??___lldiv:	
   534                           ; 1 bytes @ 0x3
   535                           
   536  0073                     ?_I2C_Master_Read:	
   537                           ; 1 bytes @ 0x3
   538                           
   539  0073                     ?___xxtofl:	
   540                           ; 2 bytes @ 0x3
   541                           
   542  0073                     I2C_Master_Write@d:	
   543                           ; 4 bytes @ 0x3
   544                           
   545  0073                     I2C_Master_Read@a:	
   546                           ; 2 bytes @ 0x3
   547                           
   548  0073                     ___xxtofl@val:	
   549                           ; 2 bytes @ 0x3
   550                           
   551                           
   552                           ; 4 bytes @ 0x3
   553  0073                     	ds	1
   554  0074                     ??_I2C_Master_Init:
   555                           
   556                           ; 1 bytes @ 0x4
   557  0074                     	ds	1
   558  0075                     ?_ADXL345_WRITE:
   559  0075                     ??_I2C_Master_Write:	
   560                           ; 1 bytes @ 0x5
   561                           
   562  0075                     ??_I2C_Master_Read:	
   563                           ; 1 bytes @ 0x5
   564                           
   565  0075                     ADXL345_WRITE@data:	
   566                           ; 1 bytes @ 0x5
   567                           
   568                           
   569                           ; 1 bytes @ 0x5
   570  0075                     	ds	1
   571  0076                     ??_ADXL345_WRITE:
   572                           
   573                           ; 1 bytes @ 0x6
   574  0076                     	ds	2
   575                           
   576                           	psect	cstackBANK0
   577  0020                     __pcstackBANK0:
   578  0020                     ??___xxtofl:
   579  0020                     ?___lldiv:	
   580                           ; 1 bytes @ 0x0
   581                           
   582  0020                     ADXL345_WRITE@var:	
   583                           ; 4 bytes @ 0x0
   584                           
   585  0020                     I2C_Master_Read@temp:	
   586                           ; 1 bytes @ 0x0
   587                           
   588  0020                     ___lldiv@divisor:	
   589                           ; 2 bytes @ 0x0
   590                           
   591                           
   592                           ; 4 bytes @ 0x0
   593  0020                     	ds	1
   594  0021                     ??_ADXL345_init:
   595                           
   596                           ; 1 bytes @ 0x1
   597  0021                     	ds	1
   598  0022                     ?_ADXL345_READ:
   599                           
   600                           ; 2 bytes @ 0x2
   601  0022                     	ds	2
   602  0024                     ??_ADXL345_READ:
   603  0024                     ___xxtofl@sign:	
   604                           ; 1 bytes @ 0x4
   605                           
   606  0024                     ___lldiv@dividend:	
   607                           ; 1 bytes @ 0x4
   608                           
   609                           
   610                           ; 4 bytes @ 0x4
   611  0024                     	ds	1
   612  0025                     ___xxtofl@exp:
   613                           
   614                           ; 1 bytes @ 0x5
   615  0025                     	ds	1
   616  0026                     ADXL345_READ@var:
   617  0026                     ___xxtofl@arg:	
   618                           ; 1 bytes @ 0x6
   619                           
   620                           
   621                           ; 4 bytes @ 0x6
   622  0026                     	ds	1
   623  0027                     ADXL345_READ@leido:
   624                           
   625                           ; 2 bytes @ 0x7
   626  0027                     	ds	1
   627  0028                     ___lldiv@quotient:
   628                           
   629                           ; 4 bytes @ 0x8
   630  0028                     	ds	2
   631  002A                     ?___fldiv:
   632  002A                     ___fldiv@a:	
   633                           ; 4 bytes @ 0xA
   634                           
   635                           
   636                           ; 4 bytes @ 0xA
   637  002A                     	ds	2
   638  002C                     ___lldiv@counter:
   639                           
   640                           ; 1 bytes @ 0xC
   641  002C                     	ds	1
   642  002D                     ?_I2C_Master_Init:
   643  002D                     I2C_Master_Init@c:	
   644                           ; 1 bytes @ 0xD
   645                           
   646                           
   647                           ; 4 bytes @ 0xD
   648  002D                     	ds	1
   649  002E                     ___fldiv@b:
   650                           
   651                           ; 4 bytes @ 0xE
   652  002E                     	ds	3
   653  0031                     ??_setup:
   654                           
   655                           ; 1 bytes @ 0x11
   656  0031                     	ds	1
   657  0032                     ??___fldiv:
   658                           
   659                           ; 1 bytes @ 0x12
   660  0032                     	ds	5
   661  0037                     ___fldiv@rem:
   662                           
   663                           ; 4 bytes @ 0x17
   664  0037                     	ds	4
   665  003B                     ___fldiv@sign:
   666                           
   667                           ; 1 bytes @ 0x1B
   668  003B                     	ds	1
   669  003C                     ___fldiv@new_exp:
   670                           
   671                           ; 2 bytes @ 0x1C
   672  003C                     	ds	2
   673  003E                     ___fldiv@grs:
   674                           
   675                           ; 4 bytes @ 0x1E
   676  003E                     	ds	4
   677  0042                     ___fldiv@bexp:
   678                           
   679                           ; 1 bytes @ 0x22
   680  0042                     	ds	1
   681  0043                     ___fldiv@aexp:
   682                           
   683                           ; 1 bytes @ 0x23
   684  0043                     	ds	1
   685  0044                     ?___fltol:
   686  0044                     ___fltol@f1:	
   687                           ; 4 bytes @ 0x24
   688                           
   689                           
   690                           ; 4 bytes @ 0x24
   691  0044                     	ds	4
   692  0048                     ??___fltol:
   693                           
   694                           ; 1 bytes @ 0x28
   695  0048                     	ds	5
   696  004D                     ___fltol@sign1:
   697                           
   698                           ; 1 bytes @ 0x2D
   699  004D                     	ds	1
   700  004E                     ___fltol@exp1:
   701                           
   702                           ; 1 bytes @ 0x2E
   703  004E                     	ds	1
   704  004F                     ?_ADXL345_readX:
   705  004F                     ?_ADXL345_readY:	
   706                           ; 2 bytes @ 0x2F
   707                           
   708                           
   709                           ; 2 bytes @ 0x2F
   710  004F                     	ds	2
   711  0051                     ??_ADXL345_readX:
   712  0051                     ??_ADXL345_readY:	
   713                           ; 1 bytes @ 0x31
   714                           
   715                           
   716                           ; 1 bytes @ 0x31
   717  0051                     	ds	4
   718  0055                     ADXL345_readX@accel_x:
   719  0055                     ADXL345_readY@accel_y:	
   720                           ; 2 bytes @ 0x35
   721                           
   722                           
   723                           ; 2 bytes @ 0x35
   724  0055                     	ds	2
   725  0057                     ADXL345_readX@acc_x:
   726  0057                     ADXL345_readY@acc_y:	
   727                           ; 2 bytes @ 0x37
   728                           
   729                           
   730                           ; 2 bytes @ 0x37
   731  0057                     	ds	2
   732  0059                     ADXL345_readX@data_x:
   733  0059                     ADXL345_readY@data_y:	
   734                           ; 2 bytes @ 0x39
   735                           
   736                           
   737                           ; 2 bytes @ 0x39
   738  0059                     	ds	2
   739  005B                     ??_main:
   740                           
   741                           ; 1 bytes @ 0x3B
   742  005B                     	ds	3
   743                           
   744                           	psect	maintext
   745  055C                     __pmaintext:	
   746 ;;
   747 ;;Main: autosize = 0, tempsize = 3, incstack = 0, save=0
   748 ;;
   749 ;; *************** function _main *****************
   750 ;; Defined at:
   751 ;;		line 99 in file "C:/Users/danie/OneDrive/Desktop/DIGITAL2/proyecto2/master.X/main_pic.c"
   752 ;; Parameters:    Size  Location     Type
   753 ;;		None
   754 ;; Auto vars:     Size  Location     Type
   755 ;;		None
   756 ;; Return value:  Size  Location     Type
   757 ;;                  1    wreg      void 
   758 ;; Registers used:
   759 ;;		wreg, status,2, status,0, btemp+1, pclath, cstack
   760 ;; Tracked objects:
   761 ;;		On entry : B00/0
   762 ;;		On exit  : 0/0
   763 ;;		Unchanged: 0/0
   764 ;; Data sizes:     COMMON   BANK0   BANK1   BANK3   BANK2
   765 ;;      Params:         0       0       0       0       0
   766 ;;      Locals:         0       0       0       0       0
   767 ;;      Temps:          0       3       0       0       0
   768 ;;      Totals:         0       3       0       0       0
   769 ;;Total ram usage:        3 bytes
   770 ;; Hardware stack levels required when called:    6
   771 ;; This function calls:
   772 ;;		_ADXL345_readX
   773 ;;		_ADXL345_readY
   774 ;;		_setup
   775 ;; This function is called by:
   776 ;;		Startup code after reset
   777 ;; This function uses a non-reentrant model
   778 ;;
   779                           
   780                           
   781                           ;psect for function _main
   782  055C                     _main:
   783  055C                     l1852:	
   784                           ;incstack = 0
   785                           ; Regs used in _main: [wreg+status,2+status,0+btemp+1+pclath+cstack]
   786                           
   787                           
   788                           ;C:/Users/danie/OneDrive/Desktop/DIGITAL2/proyecto2/master.X/main_pic.c: 100:     setup(
      +                          );
   789  055C  120A  118A  24CB  120A  118A  	fcall	_setup
   790  0561                     l1854:
   791                           
   792                           ;C:/Users/danie/OneDrive/Desktop/DIGITAL2/proyecto2/master.X/main_pic.c: 102:         if
      +                           (CONTX > 15){
   793  0561  3010               	movlw	16
   794  0562  1283               	bcf	3,5	;RP0=0, select bank0
   795  0563  1303               	bcf	3,6	;RP1=0, select bank0
   796  0564  025F               	subwf	_CONTX,w
   797  0565  1C03               	skipc
   798  0566  2D68               	goto	u1721
   799  0567  2D69               	goto	u1720
   800  0568                     u1721:
   801  0568  2D6C               	goto	l1858
   802  0569                     u1720:
   803  0569                     l1856:
   804                           
   805                           ;C:/Users/danie/OneDrive/Desktop/DIGITAL2/proyecto2/master.X/main_pic.c: 104:           
      +                            TXIE = 1;
   806  0569  1683               	bsf	3,5	;RP0=1, select bank1
   807  056A  1303               	bcf	3,6	;RP1=0, select bank1
   808  056B  160C               	bsf	12,4	;volatile
   809  056C                     l1858:
   810                           
   811                           ;C:/Users/danie/OneDrive/Desktop/DIGITAL2/proyecto2/master.X/main_pic.c: 108:         ej
      +                          e_x = ADXL345_readX();
   812  056C  120A  118A  23A3  120A  118A  	fcall	_ADXL345_readX
   813  0571  1283               	bcf	3,5	;RP0=0, select bank0
   814  0572  1303               	bcf	3,6	;RP1=0, select bank0
   815  0573  084F               	movf	?_ADXL345_readX,w
   816  0574  00DB               	movwf	??_main
   817  0575  085B               	movf	??_main,w
   818  0576  00EA               	movwf	_eje_x
   819                           
   820                           ;C:/Users/danie/OneDrive/Desktop/DIGITAL2/proyecto2/master.X/main_pic.c: 109:         ej
      +                          e_y = ADXL345_readY();
   821  0577  120A  118A  2338  120A  118A  	fcall	_ADXL345_readY
   822  057C  1283               	bcf	3,5	;RP0=0, select bank0
   823  057D  1303               	bcf	3,6	;RP1=0, select bank0
   824  057E  084F               	movf	?_ADXL345_readY,w
   825  057F  00DB               	movwf	??_main
   826  0580  085B               	movf	??_main,w
   827  0581  00E8               	movwf	_eje_y
   828                           
   829                           ;C:/Users/danie/OneDrive/Desktop/DIGITAL2/proyecto2/master.X/main_pic.c: 113:         PO
      +                          RTB = ADXL345_readX();
   830  0582  120A  118A  23A3  120A  118A  	fcall	_ADXL345_readX
   831  0587  1283               	bcf	3,5	;RP0=0, select bank0
   832  0588  1303               	bcf	3,6	;RP1=0, select bank0
   833  0589  084F               	movf	?_ADXL345_readX,w
   834  058A  0086               	movwf	6	;volatile
   835  058B                     l1860:
   836                           
   837                           ;C:/Users/danie/OneDrive/Desktop/DIGITAL2/proyecto2/master.X/main_pic.c: 114:         _d
      +                          elay((unsigned long)((200)*(4000000/4000.0)));
   838  058B  3002               	movlw	2
   839  058C  1283               	bcf	3,5	;RP0=0, select bank0
   840  058D  1303               	bcf	3,6	;RP1=0, select bank0
   841  058E  00DD               	movwf	??_main+2
   842  058F  3004               	movlw	4
   843  0590  00DC               	movwf	??_main+1
   844  0591  30B9               	movlw	185
   845  0592  00DB               	movwf	??_main
   846  0593                     u1737:
   847  0593  0BDB               	decfsz	??_main,f
   848  0594  2D93               	goto	u1737
   849  0595  0BDC               	decfsz	??_main+1,f
   850  0596  2D93               	goto	u1737
   851  0597  0BDD               	decfsz	??_main+2,f
   852  0598  2D93               	goto	u1737
   853  0599  2D9A               	nop2
   854  059A  2D61               	goto	l1854
   855  059B  120A  118A  280C   	ljmp	start
   856  059E                     __end_of_main:
   857                           
   858                           	psect	text1
   859  04CB                     __ptext1:	
   860 ;; *************** function _setup *****************
   861 ;; Defined at:
   862 ;;		line 122 in file "C:/Users/danie/OneDrive/Desktop/DIGITAL2/proyecto2/master.X/main_pic.c"
   863 ;; Parameters:    Size  Location     Type
   864 ;;		None
   865 ;; Auto vars:     Size  Location     Type
   866 ;;		None
   867 ;; Return value:  Size  Location     Type
   868 ;;                  1    wreg      void 
   869 ;; Registers used:
   870 ;;		wreg, status,2, status,0, pclath, cstack
   871 ;; Tracked objects:
   872 ;;		On entry : 0/0
   873 ;;		On exit  : 0/0
   874 ;;		Unchanged: 0/0
   875 ;; Data sizes:     COMMON   BANK0   BANK1   BANK3   BANK2
   876 ;;      Params:         0       0       0       0       0
   877 ;;      Locals:         0       0       0       0       0
   878 ;;      Temps:          0       1       0       0       0
   879 ;;      Totals:         0       1       0       0       0
   880 ;;Total ram usage:        1 bytes
   881 ;; Hardware stack levels used:    1
   882 ;; Hardware stack levels required when called:    5
   883 ;; This function calls:
   884 ;;		_ADXL345_init
   885 ;;		_I2C_Master_Init
   886 ;;		_initUSART
   887 ;; This function is called by:
   888 ;;		_main
   889 ;; This function uses a non-reentrant model
   890 ;;
   891                           
   892                           
   893                           ;psect for function _setup
   894  04CB                     _setup:
   895  04CB                     l1806:	
   896                           ;incstack = 0
   897                           ; Regs used in _setup: [wreg+status,2+status,0+pclath+cstack]
   898                           
   899                           
   900                           ;C:/Users/danie/OneDrive/Desktop/DIGITAL2/proyecto2/master.X/main_pic.c: 123:     ANSEL 
      +                          = 0;
   901  04CB  1683               	bsf	3,5	;RP0=1, select bank3
   902  04CC  1703               	bsf	3,6	;RP1=1, select bank3
   903  04CD  0188               	clrf	8	;volatile
   904                           
   905                           ;C:/Users/danie/OneDrive/Desktop/DIGITAL2/proyecto2/master.X/main_pic.c: 124:     ANSELH
      +                           = 0;
   906  04CE  0189               	clrf	9	;volatile
   907                           
   908                           ;C:/Users/danie/OneDrive/Desktop/DIGITAL2/proyecto2/master.X/main_pic.c: 128:     TRISA 
      +                          = 0;
   909  04CF  1683               	bsf	3,5	;RP0=1, select bank1
   910  04D0  1303               	bcf	3,6	;RP1=0, select bank1
   911  04D1  0185               	clrf	5	;volatile
   912                           
   913                           ;C:/Users/danie/OneDrive/Desktop/DIGITAL2/proyecto2/master.X/main_pic.c: 129:     PORTA 
      +                          = 0;
   914  04D2  1283               	bcf	3,5	;RP0=0, select bank0
   915  04D3  1303               	bcf	3,6	;RP1=0, select bank0
   916  04D4  0185               	clrf	5	;volatile
   917                           
   918                           ;C:/Users/danie/OneDrive/Desktop/DIGITAL2/proyecto2/master.X/main_pic.c: 130:     TRISB 
      +                          = 0;
   919  04D5  1683               	bsf	3,5	;RP0=1, select bank1
   920  04D6  1303               	bcf	3,6	;RP1=0, select bank1
   921  04D7  0186               	clrf	6	;volatile
   922                           
   923                           ;C:/Users/danie/OneDrive/Desktop/DIGITAL2/proyecto2/master.X/main_pic.c: 131:     PORTB 
      +                          = 0;
   924  04D8  1283               	bcf	3,5	;RP0=0, select bank0
   925  04D9  1303               	bcf	3,6	;RP1=0, select bank0
   926  04DA  0186               	clrf	6	;volatile
   927                           
   928                           ;C:/Users/danie/OneDrive/Desktop/DIGITAL2/proyecto2/master.X/main_pic.c: 132:     TRISD 
      +                          = 0;
   929  04DB  1683               	bsf	3,5	;RP0=1, select bank1
   930  04DC  1303               	bcf	3,6	;RP1=0, select bank1
   931  04DD  0188               	clrf	8	;volatile
   932                           
   933                           ;C:/Users/danie/OneDrive/Desktop/DIGITAL2/proyecto2/master.X/main_pic.c: 133:     PORTD 
      +                          = 0;
   934  04DE  1283               	bcf	3,5	;RP0=0, select bank0
   935  04DF  1303               	bcf	3,6	;RP1=0, select bank0
   936  04E0  0188               	clrf	8	;volatile
   937                           
   938                           ;C:/Users/danie/OneDrive/Desktop/DIGITAL2/proyecto2/master.X/main_pic.c: 134:     TRISE 
      +                          = 0;
   939  04E1  1683               	bsf	3,5	;RP0=1, select bank1
   940  04E2  1303               	bcf	3,6	;RP1=0, select bank1
   941  04E3  0189               	clrf	9	;volatile
   942                           
   943                           ;C:/Users/danie/OneDrive/Desktop/DIGITAL2/proyecto2/master.X/main_pic.c: 135:     PORTE 
      +                          = 0;
   944  04E4  1283               	bcf	3,5	;RP0=0, select bank0
   945  04E5  1303               	bcf	3,6	;RP1=0, select bank0
   946  04E6  0189               	clrf	9	;volatile
   947  04E7                     l1808:
   948                           
   949                           ;C:/Users/danie/OneDrive/Desktop/DIGITAL2/proyecto2/master.X/main_pic.c: 136:     prueba
      +                           = 126;
   950  04E7  307E               	movlw	126
   951  04E8  00B1               	movwf	??_setup
   952  04E9  0831               	movf	??_setup,w
   953  04EA  00E9               	movwf	_prueba
   954  04EB                     l1810:
   955                           
   956                           ;C:/Users/danie/OneDrive/Desktop/DIGITAL2/proyecto2/master.X/main_pic.c: 137:     tx_var
      +                           = 0;
   957  04EB  01DE               	clrf	_tx_var
   958                           
   959                           ;C:/Users/danie/OneDrive/Desktop/DIGITAL2/proyecto2/master.X/main_pic.c: 139:     eje_x 
      +                          = 0xf8;
   960  04EC  30F8               	movlw	248
   961  04ED  00B1               	movwf	??_setup
   962  04EE  0831               	movf	??_setup,w
   963  04EF  00EA               	movwf	_eje_x
   964  04F0                     l1812:
   965                           
   966                           ;C:/Users/danie/OneDrive/Desktop/DIGITAL2/proyecto2/master.X/main_pic.c: 140:     initUS
      +                          ART();
   967  04F0  120A  118A  2666  120A  118A  	fcall	_initUSART
   968  04F5                     l1814:
   969                           
   970                           ;C:/Users/danie/OneDrive/Desktop/DIGITAL2/proyecto2/master.X/main_pic.c: 142:     OPTION
      +                          _REGbits.T0CS = 0;
   971  04F5  1683               	bsf	3,5	;RP0=1, select bank1
   972  04F6  1303               	bcf	3,6	;RP1=0, select bank1
   973  04F7  1281               	bcf	1,5	;volatile
   974  04F8                     l1816:
   975                           
   976                           ;C:/Users/danie/OneDrive/Desktop/DIGITAL2/proyecto2/master.X/main_pic.c: 143:     OPTION
      +                          _REGbits.PSA = 0;
   977  04F8  1181               	bcf	1,3	;volatile
   978  04F9                     l1818:
   979                           
   980                           ;C:/Users/danie/OneDrive/Desktop/DIGITAL2/proyecto2/master.X/main_pic.c: 144:     OPTION
      +                          _REGbits.PS = 111;
   981  04F9  3007               	movlw	7
   982  04FA  0481               	iorwf	1,f	;volatile
   983  04FB                     l1820:
   984                           
   985                           ;C:/Users/danie/OneDrive/Desktop/DIGITAL2/proyecto2/master.X/main_pic.c: 145:     TMR0 =
      +                           10;
   986  04FB  300A               	movlw	10
   987  04FC  1283               	bcf	3,5	;RP0=0, select bank0
   988  04FD  1303               	bcf	3,6	;RP1=0, select bank0
   989  04FE  0081               	movwf	1	;volatile
   990  04FF                     l1822:
   991                           
   992                           ;C:/Users/danie/OneDrive/Desktop/DIGITAL2/proyecto2/master.X/main_pic.c: 148:     INTCON
      +                          bits.GIE = 1;
   993  04FF  178B               	bsf	11,7	;volatile
   994  0500                     l1824:
   995                           
   996                           ;C:/Users/danie/OneDrive/Desktop/DIGITAL2/proyecto2/master.X/main_pic.c: 149:     INTCON
      +                          bits.T0IE = 1;
   997  0500  168B               	bsf	11,5	;volatile
   998  0501                     l1826:
   999                           
  1000                           ;C:/Users/danie/OneDrive/Desktop/DIGITAL2/proyecto2/master.X/main_pic.c: 150:     INTCON
      +                          bits.T0IF = 0;
  1001  0501  110B               	bcf	11,2	;volatile
  1002  0502                     l1828:
  1003                           
  1004                           ;C:/Users/danie/OneDrive/Desktop/DIGITAL2/proyecto2/master.X/main_pic.c: 152:     I2C_Ma
      +                          ster_Init(100000);
  1005  0502  3000               	movlw	0
  1006  0503  00B0               	movwf	I2C_Master_Init@c+3
  1007  0504  3001               	movlw	1
  1008  0505  00AF               	movwf	I2C_Master_Init@c+2
  1009  0506  3086               	movlw	134
  1010  0507  00AE               	movwf	I2C_Master_Init@c+1
  1011  0508  30A0               	movlw	160
  1012  0509  00AD               	movwf	I2C_Master_Init@c
  1013  050A  120A  118A  259E  120A  118A  	fcall	_I2C_Master_Init
  1014  050F                     l1830:
  1015                           
  1016                           ;C:/Users/danie/OneDrive/Desktop/DIGITAL2/proyecto2/master.X/main_pic.c: 153:     ADXL34
      +                          5_init();
  1017  050F  120A  118A  2639  120A  118A  	fcall	_ADXL345_init
  1018  0514                     l110:
  1019  0514  0008               	return
  1020  0515                     __end_of_setup:
  1021                           
  1022                           	psect	text2
  1023  0666                     __ptext2:	
  1024 ;; *************** function _initUSART *****************
  1025 ;; Defined at:
  1026 ;;		line 3 in file "C:/Users/danie/OneDrive/Desktop/DIGITAL2/proyecto2/master.X/USART.c"
  1027 ;; Parameters:    Size  Location     Type
  1028 ;;		None
  1029 ;; Auto vars:     Size  Location     Type
  1030 ;;		None
  1031 ;; Return value:  Size  Location     Type
  1032 ;;                  1    wreg      void 
  1033 ;; Registers used:
  1034 ;;		wreg, status,2
  1035 ;; Tracked objects:
  1036 ;;		On entry : 0/0
  1037 ;;		On exit  : 0/0
  1038 ;;		Unchanged: 0/0
  1039 ;; Data sizes:     COMMON   BANK0   BANK1   BANK3   BANK2
  1040 ;;      Params:         0       0       0       0       0
  1041 ;;      Locals:         0       0       0       0       0
  1042 ;;      Temps:          0       0       0       0       0
  1043 ;;      Totals:         0       0       0       0       0
  1044 ;;Total ram usage:        0 bytes
  1045 ;; Hardware stack levels used:    1
  1046 ;; Hardware stack levels required when called:    1
  1047 ;; This function calls:
  1048 ;;		Nothing
  1049 ;; This function is called by:
  1050 ;;		_setup
  1051 ;; This function uses a non-reentrant model
  1052 ;;
  1053                           
  1054                           
  1055                           ;psect for function _initUSART
  1056  0666                     _initUSART:
  1057  0666                     l1304:	
  1058                           ;incstack = 0
  1059                           ; Regs used in _initUSART: [wreg+status,2]
  1060                           
  1061                           
  1062                           ;C:/Users/danie/OneDrive/Desktop/DIGITAL2/proyecto2/master.X/USART.c: 5:     TRISCbits.T
      +                          RISC6 = 0;
  1063  0666  1683               	bsf	3,5	;RP0=1, select bank1
  1064  0667  1303               	bcf	3,6	;RP1=0, select bank1
  1065  0668  1307               	bcf	7,6	;volatile
  1066                           
  1067                           ;C:/Users/danie/OneDrive/Desktop/DIGITAL2/proyecto2/master.X/USART.c: 6:     TRISCbits.T
      +                          RISC7 = 1;
  1068  0669  1787               	bsf	7,7	;volatile
  1069  066A                     l1306:
  1070                           
  1071                           ;C:/Users/danie/OneDrive/Desktop/DIGITAL2/proyecto2/master.X/USART.c: 9:     SPBRG = 25;
  1072  066A  3019               	movlw	25
  1073  066B  0099               	movwf	25	;volatile
  1074  066C                     l1308:
  1075                           
  1076                           ;C:/Users/danie/OneDrive/Desktop/DIGITAL2/proyecto2/master.X/USART.c: 10:     TXSTAbits.
      +                          BRGH = 1;
  1077  066C  1518               	bsf	24,2	;volatile
  1078  066D                     l1310:
  1079                           
  1080                           ;C:/Users/danie/OneDrive/Desktop/DIGITAL2/proyecto2/master.X/USART.c: 11:     BAUDCTLbit
      +                          s.BRG16 = 0;
  1081  066D  1683               	bsf	3,5	;RP0=1, select bank3
  1082  066E  1703               	bsf	3,6	;RP1=1, select bank3
  1083  066F  1187               	bcf	7,3	;volatile
  1084  0670                     l1312:
  1085                           
  1086                           ;C:/Users/danie/OneDrive/Desktop/DIGITAL2/proyecto2/master.X/USART.c: 12:     SPBRGH = 0
      +                          ;
  1087  0670  1683               	bsf	3,5	;RP0=1, select bank1
  1088  0671  1303               	bcf	3,6	;RP1=0, select bank1
  1089  0672  019A               	clrf	26	;volatile
  1090  0673                     l1314:
  1091                           
  1092                           ;C:/Users/danie/OneDrive/Desktop/DIGITAL2/proyecto2/master.X/USART.c: 15:     TXSTAbits.
      +                          SYNC = 0;
  1093  0673  1218               	bcf	24,4	;volatile
  1094  0674                     l1316:
  1095                           
  1096                           ;C:/Users/danie/OneDrive/Desktop/DIGITAL2/proyecto2/master.X/USART.c: 16:     RCSTAbits.
      +                          SPEN = 1;
  1097  0674  1283               	bcf	3,5	;RP0=0, select bank0
  1098  0675  1303               	bcf	3,6	;RP1=0, select bank0
  1099  0676  1798               	bsf	24,7	;volatile
  1100  0677                     l1318:
  1101                           
  1102                           ;C:/Users/danie/OneDrive/Desktop/DIGITAL2/proyecto2/master.X/USART.c: 17:     TXSTAbits.
      +                          TX9 = 0;
  1103  0677  1683               	bsf	3,5	;RP0=1, select bank1
  1104  0678  1303               	bcf	3,6	;RP1=0, select bank1
  1105  0679  1318               	bcf	24,6	;volatile
  1106  067A                     l1320:
  1107                           
  1108                           ;C:/Users/danie/OneDrive/Desktop/DIGITAL2/proyecto2/master.X/USART.c: 18:     TXSTAbits.
      +                          TXEN = 1;
  1109  067A  1698               	bsf	24,5	;volatile
  1110  067B                     l1322:
  1111                           
  1112                           ;C:/Users/danie/OneDrive/Desktop/DIGITAL2/proyecto2/master.X/USART.c: 21:     PIE1bits.R
      +                          CIE = 1;
  1113  067B  168C               	bsf	12,5	;volatile
  1114  067C                     l1324:
  1115                           
  1116                           ;C:/Users/danie/OneDrive/Desktop/DIGITAL2/proyecto2/master.X/USART.c: 22:     RCSTAbits.
      +                          RX9 = 0;
  1117  067C  1283               	bcf	3,5	;RP0=0, select bank0
  1118  067D  1303               	bcf	3,6	;RP1=0, select bank0
  1119  067E  1318               	bcf	24,6	;volatile
  1120  067F                     l1326:
  1121                           
  1122                           ;C:/Users/danie/OneDrive/Desktop/DIGITAL2/proyecto2/master.X/USART.c: 23:     RCSTAbits.
      +                          CREN = 1;
  1123  067F  1618               	bsf	24,4	;volatile
  1124  0680                     l1328:
  1125                           
  1126                           ;C:/Users/danie/OneDrive/Desktop/DIGITAL2/proyecto2/master.X/USART.c: 26:     INTCONbits
      +                          .GIE = 1;
  1127  0680  178B               	bsf	11,7	;volatile
  1128  0681                     l1330:
  1129                           
  1130                           ;C:/Users/danie/OneDrive/Desktop/DIGITAL2/proyecto2/master.X/USART.c: 27:     INTCONbits
      +                          .PEIE = 1;
  1131  0681  170B               	bsf	11,6	;volatile
  1132  0682                     l206:
  1133  0682  0008               	return
  1134  0683                     __end_of_initUSART:
  1135                           
  1136                           	psect	text3
  1137  059E                     __ptext3:	
  1138 ;; *************** function _I2C_Master_Init *****************
  1139 ;; Defined at:
  1140 ;;		line 14 in file "C:/Users/danie/OneDrive/Desktop/DIGITAL2/proyecto2/master.X/I2C.c"
  1141 ;; Parameters:    Size  Location     Type
  1142 ;;  c               4   13[BANK0 ] const unsigned long 
  1143 ;; Auto vars:     Size  Location     Type
  1144 ;;		None
  1145 ;; Return value:  Size  Location     Type
  1146 ;;                  1    wreg      void 
  1147 ;; Registers used:
  1148 ;;		wreg, status,2, status,0, pclath, cstack
  1149 ;; Tracked objects:
  1150 ;;		On entry : 0/0
  1151 ;;		On exit  : 0/0
  1152 ;;		Unchanged: 0/0
  1153 ;; Data sizes:     COMMON   BANK0   BANK1   BANK3   BANK2
  1154 ;;      Params:         0       4       0       0       0
  1155 ;;      Locals:         0       0       0       0       0
  1156 ;;      Temps:          4       0       0       0       0
  1157 ;;      Totals:         4       4       0       0       0
  1158 ;;Total ram usage:        8 bytes
  1159 ;; Hardware stack levels used:    1
  1160 ;; Hardware stack levels required when called:    2
  1161 ;; This function calls:
  1162 ;;		___lldiv
  1163 ;; This function is called by:
  1164 ;;		_setup
  1165 ;; This function uses a non-reentrant model
  1166 ;;
  1167                           
  1168                           
  1169                           ;psect for function _I2C_Master_Init
  1170  059E                     _I2C_Master_Init:
  1171  059E                     l1738:	
  1172                           ;incstack = 0
  1173                           ; Regs used in _I2C_Master_Init: [wreg+status,2+status,0+pclath+cstack]
  1174                           
  1175                           
  1176                           ;C:/Users/danie/OneDrive/Desktop/DIGITAL2/proyecto2/master.X/I2C.c: 14: void I2C_Master_
      +                          Init(const unsigned long c);C:/Users/danie/OneDrive/Desktop/DIGITAL2/proyecto2/master.X/
      +                          I2C.c: 15: {;C:/Users/danie/OneDrive/Desktop/DIGITAL2/proyecto2/master.X/I2C.c: 16:     
      +                          SSPCON = 0b00101000;
  1177  059E  3028               	movlw	40
  1178  059F  1283               	bcf	3,5	;RP0=0, select bank0
  1179  05A0  1303               	bcf	3,6	;RP1=0, select bank0
  1180  05A1  0094               	movwf	20	;volatile
  1181  05A2                     l1740:
  1182                           
  1183                           ;C:/Users/danie/OneDrive/Desktop/DIGITAL2/proyecto2/master.X/I2C.c: 18:     SSPCON2 = 0;
  1184  05A2  1683               	bsf	3,5	;RP0=1, select bank1
  1185  05A3  1303               	bcf	3,6	;RP1=0, select bank1
  1186  05A4  0191               	clrf	17	;volatile
  1187  05A5                     l1742:
  1188                           
  1189                           ;C:/Users/danie/OneDrive/Desktop/DIGITAL2/proyecto2/master.X/I2C.c: 19:     SSPADD = (40
      +                          00000/(4*c))-1;
  1190  05A5  1283               	bcf	3,5	;RP0=0, select bank0
  1191  05A6  1303               	bcf	3,6	;RP1=0, select bank0
  1192  05A7  082D               	movf	I2C_Master_Init@c,w
  1193  05A8  00F4               	movwf	??_I2C_Master_Init
  1194  05A9  082E               	movf	I2C_Master_Init@c+1,w
  1195  05AA  00F5               	movwf	??_I2C_Master_Init+1
  1196  05AB  082F               	movf	I2C_Master_Init@c+2,w
  1197  05AC  00F6               	movwf	??_I2C_Master_Init+2
  1198  05AD  0830               	movf	I2C_Master_Init@c+3,w
  1199  05AE  00F7               	movwf	??_I2C_Master_Init+3
  1200  05AF  3002               	movlw	2
  1201  05B0                     u1575:
  1202  05B0  1003               	clrc
  1203  05B1  0DF4               	rlf	??_I2C_Master_Init,f
  1204  05B2  0DF5               	rlf	??_I2C_Master_Init+1,f
  1205  05B3  0DF6               	rlf	??_I2C_Master_Init+2,f
  1206  05B4  0DF7               	rlf	??_I2C_Master_Init+3,f
  1207  05B5                     u1570:
  1208  05B5  3EFF               	addlw	-1
  1209  05B6  1D03               	skipz
  1210  05B7  2DB0               	goto	u1575
  1211  05B8  0877               	movf	??_I2C_Master_Init+3,w
  1212  05B9  00A3               	movwf	___lldiv@divisor+3
  1213  05BA  0876               	movf	??_I2C_Master_Init+2,w
  1214  05BB  00A2               	movwf	___lldiv@divisor+2
  1215  05BC  0875               	movf	??_I2C_Master_Init+1,w
  1216  05BD  00A1               	movwf	___lldiv@divisor+1
  1217  05BE  0874               	movf	??_I2C_Master_Init,w
  1218  05BF  00A0               	movwf	___lldiv@divisor
  1219  05C0  3000               	movlw	0
  1220  05C1  00A7               	movwf	___lldiv@dividend+3
  1221  05C2  303D               	movlw	61
  1222  05C3  00A6               	movwf	___lldiv@dividend+2
  1223  05C4  3009               	movlw	9
  1224  05C5  00A5               	movwf	___lldiv@dividend+1
  1225  05C6  3000               	movlw	0
  1226  05C7  00A4               	movwf	___lldiv@dividend
  1227  05C8  120A  118A  240E  120A  118A  	fcall	___lldiv
  1228  05CD  1283               	bcf	3,5	;RP0=0, select bank0
  1229  05CE  1303               	bcf	3,6	;RP1=0, select bank0
  1230  05CF  0820               	movf	?___lldiv,w
  1231  05D0  3EFF               	addlw	255
  1232  05D1  1683               	bsf	3,5	;RP0=1, select bank1
  1233  05D2  1303               	bcf	3,6	;RP1=0, select bank1
  1234  05D3  0093               	movwf	19	;volatile
  1235  05D4                     l1744:
  1236                           
  1237                           ;C:/Users/danie/OneDrive/Desktop/DIGITAL2/proyecto2/master.X/I2C.c: 20:     SSPSTAT = 0;
  1238  05D4  0194               	clrf	20	;volatile
  1239  05D5                     l1746:
  1240                           
  1241                           ;C:/Users/danie/OneDrive/Desktop/DIGITAL2/proyecto2/master.X/I2C.c: 21:     TRISCbits.TR
      +                          ISC3 = 1;
  1242  05D5  1587               	bsf	7,3	;volatile
  1243  05D6                     l1748:
  1244                           
  1245                           ;C:/Users/danie/OneDrive/Desktop/DIGITAL2/proyecto2/master.X/I2C.c: 22:     TRISCbits.TR
      +                          ISC4 = 1;
  1246  05D6  1607               	bsf	7,4	;volatile
  1247  05D7                     l143:
  1248  05D7  0008               	return
  1249  05D8                     __end_of_I2C_Master_Init:
  1250                           
  1251                           	psect	text4
  1252  040E                     __ptext4:	
  1253 ;; *************** function ___lldiv *****************
  1254 ;; Defined at:
  1255 ;;		line 5 in file "C:\Program Files\Microchip\xc8\v2.31\pic\sources\c90\common\__lldiv.c"
  1256 ;; Parameters:    Size  Location     Type
  1257 ;;  divisor         4    0[BANK0 ] unsigned long 
  1258 ;;  dividend        4    4[BANK0 ] unsigned long 
  1259 ;; Auto vars:     Size  Location     Type
  1260 ;;  quotient        4    8[BANK0 ] unsigned long 
  1261 ;;  counter         1   12[BANK0 ] unsigned char 
  1262 ;; Return value:  Size  Location     Type
  1263 ;;                  4    0[BANK0 ] unsigned long 
  1264 ;; Registers used:
  1265 ;;		wreg, status,2, status,0
  1266 ;; Tracked objects:
  1267 ;;		On entry : 0/0
  1268 ;;		On exit  : 0/0
  1269 ;;		Unchanged: 0/0
  1270 ;; Data sizes:     COMMON   BANK0   BANK1   BANK3   BANK2
  1271 ;;      Params:         0       8       0       0       0
  1272 ;;      Locals:         0       5       0       0       0
  1273 ;;      Temps:          1       0       0       0       0
  1274 ;;      Totals:         1      13       0       0       0
  1275 ;;Total ram usage:       14 bytes
  1276 ;; Hardware stack levels used:    1
  1277 ;; Hardware stack levels required when called:    1
  1278 ;; This function calls:
  1279 ;;		Nothing
  1280 ;; This function is called by:
  1281 ;;		_I2C_Master_Init
  1282 ;; This function uses a non-reentrant model
  1283 ;;
  1284                           
  1285                           
  1286                           ;psect for function ___lldiv
  1287  040E                     ___lldiv:
  1288  040E                     l1714:	
  1289                           ;incstack = 0
  1290                           ; Regs used in ___lldiv: [wreg+status,2+status,0]
  1291                           
  1292  040E  3000               	movlw	0
  1293  040F  1283               	bcf	3,5	;RP0=0, select bank0
  1294  0410  1303               	bcf	3,6	;RP1=0, select bank0
  1295  0411  00AB               	movwf	___lldiv@quotient+3
  1296  0412  3000               	movlw	0
  1297  0413  00AA               	movwf	___lldiv@quotient+2
  1298  0414  3000               	movlw	0
  1299  0415  00A9               	movwf	___lldiv@quotient+1
  1300  0416  3000               	movlw	0
  1301  0417  00A8               	movwf	___lldiv@quotient
  1302  0418  0823               	movf	___lldiv@divisor+3,w
  1303  0419  0422               	iorwf	___lldiv@divisor+2,w
  1304  041A  0421               	iorwf	___lldiv@divisor+1,w
  1305  041B  0420               	iorwf	___lldiv@divisor,w
  1306  041C  1903               	skipnz
  1307  041D  2C1F               	goto	u1501
  1308  041E  2C20               	goto	u1500
  1309  041F                     u1501:
  1310  041F  2C6D               	goto	l1734
  1311  0420                     u1500:
  1312  0420                     l1716:
  1313  0420  01AC               	clrf	___lldiv@counter
  1314  0421  0AAC               	incf	___lldiv@counter,f
  1315  0422  2C30               	goto	l1720
  1316  0423                     l1718:
  1317  0423  3001               	movlw	1
  1318  0424  00F3               	movwf	??___lldiv
  1319  0425                     u1515:
  1320  0425  1003               	clrc
  1321  0426  0DA0               	rlf	___lldiv@divisor,f
  1322  0427  0DA1               	rlf	___lldiv@divisor+1,f
  1323  0428  0DA2               	rlf	___lldiv@divisor+2,f
  1324  0429  0DA3               	rlf	___lldiv@divisor+3,f
  1325  042A  0BF3               	decfsz	??___lldiv,f
  1326  042B  2C25               	goto	u1515
  1327  042C  3001               	movlw	1
  1328  042D  00F3               	movwf	??___lldiv
  1329  042E  0873               	movf	??___lldiv,w
  1330  042F  07AC               	addwf	___lldiv@counter,f
  1331  0430                     l1720:
  1332  0430  1FA3               	btfss	___lldiv@divisor+3,7
  1333  0431  2C33               	goto	u1521
  1334  0432  2C34               	goto	u1520
  1335  0433                     u1521:
  1336  0433  2C23               	goto	l1718
  1337  0434                     u1520:
  1338  0434                     l1722:
  1339  0434  3001               	movlw	1
  1340  0435  00F3               	movwf	??___lldiv
  1341  0436                     u1535:
  1342  0436  1003               	clrc
  1343  0437  0DA8               	rlf	___lldiv@quotient,f
  1344  0438  0DA9               	rlf	___lldiv@quotient+1,f
  1345  0439  0DAA               	rlf	___lldiv@quotient+2,f
  1346  043A  0DAB               	rlf	___lldiv@quotient+3,f
  1347  043B  0BF3               	decfsz	??___lldiv,f
  1348  043C  2C36               	goto	u1535
  1349  043D                     l1724:
  1350  043D  0823               	movf	___lldiv@divisor+3,w
  1351  043E  0227               	subwf	___lldiv@dividend+3,w
  1352  043F  1D03               	skipz
  1353  0440  2C4B               	goto	u1545
  1354  0441  0822               	movf	___lldiv@divisor+2,w
  1355  0442  0226               	subwf	___lldiv@dividend+2,w
  1356  0443  1D03               	skipz
  1357  0444  2C4B               	goto	u1545
  1358  0445  0821               	movf	___lldiv@divisor+1,w
  1359  0446  0225               	subwf	___lldiv@dividend+1,w
  1360  0447  1D03               	skipz
  1361  0448  2C4B               	goto	u1545
  1362  0449  0820               	movf	___lldiv@divisor,w
  1363  044A  0224               	subwf	___lldiv@dividend,w
  1364  044B                     u1545:
  1365  044B  1C03               	skipc
  1366  044C  2C4E               	goto	u1541
  1367  044D  2C4F               	goto	u1540
  1368  044E                     u1541:
  1369  044E  2C5E               	goto	l1730
  1370  044F                     u1540:
  1371  044F                     l1726:
  1372  044F  0820               	movf	___lldiv@divisor,w
  1373  0450  02A4               	subwf	___lldiv@dividend,f
  1374  0451  0821               	movf	___lldiv@divisor+1,w
  1375  0452  1C03               	skipc
  1376  0453  0F21               	incfsz	___lldiv@divisor+1,w
  1377  0454  02A5               	subwf	___lldiv@dividend+1,f
  1378  0455  0822               	movf	___lldiv@divisor+2,w
  1379  0456  1C03               	skipc
  1380  0457  0F22               	incfsz	___lldiv@divisor+2,w
  1381  0458  02A6               	subwf	___lldiv@dividend+2,f
  1382  0459  0823               	movf	___lldiv@divisor+3,w
  1383  045A  1C03               	skipc
  1384  045B  0F23               	incfsz	___lldiv@divisor+3,w
  1385  045C  02A7               	subwf	___lldiv@dividend+3,f
  1386  045D                     l1728:
  1387  045D  1428               	bsf	___lldiv@quotient,0
  1388  045E                     l1730:
  1389  045E  3001               	movlw	1
  1390  045F                     u1555:
  1391  045F  1003               	clrc
  1392  0460  0CA3               	rrf	___lldiv@divisor+3,f
  1393  0461  0CA2               	rrf	___lldiv@divisor+2,f
  1394  0462  0CA1               	rrf	___lldiv@divisor+1,f
  1395  0463  0CA0               	rrf	___lldiv@divisor,f
  1396  0464  3EFF               	addlw	-1
  1397  0465  1D03               	skipz
  1398  0466  2C5F               	goto	u1555
  1399  0467                     l1732:
  1400  0467  3001               	movlw	1
  1401  0468  02AC               	subwf	___lldiv@counter,f
  1402  0469  1D03               	btfss	3,2
  1403  046A  2C6C               	goto	u1561
  1404  046B  2C6D               	goto	u1560
  1405  046C                     u1561:
  1406  046C  2C34               	goto	l1722
  1407  046D                     u1560:
  1408  046D                     l1734:
  1409  046D  082B               	movf	___lldiv@quotient+3,w
  1410  046E  00A3               	movwf	?___lldiv+3
  1411  046F  082A               	movf	___lldiv@quotient+2,w
  1412  0470  00A2               	movwf	?___lldiv+2
  1413  0471  0829               	movf	___lldiv@quotient+1,w
  1414  0472  00A1               	movwf	?___lldiv+1
  1415  0473  0828               	movf	___lldiv@quotient,w
  1416  0474  00A0               	movwf	?___lldiv
  1417  0475                     l328:
  1418  0475  0008               	return
  1419  0476                     __end_of___lldiv:
  1420                           
  1421                           	psect	text5
  1422  0639                     __ptext5:	
  1423 ;; *************** function _ADXL345_init *****************
  1424 ;; Defined at:
  1425 ;;		line 109 in file "C:/Users/danie/OneDrive/Desktop/DIGITAL2/proyecto2/master.X/I2C.c"
  1426 ;; Parameters:    Size  Location     Type
  1427 ;;		None
  1428 ;; Auto vars:     Size  Location     Type
  1429 ;;		None
  1430 ;; Return value:  Size  Location     Type
  1431 ;;                  1    wreg      void 
  1432 ;; Registers used:
  1433 ;;		wreg, status,2, status,0, pclath, cstack
  1434 ;; Tracked objects:
  1435 ;;		On entry : 0/0
  1436 ;;		On exit  : 0/0
  1437 ;;		Unchanged: 0/0
  1438 ;; Data sizes:     COMMON   BANK0   BANK1   BANK3   BANK2
  1439 ;;      Params:         0       0       0       0       0
  1440 ;;      Locals:         0       0       0       0       0
  1441 ;;      Temps:          0       2       0       0       0
  1442 ;;      Totals:         0       2       0       0       0
  1443 ;;Total ram usage:        2 bytes
  1444 ;; Hardware stack levels used:    1
  1445 ;; Hardware stack levels required when called:    4
  1446 ;; This function calls:
  1447 ;;		_ADXL345_WRITE
  1448 ;; This function is called by:
  1449 ;;		_setup
  1450 ;; This function uses a non-reentrant model
  1451 ;;
  1452                           
  1453                           
  1454                           ;psect for function _ADXL345_init
  1455  0639                     _ADXL345_init:
  1456  0639                     l1750:	
  1457                           ;incstack = 0
  1458                           ; Regs used in _ADXL345_init: [wreg+status,2+status,0+pclath+cstack]
  1459                           
  1460                           
  1461                           ;C:/Users/danie/OneDrive/Desktop/DIGITAL2/proyecto2/master.X/I2C.c: 110:     ADXL345_WRI
      +                          TE(0x31, 0x0B);
  1462  0639  300B               	movlw	11
  1463  063A  1283               	bcf	3,5	;RP0=0, select bank0
  1464  063B  1303               	bcf	3,6	;RP1=0, select bank0
  1465  063C  00A1               	movwf	??_ADXL345_init
  1466  063D  0821               	movf	??_ADXL345_init,w
  1467  063E  00F5               	movwf	ADXL345_WRITE@data
  1468  063F  3031               	movlw	49
  1469  0640  120A  118A  25D8  120A  118A  	fcall	_ADXL345_WRITE
  1470  0645                     l1752:
  1471                           
  1472                           ;C:/Users/danie/OneDrive/Desktop/DIGITAL2/proyecto2/master.X/I2C.c: 111:     _delay((uns
      +                          igned long)((2)*(4000000/4000.0)));
  1473  0645  3003               	movlw	3
  1474  0646  1283               	bcf	3,5	;RP0=0, select bank0
  1475  0647  1303               	bcf	3,6	;RP1=0, select bank0
  1476  0648  00A2               	movwf	??_ADXL345_init+1
  1477  0649  3097               	movlw	151
  1478  064A  00A1               	movwf	??_ADXL345_init
  1479  064B                     u1747:
  1480  064B  0BA1               	decfsz	??_ADXL345_init,f
  1481  064C  2E4B               	goto	u1747
  1482  064D  0BA2               	decfsz	??_ADXL345_init+1,f
  1483  064E  2E4B               	goto	u1747
  1484  064F                     l1754:
  1485                           
  1486                           ;C:/Users/danie/OneDrive/Desktop/DIGITAL2/proyecto2/master.X/I2C.c: 112:     ADXL345_WRI
      +                          TE(0x2D, 0x08);
  1487  064F  3008               	movlw	8
  1488  0650  1283               	bcf	3,5	;RP0=0, select bank0
  1489  0651  1303               	bcf	3,6	;RP1=0, select bank0
  1490  0652  00A1               	movwf	??_ADXL345_init
  1491  0653  0821               	movf	??_ADXL345_init,w
  1492  0654  00F5               	movwf	ADXL345_WRITE@data
  1493  0655  302D               	movlw	45
  1494  0656  120A  118A  25D8  120A  118A  	fcall	_ADXL345_WRITE
  1495                           
  1496                           ;C:/Users/danie/OneDrive/Desktop/DIGITAL2/proyecto2/master.X/I2C.c: 113:     _delay((uns
      +                          igned long)((2)*(4000000/4000.0)));
  1497  065B  3003               	movlw	3
  1498  065C  1283               	bcf	3,5	;RP0=0, select bank0
  1499  065D  1303               	bcf	3,6	;RP1=0, select bank0
  1500  065E  00A2               	movwf	??_ADXL345_init+1
  1501  065F  3097               	movlw	151
  1502  0660  00A1               	movwf	??_ADXL345_init
  1503  0661                     u1757:
  1504  0661  0BA1               	decfsz	??_ADXL345_init,f
  1505  0662  2E61               	goto	u1757
  1506  0663  0BA2               	decfsz	??_ADXL345_init+1,f
  1507  0664  2E61               	goto	u1757
  1508  0665                     l172:
  1509  0665  0008               	return
  1510  0666                     __end_of_ADXL345_init:
  1511                           
  1512                           	psect	text6
  1513  05D8                     __ptext6:	
  1514 ;; *************** function _ADXL345_WRITE *****************
  1515 ;; Defined at:
  1516 ;;		line 126 in file "C:/Users/danie/OneDrive/Desktop/DIGITAL2/proyecto2/master.X/I2C.c"
  1517 ;; Parameters:    Size  Location     Type
  1518 ;;  var             1    wreg     unsigned char 
  1519 ;;  data            1    5[COMMON] unsigned char 
  1520 ;; Auto vars:     Size  Location     Type
  1521 ;;  var             1    0[BANK0 ] unsigned char 
  1522 ;; Return value:  Size  Location     Type
  1523 ;;                  1    wreg      void 
  1524 ;; Registers used:
  1525 ;;		wreg, status,2, status,0, pclath, cstack
  1526 ;; Tracked objects:
  1527 ;;		On entry : 0/0
  1528 ;;		On exit  : 0/0
  1529 ;;		Unchanged: 0/0
  1530 ;; Data sizes:     COMMON   BANK0   BANK1   BANK3   BANK2
  1531 ;;      Params:         1       0       0       0       0
  1532 ;;      Locals:         0       1       0       0       0
  1533 ;;      Temps:          2       0       0       0       0
  1534 ;;      Totals:         3       1       0       0       0
  1535 ;;Total ram usage:        4 bytes
  1536 ;; Hardware stack levels used:    1
  1537 ;; Hardware stack levels required when called:    3
  1538 ;; This function calls:
  1539 ;;		_I2C_Master_Start
  1540 ;;		_I2C_Master_Stop
  1541 ;;		_I2C_Master_Write
  1542 ;; This function is called by:
  1543 ;;		_ADXL345_init
  1544 ;; This function uses a non-reentrant model
  1545 ;;
  1546                           
  1547                           
  1548                           ;psect for function _ADXL345_WRITE
  1549  05D8                     _ADXL345_WRITE:
  1550                           
  1551                           ;incstack = 0
  1552                           ; Regs used in _ADXL345_WRITE: [wreg+status,2+status,0+pclath+cstack]
  1553                           ;ADXL345_WRITE@var stored from wreg
  1554  05D8  1283               	bcf	3,5	;RP0=0, select bank0
  1555  05D9  1303               	bcf	3,6	;RP1=0, select bank0
  1556  05DA  00A0               	movwf	ADXL345_WRITE@var
  1557  05DB                     l1712:
  1558                           
  1559                           ;C:/Users/danie/OneDrive/Desktop/DIGITAL2/proyecto2/master.X/I2C.c: 127:     I2C_Master_
      +                          Start();
  1560  05DB  120A  118A  26A3  120A  118A  	fcall	_I2C_Master_Start
  1561                           
  1562                           ;C:/Users/danie/OneDrive/Desktop/DIGITAL2/proyecto2/master.X/I2C.c: 128:     I2C_Master_
      +                          Write(0xA6);
  1563  05E0  30A6               	movlw	166
  1564  05E1  00F3               	movwf	I2C_Master_Write@d
  1565  05E2  3000               	movlw	0
  1566  05E3  00F4               	movwf	I2C_Master_Write@d+1
  1567  05E4  120A  118A  2690  120A  118A  	fcall	_I2C_Master_Write
  1568                           
  1569                           ;C:/Users/danie/OneDrive/Desktop/DIGITAL2/proyecto2/master.X/I2C.c: 129:     I2C_Master_
      +                          Write(var);
  1570  05E9  1283               	bcf	3,5	;RP0=0, select bank0
  1571  05EA  1303               	bcf	3,6	;RP1=0, select bank0
  1572  05EB  0820               	movf	ADXL345_WRITE@var,w
  1573  05EC  00F6               	movwf	??_ADXL345_WRITE
  1574  05ED  01F7               	clrf	??_ADXL345_WRITE+1
  1575  05EE  0876               	movf	??_ADXL345_WRITE,w
  1576  05EF  00F3               	movwf	I2C_Master_Write@d
  1577  05F0  0877               	movf	??_ADXL345_WRITE+1,w
  1578  05F1  00F4               	movwf	I2C_Master_Write@d+1
  1579  05F2  120A  118A  2690  120A  118A  	fcall	_I2C_Master_Write
  1580                           
  1581                           ;C:/Users/danie/OneDrive/Desktop/DIGITAL2/proyecto2/master.X/I2C.c: 130:     I2C_Master_
      +                          Write(data);
  1582  05F7  0875               	movf	ADXL345_WRITE@data,w
  1583  05F8  00F6               	movwf	??_ADXL345_WRITE
  1584  05F9  01F7               	clrf	??_ADXL345_WRITE+1
  1585  05FA  0876               	movf	??_ADXL345_WRITE,w
  1586  05FB  00F3               	movwf	I2C_Master_Write@d
  1587  05FC  0877               	movf	??_ADXL345_WRITE+1,w
  1588  05FD  00F4               	movwf	I2C_Master_Write@d+1
  1589  05FE  120A  118A  2690  120A  118A  	fcall	_I2C_Master_Write
  1590                           
  1591                           ;C:/Users/danie/OneDrive/Desktop/DIGITAL2/proyecto2/master.X/I2C.c: 131:     I2C_Master_
      +                          Stop();
  1592  0603  120A  118A  269A  120A  118A  	fcall	_I2C_Master_Stop
  1593  0608                     l178:
  1594  0608  0008               	return
  1595  0609                     __end_of_ADXL345_WRITE:
  1596                           
  1597                           	psect	text7
  1598  0338                     __ptext7:	
  1599 ;; *************** function _ADXL345_readY *****************
  1600 ;; Defined at:
  1601 ;;		line 144 in file "C:/Users/danie/OneDrive/Desktop/DIGITAL2/proyecto2/master.X/I2C.c"
  1602 ;; Parameters:    Size  Location     Type
  1603 ;;		None
  1604 ;; Auto vars:     Size  Location     Type
  1605 ;;  data_y          2   57[BANK0 ] char [2]
  1606 ;;  acc_y           2   55[BANK0 ] short 
  1607 ;;  accel_y         2   53[BANK0 ] int 
  1608 ;; Return value:  Size  Location     Type
  1609 ;;                  2   47[BANK0 ] short 
  1610 ;; Registers used:
  1611 ;;		wreg, status,2, status,0, btemp+1, pclath, cstack
  1612 ;; Tracked objects:
  1613 ;;		On entry : 0/0
  1614 ;;		On exit  : 0/0
  1615 ;;		Unchanged: 0/0
  1616 ;; Data sizes:     COMMON   BANK0   BANK1   BANK3   BANK2
  1617 ;;      Params:         0       2       0       0       0
  1618 ;;      Locals:         0       6       0       0       0
  1619 ;;      Temps:          0       4       0       0       0
  1620 ;;      Totals:         0      12       0       0       0
  1621 ;;Total ram usage:       12 bytes
  1622 ;; Hardware stack levels used:    1
  1623 ;; Hardware stack levels required when called:    4
  1624 ;; This function calls:
  1625 ;;		_ADXL345_READ
  1626 ;;		___fldiv
  1627 ;;		___fltol
  1628 ;;		___xxtofl
  1629 ;; This function is called by:
  1630 ;;		_main
  1631 ;; This function uses a non-reentrant model
  1632 ;;
  1633                           
  1634                           
  1635                           ;psect for function _ADXL345_readY
  1636  0338                     _ADXL345_readY:
  1637  0338                     l1842:	
  1638                           ;incstack = 0
  1639                           ; Regs used in _ADXL345_readY: [wreg+status,2+status,0+btemp+1+pclath+cstack]
  1640                           
  1641                           
  1642                           ;C:/Users/danie/OneDrive/Desktop/DIGITAL2/proyecto2/master.X/I2C.c: 145:      int8_t dat
      +                          a_y[2];;C:/Users/danie/OneDrive/Desktop/DIGITAL2/proyecto2/master.X/I2C.c: 146:      int
      +                          16_t accel_y;;C:/Users/danie/OneDrive/Desktop/DIGITAL2/proyecto2/master.X/I2C.c: 147:   
      +                             signed short acc_y;;C:/Users/danie/OneDrive/Desktop/DIGITAL2/proyecto2/master.X/I2C.c
      +                          : 148:      data_y[0] = ADXL345_READ(0x34);
  1643  0338  3034               	movlw	52
  1644  0339  120A  118A  2515  120A  118A  	fcall	_ADXL345_READ
  1645  033E  1283               	bcf	3,5	;RP0=0, select bank0
  1646  033F  1303               	bcf	3,6	;RP1=0, select bank0
  1647  0340  0822               	movf	?_ADXL345_READ,w
  1648  0341  00D1               	movwf	??_ADXL345_readY
  1649  0342  0851               	movf	??_ADXL345_readY,w
  1650  0343  00D9               	movwf	ADXL345_readY@data_y
  1651                           
  1652                           ;C:/Users/danie/OneDrive/Desktop/DIGITAL2/proyecto2/master.X/I2C.c: 149:      data_y[1] 
      +                          = ADXL345_READ(0x35);
  1653  0344  3035               	movlw	53
  1654  0345  120A  118A  2515  120A  118A  	fcall	_ADXL345_READ
  1655  034A  1283               	bcf	3,5	;RP0=0, select bank0
  1656  034B  1303               	bcf	3,6	;RP1=0, select bank0
  1657  034C  0822               	movf	?_ADXL345_READ,w
  1658  034D  00D1               	movwf	??_ADXL345_readY
  1659  034E  0851               	movf	??_ADXL345_readY,w
  1660  034F  00DA               	movwf	ADXL345_readY@data_y+1
  1661  0350                     l1844:
  1662                           
  1663                           ;C:/Users/danie/OneDrive/Desktop/DIGITAL2/proyecto2/master.X/I2C.c: 150:      accel_y = 
      +                          (data_y[1]*256)+(data_y[0]);
  1664  0350  0859               	movf	ADXL345_readY@data_y,w
  1665  0351  00D1               	movwf	??_ADXL345_readY
  1666  0352  01D2               	clrf	??_ADXL345_readY+1
  1667  0353  1BD1               	btfsc	??_ADXL345_readY,7
  1668  0354  03D2               	decf	??_ADXL345_readY+1,f
  1669  0355  085A               	movf	ADXL345_readY@data_y+1,w
  1670  0356  00D3               	movwf	??_ADXL345_readY+2
  1671  0357  01D4               	clrf	??_ADXL345_readY+3
  1672  0358  0853               	movf	??_ADXL345_readY+2,w
  1673  0359  00D4               	movwf	??_ADXL345_readY+3
  1674  035A  01D3               	clrf	??_ADXL345_readY+2
  1675  035B  0851               	movf	??_ADXL345_readY,w
  1676  035C  0753               	addwf	??_ADXL345_readY+2,w
  1677  035D  00D5               	movwf	ADXL345_readY@accel_y
  1678  035E  0852               	movf	??_ADXL345_readY+1,w
  1679  035F  1803               	skipnc
  1680  0360  0A52               	incf	??_ADXL345_readY+1,w
  1681  0361  0754               	addwf	??_ADXL345_readY+3,w
  1682  0362  00D6               	movwf	ADXL345_readY@accel_y+1
  1683  0363                     l1846:
  1684                           
  1685                           ;C:/Users/danie/OneDrive/Desktop/DIGITAL2/proyecto2/master.X/I2C.c: 151:      acc_y = (a
      +                          ccel_y)/16.384;
  1686  0363  0855               	movf	ADXL345_readY@accel_y,w
  1687  0364  00F3               	movwf	___xxtofl@val
  1688  0365  0856               	movf	ADXL345_readY@accel_y+1,w
  1689  0366  00F4               	movwf	___xxtofl@val+1
  1690  0367  3000               	movlw	0
  1691  0368  1BF4               	btfsc	___xxtofl@val+1,7
  1692  0369  30FF               	movlw	255
  1693  036A  00F5               	movwf	___xxtofl@val+2
  1694  036B  00F6               	movwf	___xxtofl@val+3
  1695  036C  3001               	movlw	1
  1696  036D  120A  118A  2200  120A  118A  	fcall	___xxtofl
  1697  0372  0876               	movf	?___xxtofl+3,w
  1698  0373  1283               	bcf	3,5	;RP0=0, select bank0
  1699  0374  1303               	bcf	3,6	;RP1=0, select bank0
  1700  0375  00B1               	movwf	___fldiv@b+3
  1701  0376  0875               	movf	?___xxtofl+2,w
  1702  0377  00B0               	movwf	___fldiv@b+2
  1703  0378  0874               	movf	?___xxtofl+1,w
  1704  0379  00AF               	movwf	___fldiv@b+1
  1705  037A  0873               	movf	?___xxtofl,w
  1706  037B  00AE               	movwf	___fldiv@b
  1707  037C  3041               	movlw	65
  1708  037D  00AD               	movwf	___fldiv@a+3
  1709  037E  3083               	movlw	131
  1710  037F  00AC               	movwf	___fldiv@a+2
  1711  0380  3012               	movlw	18
  1712  0381  00AB               	movwf	___fldiv@a+1
  1713  0382  306F               	movlw	111
  1714  0383  00AA               	movwf	___fldiv@a
  1715  0384  120A  118A  2023  120A  118A  	fcall	___fldiv
  1716  0389  1283               	bcf	3,5	;RP0=0, select bank0
  1717  038A  1303               	bcf	3,6	;RP1=0, select bank0
  1718  038B  082D               	movf	?___fldiv+3,w
  1719  038C  00C7               	movwf	___fltol@f1+3
  1720  038D  082C               	movf	?___fldiv+2,w
  1721  038E  00C6               	movwf	___fltol@f1+2
  1722  038F  082B               	movf	?___fldiv+1,w
  1723  0390  00C5               	movwf	___fltol@f1+1
  1724  0391  082A               	movf	?___fldiv,w
  1725  0392  00C4               	movwf	___fltol@f1
  1726  0393  120A  118A  22BC  120A  118A  	fcall	___fltol
  1727  0398  1283               	bcf	3,5	;RP0=0, select bank0
  1728  0399  1303               	bcf	3,6	;RP1=0, select bank0
  1729  039A  0845               	movf	?___fltol+1,w
  1730  039B  00D8               	movwf	ADXL345_readY@acc_y+1
  1731  039C  0844               	movf	?___fltol,w
  1732  039D  00D7               	movwf	ADXL345_readY@acc_y
  1733  039E                     l1848:
  1734                           
  1735                           ;C:/Users/danie/OneDrive/Desktop/DIGITAL2/proyecto2/master.X/I2C.c: 152:      return acc
      +                          _y;
  1736  039E  0858               	movf	ADXL345_readY@acc_y+1,w
  1737  039F  00D0               	movwf	?_ADXL345_readY+1
  1738  03A0  0857               	movf	ADXL345_readY@acc_y,w
  1739  03A1  00CF               	movwf	?_ADXL345_readY
  1740  03A2                     l184:
  1741  03A2  0008               	return
  1742  03A3                     __end_of_ADXL345_readY:
  1743                           
  1744                           	psect	text8
  1745  03A3                     __ptext8:	
  1746 ;; *************** function _ADXL345_readX *****************
  1747 ;; Defined at:
  1748 ;;		line 134 in file "C:/Users/danie/OneDrive/Desktop/DIGITAL2/proyecto2/master.X/I2C.c"
  1749 ;; Parameters:    Size  Location     Type
  1750 ;;		None
  1751 ;; Auto vars:     Size  Location     Type
  1752 ;;  data_x          2   57[BANK0 ] char [2]
  1753 ;;  acc_x           2   55[BANK0 ] short 
  1754 ;;  accel_x         2   53[BANK0 ] int 
  1755 ;; Return value:  Size  Location     Type
  1756 ;;                  2   47[BANK0 ] short 
  1757 ;; Registers used:
  1758 ;;		wreg, status,2, status,0, btemp+1, pclath, cstack
  1759 ;; Tracked objects:
  1760 ;;		On entry : 0/0
  1761 ;;		On exit  : 0/0
  1762 ;;		Unchanged: 0/0
  1763 ;; Data sizes:     COMMON   BANK0   BANK1   BANK3   BANK2
  1764 ;;      Params:         0       2       0       0       0
  1765 ;;      Locals:         0       6       0       0       0
  1766 ;;      Temps:          0       4       0       0       0
  1767 ;;      Totals:         0      12       0       0       0
  1768 ;;Total ram usage:       12 bytes
  1769 ;; Hardware stack levels used:    1
  1770 ;; Hardware stack levels required when called:    4
  1771 ;; This function calls:
  1772 ;;		_ADXL345_READ
  1773 ;;		___fldiv
  1774 ;;		___fltol
  1775 ;;		___xxtofl
  1776 ;; This function is called by:
  1777 ;;		_main
  1778 ;; This function uses a non-reentrant model
  1779 ;;
  1780                           
  1781                           
  1782                           ;psect for function _ADXL345_readX
  1783  03A3                     _ADXL345_readX:
  1784  03A3                     l1832:	
  1785                           ;incstack = 0
  1786                           ; Regs used in _ADXL345_readX: [wreg+status,2+status,0+btemp+1+pclath+cstack]
  1787                           
  1788                           
  1789                           ;C:/Users/danie/OneDrive/Desktop/DIGITAL2/proyecto2/master.X/I2C.c: 135:      int8_t dat
      +                          a_x[2];;C:/Users/danie/OneDrive/Desktop/DIGITAL2/proyecto2/master.X/I2C.c: 136:      int
      +                          16_t accel_x;;C:/Users/danie/OneDrive/Desktop/DIGITAL2/proyecto2/master.X/I2C.c: 137:   
      +                             signed short acc_x;;C:/Users/danie/OneDrive/Desktop/DIGITAL2/proyecto2/master.X/I2C.c
      +                          : 138:      data_x[0] = ADXL345_READ(0x32);
  1790  03A3  3032               	movlw	50
  1791  03A4  120A  118A  2515  120A  118A  	fcall	_ADXL345_READ
  1792  03A9  1283               	bcf	3,5	;RP0=0, select bank0
  1793  03AA  1303               	bcf	3,6	;RP1=0, select bank0
  1794  03AB  0822               	movf	?_ADXL345_READ,w
  1795  03AC  00D1               	movwf	??_ADXL345_readX
  1796  03AD  0851               	movf	??_ADXL345_readX,w
  1797  03AE  00D9               	movwf	ADXL345_readX@data_x
  1798                           
  1799                           ;C:/Users/danie/OneDrive/Desktop/DIGITAL2/proyecto2/master.X/I2C.c: 139:      data_x[1] 
      +                          = ADXL345_READ(0x33);
  1800  03AF  3033               	movlw	51
  1801  03B0  120A  118A  2515  120A  118A  	fcall	_ADXL345_READ
  1802  03B5  1283               	bcf	3,5	;RP0=0, select bank0
  1803  03B6  1303               	bcf	3,6	;RP1=0, select bank0
  1804  03B7  0822               	movf	?_ADXL345_READ,w
  1805  03B8  00D1               	movwf	??_ADXL345_readX
  1806  03B9  0851               	movf	??_ADXL345_readX,w
  1807  03BA  00DA               	movwf	ADXL345_readX@data_x+1
  1808  03BB                     l1834:
  1809                           
  1810                           ;C:/Users/danie/OneDrive/Desktop/DIGITAL2/proyecto2/master.X/I2C.c: 140:      accel_x = 
      +                          (data_x[1]*256)+(data_x[0]);
  1811  03BB  0859               	movf	ADXL345_readX@data_x,w
  1812  03BC  00D1               	movwf	??_ADXL345_readX
  1813  03BD  01D2               	clrf	??_ADXL345_readX+1
  1814  03BE  1BD1               	btfsc	??_ADXL345_readX,7
  1815  03BF  03D2               	decf	??_ADXL345_readX+1,f
  1816  03C0  085A               	movf	ADXL345_readX@data_x+1,w
  1817  03C1  00D3               	movwf	??_ADXL345_readX+2
  1818  03C2  01D4               	clrf	??_ADXL345_readX+3
  1819  03C3  0853               	movf	??_ADXL345_readX+2,w
  1820  03C4  00D4               	movwf	??_ADXL345_readX+3
  1821  03C5  01D3               	clrf	??_ADXL345_readX+2
  1822  03C6  0851               	movf	??_ADXL345_readX,w
  1823  03C7  0753               	addwf	??_ADXL345_readX+2,w
  1824  03C8  00D5               	movwf	ADXL345_readX@accel_x
  1825  03C9  0852               	movf	??_ADXL345_readX+1,w
  1826  03CA  1803               	skipnc
  1827  03CB  0A52               	incf	??_ADXL345_readX+1,w
  1828  03CC  0754               	addwf	??_ADXL345_readX+3,w
  1829  03CD  00D6               	movwf	ADXL345_readX@accel_x+1
  1830  03CE                     l1836:
  1831                           
  1832                           ;C:/Users/danie/OneDrive/Desktop/DIGITAL2/proyecto2/master.X/I2C.c: 141:      acc_x = (a
      +                          ccel_x)/16.384;
  1833  03CE  0855               	movf	ADXL345_readX@accel_x,w
  1834  03CF  00F3               	movwf	___xxtofl@val
  1835  03D0  0856               	movf	ADXL345_readX@accel_x+1,w
  1836  03D1  00F4               	movwf	___xxtofl@val+1
  1837  03D2  3000               	movlw	0
  1838  03D3  1BF4               	btfsc	___xxtofl@val+1,7
  1839  03D4  30FF               	movlw	255
  1840  03D5  00F5               	movwf	___xxtofl@val+2
  1841  03D6  00F6               	movwf	___xxtofl@val+3
  1842  03D7  3001               	movlw	1
  1843  03D8  120A  118A  2200  120A  118A  	fcall	___xxtofl
  1844  03DD  0876               	movf	?___xxtofl+3,w
  1845  03DE  1283               	bcf	3,5	;RP0=0, select bank0
  1846  03DF  1303               	bcf	3,6	;RP1=0, select bank0
  1847  03E0  00B1               	movwf	___fldiv@b+3
  1848  03E1  0875               	movf	?___xxtofl+2,w
  1849  03E2  00B0               	movwf	___fldiv@b+2
  1850  03E3  0874               	movf	?___xxtofl+1,w
  1851  03E4  00AF               	movwf	___fldiv@b+1
  1852  03E5  0873               	movf	?___xxtofl,w
  1853  03E6  00AE               	movwf	___fldiv@b
  1854  03E7  3041               	movlw	65
  1855  03E8  00AD               	movwf	___fldiv@a+3
  1856  03E9  3083               	movlw	131
  1857  03EA  00AC               	movwf	___fldiv@a+2
  1858  03EB  3012               	movlw	18
  1859  03EC  00AB               	movwf	___fldiv@a+1
  1860  03ED  306F               	movlw	111
  1861  03EE  00AA               	movwf	___fldiv@a
  1862  03EF  120A  118A  2023  120A  118A  	fcall	___fldiv
  1863  03F4  1283               	bcf	3,5	;RP0=0, select bank0
  1864  03F5  1303               	bcf	3,6	;RP1=0, select bank0
  1865  03F6  082D               	movf	?___fldiv+3,w
  1866  03F7  00C7               	movwf	___fltol@f1+3
  1867  03F8  082C               	movf	?___fldiv+2,w
  1868  03F9  00C6               	movwf	___fltol@f1+2
  1869  03FA  082B               	movf	?___fldiv+1,w
  1870  03FB  00C5               	movwf	___fltol@f1+1
  1871  03FC  082A               	movf	?___fldiv,w
  1872  03FD  00C4               	movwf	___fltol@f1
  1873  03FE  120A  118A  22BC  120A  118A  	fcall	___fltol
  1874  0403  1283               	bcf	3,5	;RP0=0, select bank0
  1875  0404  1303               	bcf	3,6	;RP1=0, select bank0
  1876  0405  0845               	movf	?___fltol+1,w
  1877  0406  00D8               	movwf	ADXL345_readX@acc_x+1
  1878  0407  0844               	movf	?___fltol,w
  1879  0408  00D7               	movwf	ADXL345_readX@acc_x
  1880  0409                     l1838:
  1881                           
  1882                           ;C:/Users/danie/OneDrive/Desktop/DIGITAL2/proyecto2/master.X/I2C.c: 142:      return acc
      +                          _x;
  1883  0409  0858               	movf	ADXL345_readX@acc_x+1,w
  1884  040A  00D0               	movwf	?_ADXL345_readX+1
  1885  040B  0857               	movf	ADXL345_readX@acc_x,w
  1886  040C  00CF               	movwf	?_ADXL345_readX
  1887  040D                     l181:
  1888  040D  0008               	return
  1889  040E                     __end_of_ADXL345_readX:
  1890                           
  1891                           	psect	text9
  1892  0200                     __ptext9:	
  1893 ;; *************** function ___xxtofl *****************
  1894 ;; Defined at:
  1895 ;;		line 10 in file "C:\Program Files\Microchip\xc8\v2.31\pic\sources\c90\common\xxtofl.c"
  1896 ;; Parameters:    Size  Location     Type
  1897 ;;  sign            1    wreg     unsigned char 
  1898 ;;  val             4    3[COMMON] long 
  1899 ;; Auto vars:     Size  Location     Type
  1900 ;;  sign            1    4[BANK0 ] unsigned char 
  1901 ;;  arg             4    6[BANK0 ] unsigned long 
  1902 ;;  exp             1    5[BANK0 ] unsigned char 
  1903 ;; Return value:  Size  Location     Type
  1904 ;;                  4    3[COMMON] unsigned char 
  1905 ;; Registers used:
  1906 ;;		wreg, status,2, status,0
  1907 ;; Tracked objects:
  1908 ;;		On entry : 0/0
  1909 ;;		On exit  : 0/0
  1910 ;;		Unchanged: 0/0
  1911 ;; Data sizes:     COMMON   BANK0   BANK1   BANK3   BANK2
  1912 ;;      Params:         4       0       0       0       0
  1913 ;;      Locals:         0       6       0       0       0
  1914 ;;      Temps:          0       4       0       0       0
  1915 ;;      Totals:         4      10       0       0       0
  1916 ;;Total ram usage:       14 bytes
  1917 ;; Hardware stack levels used:    1
  1918 ;; Hardware stack levels required when called:    1
  1919 ;; This function calls:
  1920 ;;		Nothing
  1921 ;; This function is called by:
  1922 ;;		_ADXL345_readX
  1923 ;;		_ADXL345_readY
  1924 ;;		_ADXL345_readZ
  1925 ;; This function uses a non-reentrant model
  1926 ;;
  1927                           
  1928                           
  1929                           ;psect for function ___xxtofl
  1930  0200                     ___xxtofl:
  1931                           
  1932                           ;incstack = 0
  1933                           ; Regs used in ___xxtofl: [wreg+status,2+status,0]
  1934                           ;___xxtofl@sign stored from wreg
  1935  0200  1283               	bcf	3,5	;RP0=0, select bank0
  1936  0201  1303               	bcf	3,6	;RP1=0, select bank0
  1937  0202  00A4               	movwf	___xxtofl@sign
  1938  0203                     l1762:
  1939  0203  0824               	movf	___xxtofl@sign,w
  1940  0204  1903               	btfsc	3,2
  1941  0205  2A07               	goto	u1581
  1942  0206  2A08               	goto	u1580
  1943  0207                     u1581:
  1944  0207  2A1C               	goto	l1768
  1945  0208                     u1580:
  1946  0208                     l1764:
  1947  0208  1FF6               	btfss	___xxtofl@val+3,7
  1948  0209  2A0B               	goto	u1591
  1949  020A  2A0C               	goto	u1590
  1950  020B                     u1591:
  1951  020B  2A1C               	goto	l1768
  1952  020C                     u1590:
  1953  020C                     l1766:
  1954  020C  0973               	comf	___xxtofl@val,w
  1955  020D  00A6               	movwf	___xxtofl@arg
  1956  020E  0974               	comf	___xxtofl@val+1,w
  1957  020F  00A7               	movwf	___xxtofl@arg+1
  1958  0210  0975               	comf	___xxtofl@val+2,w
  1959  0211  00A8               	movwf	___xxtofl@arg+2
  1960  0212  0976               	comf	___xxtofl@val+3,w
  1961  0213  00A9               	movwf	___xxtofl@arg+3
  1962  0214  0AA6               	incf	___xxtofl@arg,f
  1963  0215  1903               	skipnz
  1964  0216  0AA7               	incf	___xxtofl@arg+1,f
  1965  0217  1903               	skipnz
  1966  0218  0AA8               	incf	___xxtofl@arg+2,f
  1967  0219  1903               	skipnz
  1968  021A  0AA9               	incf	___xxtofl@arg+3,f
  1969  021B  2A24               	goto	l725
  1970  021C                     l1768:
  1971  021C  0876               	movf	___xxtofl@val+3,w
  1972  021D  00A9               	movwf	___xxtofl@arg+3
  1973  021E  0875               	movf	___xxtofl@val+2,w
  1974  021F  00A8               	movwf	___xxtofl@arg+2
  1975  0220  0874               	movf	___xxtofl@val+1,w
  1976  0221  00A7               	movwf	___xxtofl@arg+1
  1977  0222  0873               	movf	___xxtofl@val,w
  1978  0223  00A6               	movwf	___xxtofl@arg
  1979  0224                     l725:
  1980  0224  0876               	movf	___xxtofl@val+3,w
  1981  0225  0475               	iorwf	___xxtofl@val+2,w
  1982  0226  0474               	iorwf	___xxtofl@val+1,w
  1983  0227  0473               	iorwf	___xxtofl@val,w
  1984  0228  1D03               	skipz
  1985  0229  2A2B               	goto	u1601
  1986  022A  2A2C               	goto	u1600
  1987  022B                     u1601:
  1988  022B  2A35               	goto	l1774
  1989  022C                     u1600:
  1990  022C                     l1770:
  1991  022C  3000               	movlw	0
  1992  022D  00F6               	movwf	?___xxtofl+3
  1993  022E  3000               	movlw	0
  1994  022F  00F5               	movwf	?___xxtofl+2
  1995  0230  3000               	movlw	0
  1996  0231  00F4               	movwf	?___xxtofl+1
  1997  0232  3000               	movlw	0
  1998  0233  00F3               	movwf	?___xxtofl
  1999  0234  2ABB               	goto	l727
  2000  0235                     l1774:
  2001  0235  3096               	movlw	150
  2002  0236  00A0               	movwf	??___xxtofl
  2003  0237  0820               	movf	??___xxtofl,w
  2004  0238  00A5               	movwf	___xxtofl@exp
  2005  0239  2A47               	goto	l1778
  2006  023A                     l1776:
  2007  023A  3001               	movlw	1
  2008  023B  00A0               	movwf	??___xxtofl
  2009  023C  0820               	movf	??___xxtofl,w
  2010  023D  07A5               	addwf	___xxtofl@exp,f
  2011  023E  3001               	movlw	1
  2012  023F                     u1615:
  2013  023F  1003               	clrc
  2014  0240  0CA9               	rrf	___xxtofl@arg+3,f
  2015  0241  0CA8               	rrf	___xxtofl@arg+2,f
  2016  0242  0CA7               	rrf	___xxtofl@arg+1,f
  2017  0243  0CA6               	rrf	___xxtofl@arg,f
  2018  0244  3EFF               	addlw	-1
  2019  0245  1D03               	skipz
  2020  0246  2A3F               	goto	u1615
  2021  0247                     l1778:
  2022  0247  30FE               	movlw	254
  2023  0248  0529               	andwf	___xxtofl@arg+3,w
  2024  0249  1D03               	btfss	3,2
  2025  024A  2A4C               	goto	u1621
  2026  024B  2A4D               	goto	u1620
  2027  024C                     u1621:
  2028  024C  2A3A               	goto	l1776
  2029  024D                     u1620:
  2030  024D  2A69               	goto	l731
  2031  024E                     l1780:
  2032  024E  3001               	movlw	1
  2033  024F  00A0               	movwf	??___xxtofl
  2034  0250  0820               	movf	??___xxtofl,w
  2035  0251  07A5               	addwf	___xxtofl@exp,f
  2036  0252                     l1782:
  2037  0252  3001               	movlw	1
  2038  0253  07A6               	addwf	___xxtofl@arg,f
  2039  0254  3000               	movlw	0
  2040  0255  1803               	skipnc
  2041  0256  3001               	movlw	1
  2042  0257  07A7               	addwf	___xxtofl@arg+1,f
  2043  0258  3000               	movlw	0
  2044  0259  1803               	skipnc
  2045  025A  3001               	movlw	1
  2046  025B  07A8               	addwf	___xxtofl@arg+2,f
  2047  025C  3000               	movlw	0
  2048  025D  1803               	skipnc
  2049  025E  3001               	movlw	1
  2050  025F  07A9               	addwf	___xxtofl@arg+3,f
  2051  0260                     l1784:
  2052  0260  3001               	movlw	1
  2053  0261                     u1635:
  2054  0261  1003               	clrc
  2055  0262  0CA9               	rrf	___xxtofl@arg+3,f
  2056  0263  0CA8               	rrf	___xxtofl@arg+2,f
  2057  0264  0CA7               	rrf	___xxtofl@arg+1,f
  2058  0265  0CA6               	rrf	___xxtofl@arg,f
  2059  0266  3EFF               	addlw	-1
  2060  0267  1D03               	skipz
  2061  0268  2A61               	goto	u1635
  2062  0269                     l731:
  2063  0269  30FF               	movlw	255
  2064  026A  0529               	andwf	___xxtofl@arg+3,w
  2065  026B  1D03               	btfss	3,2
  2066  026C  2A6E               	goto	u1641
  2067  026D  2A6F               	goto	u1640
  2068  026E                     u1641:
  2069  026E  2A4E               	goto	l1780
  2070  026F                     u1640:
  2071  026F  2A7B               	goto	l1788
  2072  0270                     l1786:
  2073  0270  3001               	movlw	1
  2074  0271  02A5               	subwf	___xxtofl@exp,f
  2075  0272  3001               	movlw	1
  2076  0273  00A0               	movwf	??___xxtofl
  2077  0274                     u1655:
  2078  0274  1003               	clrc
  2079  0275  0DA6               	rlf	___xxtofl@arg,f
  2080  0276  0DA7               	rlf	___xxtofl@arg+1,f
  2081  0277  0DA8               	rlf	___xxtofl@arg+2,f
  2082  0278  0DA9               	rlf	___xxtofl@arg+3,f
  2083  0279  0BA0               	decfsz	??___xxtofl,f
  2084  027A  2A74               	goto	u1655
  2085  027B                     l1788:
  2086  027B  1BA8               	btfsc	___xxtofl@arg+2,7
  2087  027C  2A7E               	goto	u1661
  2088  027D  2A7F               	goto	u1660
  2089  027E                     u1661:
  2090  027E  2A85               	goto	l738
  2091  027F                     u1660:
  2092  027F                     l1790:
  2093  027F  3002               	movlw	2
  2094  0280  0225               	subwf	___xxtofl@exp,w
  2095  0281  1803               	skipnc
  2096  0282  2A84               	goto	u1671
  2097  0283  2A85               	goto	u1670
  2098  0284                     u1671:
  2099  0284  2A70               	goto	l1786
  2100  0285                     u1670:
  2101  0285                     l738:
  2102  0285  1825               	btfsc	___xxtofl@exp,0
  2103  0286  2A88               	goto	u1681
  2104  0287  2A89               	goto	u1680
  2105  0288                     u1681:
  2106  0288  2A91               	goto	l739
  2107  0289                     u1680:
  2108  0289                     l1792:
  2109  0289  30FF               	movlw	255
  2110  028A  05A6               	andwf	___xxtofl@arg,f
  2111  028B  30FF               	movlw	255
  2112  028C  05A7               	andwf	___xxtofl@arg+1,f
  2113  028D  307F               	movlw	127
  2114  028E  05A8               	andwf	___xxtofl@arg+2,f
  2115  028F  30FF               	movlw	255
  2116  0290  05A9               	andwf	___xxtofl@arg+3,f
  2117  0291                     l739:
  2118  0291  1003               	clrc
  2119  0292  0CA5               	rrf	___xxtofl@exp,f
  2120  0293                     l1794:
  2121  0293  0825               	movf	___xxtofl@exp,w
  2122  0294  00A0               	movwf	??___xxtofl
  2123  0295  01A1               	clrf	??___xxtofl+1
  2124  0296  01A2               	clrf	??___xxtofl+2
  2125  0297  01A3               	clrf	??___xxtofl+3
  2126  0298  3018               	movlw	24
  2127  0299                     u1695:
  2128  0299  1003               	clrc
  2129  029A  0DA0               	rlf	??___xxtofl,f
  2130  029B  0DA1               	rlf	??___xxtofl+1,f
  2131  029C  0DA2               	rlf	??___xxtofl+2,f
  2132  029D  0DA3               	rlf	??___xxtofl+3,f
  2133  029E                     u1690:
  2134  029E  3EFF               	addlw	-1
  2135  029F  1D03               	skipz
  2136  02A0  2A99               	goto	u1695
  2137  02A1  0820               	movf	??___xxtofl,w
  2138  02A2  04A6               	iorwf	___xxtofl@arg,f
  2139  02A3  0821               	movf	??___xxtofl+1,w
  2140  02A4  04A7               	iorwf	___xxtofl@arg+1,f
  2141  02A5  0822               	movf	??___xxtofl+2,w
  2142  02A6  04A8               	iorwf	___xxtofl@arg+2,f
  2143  02A7  0823               	movf	??___xxtofl+3,w
  2144  02A8  04A9               	iorwf	___xxtofl@arg+3,f
  2145  02A9                     l1796:
  2146  02A9  0824               	movf	___xxtofl@sign,w
  2147  02AA  1903               	btfsc	3,2
  2148  02AB  2AAD               	goto	u1701
  2149  02AC  2AAE               	goto	u1700
  2150  02AD                     u1701:
  2151  02AD  2AB3               	goto	l1802
  2152  02AE                     u1700:
  2153  02AE                     l1798:
  2154  02AE  1FF6               	btfss	___xxtofl@val+3,7
  2155  02AF  2AB1               	goto	u1711
  2156  02B0  2AB2               	goto	u1710
  2157  02B1                     u1711:
  2158  02B1  2AB3               	goto	l1802
  2159  02B2                     u1710:
  2160  02B2                     l1800:
  2161  02B2  17A9               	bsf	___xxtofl@arg+3,7
  2162  02B3                     l1802:
  2163  02B3  0829               	movf	___xxtofl@arg+3,w
  2164  02B4  00F6               	movwf	?___xxtofl+3
  2165  02B5  0828               	movf	___xxtofl@arg+2,w
  2166  02B6  00F5               	movwf	?___xxtofl+2
  2167  02B7  0827               	movf	___xxtofl@arg+1,w
  2168  02B8  00F4               	movwf	?___xxtofl+1
  2169  02B9  0826               	movf	___xxtofl@arg,w
  2170  02BA  00F3               	movwf	?___xxtofl
  2171  02BB                     l727:
  2172  02BB  0008               	return
  2173  02BC                     __end_of___xxtofl:
  2174                           
  2175                           	psect	text10
  2176  02BC                     __ptext10:	
  2177 ;; *************** function ___fltol *****************
  2178 ;; Defined at:
  2179 ;;		line 43 in file "C:\Program Files\Microchip\xc8\v2.31\pic\sources\c90\common\fltol.c"
  2180 ;; Parameters:    Size  Location     Type
  2181 ;;  f1              4   36[BANK0 ] unsigned char 
  2182 ;; Auto vars:     Size  Location     Type
  2183 ;;  exp1            1   46[BANK0 ] unsigned char 
  2184 ;;  sign1           1   45[BANK0 ] unsigned char 
  2185 ;; Return value:  Size  Location     Type
  2186 ;;                  4   36[BANK0 ] long 
  2187 ;; Registers used:
  2188 ;;		wreg, status,2, status,0
  2189 ;; Tracked objects:
  2190 ;;		On entry : 0/0
  2191 ;;		On exit  : 0/0
  2192 ;;		Unchanged: 0/0
  2193 ;; Data sizes:     COMMON   BANK0   BANK1   BANK3   BANK2
  2194 ;;      Params:         0       4       0       0       0
  2195 ;;      Locals:         0       2       0       0       0
  2196 ;;      Temps:          0       5       0       0       0
  2197 ;;      Totals:         0      11       0       0       0
  2198 ;;Total ram usage:       11 bytes
  2199 ;; Hardware stack levels used:    1
  2200 ;; Hardware stack levels required when called:    1
  2201 ;; This function calls:
  2202 ;;		Nothing
  2203 ;; This function is called by:
  2204 ;;		_ADXL345_readX
  2205 ;;		_ADXL345_readY
  2206 ;;		_ADXL345_readZ
  2207 ;; This function uses a non-reentrant model
  2208 ;;
  2209                           
  2210                           
  2211                           ;psect for function ___fltol
  2212  02BC                     ___fltol:
  2213  02BC                     l1356:	
  2214                           ;incstack = 0
  2215                           ; Regs used in ___fltol: [wreg+status,2+status,0]
  2216                           
  2217  02BC  1003               	clrc
  2218  02BD  1283               	bcf	3,5	;RP0=0, select bank0
  2219  02BE  1303               	bcf	3,6	;RP1=0, select bank0
  2220  02BF  0D46               	rlf	___fltol@f1+2,w
  2221  02C0  0D47               	rlf	___fltol@f1+3,w
  2222  02C1  00C8               	movwf	??___fltol
  2223  02C2  0848               	movf	??___fltol,w
  2224  02C3  00CE               	movwf	___fltol@exp1
  2225  02C4  084E               	movf	___fltol@exp1,w
  2226  02C5  1D03               	btfss	3,2
  2227  02C6  2AC8               	goto	u851
  2228  02C7  2AC9               	goto	u850
  2229  02C8                     u851:
  2230  02C8  2AD2               	goto	l1362
  2231  02C9                     u850:
  2232  02C9                     l1358:
  2233  02C9  3000               	movlw	0
  2234  02CA  00C7               	movwf	?___fltol+3
  2235  02CB  3000               	movlw	0
  2236  02CC  00C6               	movwf	?___fltol+2
  2237  02CD  3000               	movlw	0
  2238  02CE  00C5               	movwf	?___fltol+1
  2239  02CF  3000               	movlw	0
  2240  02D0  00C4               	movwf	?___fltol
  2241  02D1  2B37               	goto	l478
  2242  02D2                     l1362:
  2243  02D2  0844               	movf	___fltol@f1,w
  2244  02D3  00C8               	movwf	??___fltol
  2245  02D4  0845               	movf	___fltol@f1+1,w
  2246  02D5  00C9               	movwf	??___fltol+1
  2247  02D6  0846               	movf	___fltol@f1+2,w
  2248  02D7  00CA               	movwf	??___fltol+2
  2249  02D8  0847               	movf	___fltol@f1+3,w
  2250  02D9  00CB               	movwf	??___fltol+3
  2251  02DA  301F               	movlw	31
  2252  02DB                     u865:
  2253  02DB  1003               	clrc
  2254  02DC  0CCB               	rrf	??___fltol+3,f
  2255  02DD  0CCA               	rrf	??___fltol+2,f
  2256  02DE  0CC9               	rrf	??___fltol+1,f
  2257  02DF  0CC8               	rrf	??___fltol,f
  2258  02E0                     u860:
  2259  02E0  3EFF               	addlw	-1
  2260  02E1  1D03               	skipz
  2261  02E2  2ADB               	goto	u865
  2262  02E3  0848               	movf	??___fltol,w
  2263  02E4  00CC               	movwf	??___fltol+4
  2264  02E5  084C               	movf	??___fltol+4,w
  2265  02E6  00CD               	movwf	___fltol@sign1
  2266  02E7                     l1364:
  2267  02E7  17C6               	bsf	___fltol@f1+2,7
  2268  02E8                     l1366:
  2269  02E8  30FF               	movlw	255
  2270  02E9  05C4               	andwf	___fltol@f1,f
  2271  02EA  30FF               	movlw	255
  2272  02EB  05C5               	andwf	___fltol@f1+1,f
  2273  02EC  30FF               	movlw	255
  2274  02ED  05C6               	andwf	___fltol@f1+2,f
  2275  02EE  3000               	movlw	0
  2276  02EF  05C7               	andwf	___fltol@f1+3,f
  2277  02F0                     l1368:
  2278  02F0  3096               	movlw	150
  2279  02F1  02CE               	subwf	___fltol@exp1,f
  2280  02F2                     l1370:
  2281  02F2  1FCE               	btfss	___fltol@exp1,7
  2282  02F3  2AF5               	goto	u871
  2283  02F4  2AF6               	goto	u870
  2284  02F5                     u871:
  2285  02F5  2B10               	goto	l1380
  2286  02F6                     u870:
  2287  02F6                     l1372:
  2288  02F6  084E               	movf	___fltol@exp1,w
  2289  02F7  3A80               	xorlw	128
  2290  02F8  3E97               	addlw	151
  2291  02F9  1803               	skipnc
  2292  02FA  2AFC               	goto	u881
  2293  02FB  2AFD               	goto	u880
  2294  02FC                     u881:
  2295  02FC  2AFE               	goto	l1378
  2296  02FD                     u880:
  2297  02FD  2AC9               	goto	l1358
  2298  02FE                     l1378:
  2299  02FE  3001               	movlw	1
  2300  02FF                     u895:
  2301  02FF  1003               	clrc
  2302  0300  0CC7               	rrf	___fltol@f1+3,f
  2303  0301  0CC6               	rrf	___fltol@f1+2,f
  2304  0302  0CC5               	rrf	___fltol@f1+1,f
  2305  0303  0CC4               	rrf	___fltol@f1,f
  2306  0304  3EFF               	addlw	-1
  2307  0305  1D03               	skipz
  2308  0306  2AFF               	goto	u895
  2309  0307  3001               	movlw	1
  2310  0308  00C8               	movwf	??___fltol
  2311  0309  0848               	movf	??___fltol,w
  2312  030A  07CE               	addwf	___fltol@exp1,f
  2313  030B  1D03               	btfss	3,2
  2314  030C  2B0E               	goto	u901
  2315  030D  2B0F               	goto	u900
  2316  030E                     u901:
  2317  030E  2AFE               	goto	l1378
  2318  030F                     u900:
  2319  030F  2B27               	goto	l1388
  2320  0310                     l1380:
  2321  0310  3020               	movlw	32
  2322  0311  024E               	subwf	___fltol@exp1,w
  2323  0312  1C03               	skipc
  2324  0313  2B15               	goto	u911
  2325  0314  2B16               	goto	u910
  2326  0315                     u911:
  2327  0315  2B22               	goto	l485
  2328  0316                     u910:
  2329  0316  2AC9               	goto	l1358
  2330  0317                     l1386:
  2331  0317  3001               	movlw	1
  2332  0318  00C8               	movwf	??___fltol
  2333  0319                     u925:
  2334  0319  1003               	clrc
  2335  031A  0DC4               	rlf	___fltol@f1,f
  2336  031B  0DC5               	rlf	___fltol@f1+1,f
  2337  031C  0DC6               	rlf	___fltol@f1+2,f
  2338  031D  0DC7               	rlf	___fltol@f1+3,f
  2339  031E  0BC8               	decfsz	??___fltol,f
  2340  031F  2B19               	goto	u925
  2341  0320  3001               	movlw	1
  2342  0321  02CE               	subwf	___fltol@exp1,f
  2343  0322                     l485:
  2344  0322  084E               	movf	___fltol@exp1,w
  2345  0323  1D03               	btfss	3,2
  2346  0324  2B26               	goto	u931
  2347  0325  2B27               	goto	u930
  2348  0326                     u931:
  2349  0326  2B17               	goto	l1386
  2350  0327                     u930:
  2351  0327                     l1388:
  2352  0327  084D               	movf	___fltol@sign1,w
  2353  0328  1903               	btfsc	3,2
  2354  0329  2B2B               	goto	u941
  2355  032A  2B2C               	goto	u940
  2356  032B                     u941:
  2357  032B  2B37               	goto	l488
  2358  032C                     u940:
  2359  032C                     l1390:
  2360  032C  09C4               	comf	___fltol@f1,f
  2361  032D  09C5               	comf	___fltol@f1+1,f
  2362  032E  09C6               	comf	___fltol@f1+2,f
  2363  032F  09C7               	comf	___fltol@f1+3,f
  2364  0330  0AC4               	incf	___fltol@f1,f
  2365  0331  1903               	skipnz
  2366  0332  0AC5               	incf	___fltol@f1+1,f
  2367  0333  1903               	skipnz
  2368  0334  0AC6               	incf	___fltol@f1+2,f
  2369  0335  1903               	skipnz
  2370  0336  0AC7               	incf	___fltol@f1+3,f
  2371  0337                     l488:
  2372  0337                     l478:
  2373  0337  0008               	return
  2374  0338                     __end_of___fltol:
  2375                           
  2376                           	psect	text11
  2377  0023                     __ptext11:	
  2378 ;; *************** function ___fldiv *****************
  2379 ;; Defined at:
  2380 ;;		line 8 in file "C:\Program Files\Microchip\xc8\v2.31\pic\sources\c90\common\sprcdiv.c"
  2381 ;; Parameters:    Size  Location     Type
  2382 ;;  a               4   10[BANK0 ] long 
  2383 ;;  b               4   14[BANK0 ] long 
  2384 ;; Auto vars:     Size  Location     Type
  2385 ;;  grs             4   30[BANK0 ] unsigned long 
  2386 ;;  rem             4   23[BANK0 ] unsigned long 
  2387 ;;  new_exp         2   28[BANK0 ] int 
  2388 ;;  aexp            1   35[BANK0 ] unsigned char 
  2389 ;;  bexp            1   34[BANK0 ] unsigned char 
  2390 ;;  sign            1   27[BANK0 ] unsigned char 
  2391 ;; Return value:  Size  Location     Type
  2392 ;;                  4   10[BANK0 ] unsigned char 
  2393 ;; Registers used:
  2394 ;;		wreg, status,2, status,0, btemp+1
  2395 ;; Tracked objects:
  2396 ;;		On entry : 0/0
  2397 ;;		On exit  : 0/0
  2398 ;;		Unchanged: 0/0
  2399 ;; Data sizes:     COMMON   BANK0   BANK1   BANK3   BANK2
  2400 ;;      Params:         0       8       0       0       0
  2401 ;;      Locals:         0      13       0       0       0
  2402 ;;      Temps:          0       5       0       0       0
  2403 ;;      Totals:         0      26       0       0       0
  2404 ;;Total ram usage:       26 bytes
  2405 ;; Hardware stack levels used:    1
  2406 ;; Hardware stack levels required when called:    1
  2407 ;; This function calls:
  2408 ;;		Nothing
  2409 ;; This function is called by:
  2410 ;;		_ADXL345_readX
  2411 ;;		_ADXL345_readY
  2412 ;;		_ADXL345_readZ
  2413 ;; This function uses a non-reentrant model
  2414 ;;
  2415                           
  2416                           
  2417                           ;psect for function ___fldiv
  2418  0023                     ___fldiv:
  2419  0023                     l1392:	
  2420                           ;incstack = 0
  2421                           ; Regs used in ___fldiv: [wreg+status,2+status,0+btemp+1]
  2422                           
  2423  0023  1283               	bcf	3,5	;RP0=0, select bank0
  2424  0024  1303               	bcf	3,6	;RP1=0, select bank0
  2425  0025  0831               	movf	___fldiv@b+3,w
  2426  0026  3980               	andlw	128
  2427  0027  00B2               	movwf	??___fldiv
  2428  0028  0832               	movf	??___fldiv,w
  2429  0029  00BB               	movwf	___fldiv@sign
  2430  002A                     l1394:
  2431  002A  0831               	movf	___fldiv@b+3,w
  2432  002B  00B2               	movwf	??___fldiv
  2433  002C  0732               	addwf	??___fldiv,w
  2434  002D  00B3               	movwf	??___fldiv+1
  2435  002E  0833               	movf	??___fldiv+1,w
  2436  002F  00C2               	movwf	___fldiv@bexp
  2437  0030                     l1396:
  2438  0030  1FB0               	btfss	___fldiv@b+2,7
  2439  0031  2833               	goto	u951
  2440  0032  2834               	goto	u950
  2441  0033                     u951:
  2442  0033  2835               	goto	l1400
  2443  0034                     u950:
  2444  0034                     l1398:
  2445  0034  1442               	bsf	___fldiv@bexp,0
  2446  0035                     l1400:
  2447  0035  0842               	movf	___fldiv@bexp,w
  2448  0036  1903               	btfsc	3,2
  2449  0037  2839               	goto	u961
  2450  0038  283A               	goto	u960
  2451  0039                     u961:
  2452  0039  284A               	goto	l1410
  2453  003A                     u960:
  2454  003A                     l1402:
  2455  003A  0A42               	incf	___fldiv@bexp,w
  2456  003B  1D03               	btfss	3,2
  2457  003C  283E               	goto	u971
  2458  003D  283F               	goto	u970
  2459  003E                     u971:
  2460  003E  2847               	goto	l1406
  2461  003F                     u970:
  2462  003F                     l1404:
  2463  003F  3000               	movlw	0
  2464  0040  00B1               	movwf	___fldiv@b+3
  2465  0041  3000               	movlw	0
  2466  0042  00B0               	movwf	___fldiv@b+2
  2467  0043  3000               	movlw	0
  2468  0044  00AF               	movwf	___fldiv@b+1
  2469  0045  3000               	movlw	0
  2470  0046  00AE               	movwf	___fldiv@b
  2471  0047                     l1406:
  2472  0047  17B0               	bsf	___fldiv@b+2,7
  2473  0048                     l1408:
  2474  0048  01B1               	clrf	___fldiv@b+3
  2475  0049  2852               	goto	l1412
  2476  004A                     l1410:
  2477  004A  3000               	movlw	0
  2478  004B  00B1               	movwf	___fldiv@b+3
  2479  004C  3000               	movlw	0
  2480  004D  00B0               	movwf	___fldiv@b+2
  2481  004E  3000               	movlw	0
  2482  004F  00AF               	movwf	___fldiv@b+1
  2483  0050  3000               	movlw	0
  2484  0051  00AE               	movwf	___fldiv@b
  2485  0052                     l1412:
  2486  0052  082D               	movf	___fldiv@a+3,w
  2487  0053  3980               	andlw	128
  2488  0054  00B2               	movwf	??___fldiv
  2489  0055  0832               	movf	??___fldiv,w
  2490  0056  06BB               	xorwf	___fldiv@sign,f
  2491  0057                     l1414:
  2492  0057  082D               	movf	___fldiv@a+3,w
  2493  0058  00B2               	movwf	??___fldiv
  2494  0059  0732               	addwf	??___fldiv,w
  2495  005A  00B3               	movwf	??___fldiv+1
  2496  005B  0833               	movf	??___fldiv+1,w
  2497  005C  00C3               	movwf	___fldiv@aexp
  2498  005D                     l1416:
  2499  005D  1FAC               	btfss	___fldiv@a+2,7
  2500  005E  2860               	goto	u981
  2501  005F  2861               	goto	u980
  2502  0060                     u981:
  2503  0060  2862               	goto	l1420
  2504  0061                     u980:
  2505  0061                     l1418:
  2506  0061  1443               	bsf	___fldiv@aexp,0
  2507  0062                     l1420:
  2508  0062  0843               	movf	___fldiv@aexp,w
  2509  0063  1903               	btfsc	3,2
  2510  0064  2866               	goto	u991
  2511  0065  2867               	goto	u990
  2512  0066                     u991:
  2513  0066  2877               	goto	l1430
  2514  0067                     u990:
  2515  0067                     l1422:
  2516  0067  0A43               	incf	___fldiv@aexp,w
  2517  0068  1D03               	btfss	3,2
  2518  0069  286B               	goto	u1001
  2519  006A  286C               	goto	u1000
  2520  006B                     u1001:
  2521  006B  2874               	goto	l1426
  2522  006C                     u1000:
  2523  006C                     l1424:
  2524  006C  3000               	movlw	0
  2525  006D  00AD               	movwf	___fldiv@a+3
  2526  006E  3000               	movlw	0
  2527  006F  00AC               	movwf	___fldiv@a+2
  2528  0070  3000               	movlw	0
  2529  0071  00AB               	movwf	___fldiv@a+1
  2530  0072  3000               	movlw	0
  2531  0073  00AA               	movwf	___fldiv@a
  2532  0074                     l1426:
  2533  0074  17AC               	bsf	___fldiv@a+2,7
  2534  0075                     l1428:
  2535  0075  01AD               	clrf	___fldiv@a+3
  2536  0076  287F               	goto	l641
  2537  0077                     l1430:
  2538  0077  3000               	movlw	0
  2539  0078  00AD               	movwf	___fldiv@a+3
  2540  0079  3000               	movlw	0
  2541  007A  00AC               	movwf	___fldiv@a+2
  2542  007B  3000               	movlw	0
  2543  007C  00AB               	movwf	___fldiv@a+1
  2544  007D  3000               	movlw	0
  2545  007E  00AA               	movwf	___fldiv@a
  2546  007F                     l641:
  2547  007F  082D               	movf	___fldiv@a+3,w
  2548  0080  042C               	iorwf	___fldiv@a+2,w
  2549  0081  042B               	iorwf	___fldiv@a+1,w
  2550  0082  042A               	iorwf	___fldiv@a,w
  2551  0083  1D03               	skipz
  2552  0084  2886               	goto	u1011
  2553  0085  2887               	goto	u1010
  2554  0086                     u1011:
  2555  0086  28A0               	goto	l1440
  2556  0087                     u1010:
  2557  0087                     l1432:
  2558  0087  3000               	movlw	0
  2559  0088  00B1               	movwf	___fldiv@b+3
  2560  0089  3000               	movlw	0
  2561  008A  00B0               	movwf	___fldiv@b+2
  2562  008B  3000               	movlw	0
  2563  008C  00AF               	movwf	___fldiv@b+1
  2564  008D  3000               	movlw	0
  2565  008E  00AE               	movwf	___fldiv@b
  2566  008F  3080               	movlw	128
  2567  0090  04B0               	iorwf	___fldiv@b+2,f
  2568  0091  307F               	movlw	127
  2569  0092  04B1               	iorwf	___fldiv@b+3,f
  2570  0093                     l1434:
  2571  0093  083B               	movf	___fldiv@sign,w
  2572  0094  00B2               	movwf	??___fldiv
  2573  0095  0832               	movf	??___fldiv,w
  2574  0096  04B1               	iorwf	___fldiv@b+3,f
  2575  0097                     l1436:
  2576  0097  0831               	movf	___fldiv@b+3,w
  2577  0098  00AD               	movwf	?___fldiv+3
  2578  0099  0830               	movf	___fldiv@b+2,w
  2579  009A  00AC               	movwf	?___fldiv+2
  2580  009B  082F               	movf	___fldiv@b+1,w
  2581  009C  00AB               	movwf	?___fldiv+1
  2582  009D  082E               	movf	___fldiv@b,w
  2583  009E  00AA               	movwf	?___fldiv
  2584  009F  29FF               	goto	l643
  2585  00A0                     l1440:
  2586  00A0  0842               	movf	___fldiv@bexp,w
  2587  00A1  1D03               	btfss	3,2
  2588  00A2  28A4               	goto	u1021
  2589  00A3  28A5               	goto	u1020
  2590  00A4                     u1021:
  2591  00A4  28AE               	goto	l1446
  2592  00A5                     u1020:
  2593  00A5                     l1442:
  2594  00A5  3000               	movlw	0
  2595  00A6  00AD               	movwf	?___fldiv+3
  2596  00A7  3000               	movlw	0
  2597  00A8  00AC               	movwf	?___fldiv+2
  2598  00A9  3000               	movlw	0
  2599  00AA  00AB               	movwf	?___fldiv+1
  2600  00AB  3000               	movlw	0
  2601  00AC  00AA               	movwf	?___fldiv
  2602  00AD  29FF               	goto	l643
  2603  00AE                     l1446:
  2604  00AE  0842               	movf	___fldiv@bexp,w
  2605  00AF  00B2               	movwf	??___fldiv
  2606  00B0  01B3               	clrf	??___fldiv+1
  2607  00B1  0833               	movf	??___fldiv+1,w
  2608  00B2  00B5               	movwf	??___fldiv+3
  2609  00B3  0843               	movf	___fldiv@aexp,w
  2610  00B4  0232               	subwf	??___fldiv,w
  2611  00B5  00B4               	movwf	??___fldiv+2
  2612  00B6  1C03               	skipc
  2613  00B7  03B5               	decf	??___fldiv+3,f
  2614  00B8  0834               	movf	??___fldiv+2,w
  2615  00B9  3E7F               	addlw	127
  2616  00BA  00BC               	movwf	___fldiv@new_exp
  2617  00BB  0835               	movf	??___fldiv+3,w
  2618  00BC  1803               	skipnc
  2619  00BD  3E01               	addlw	1
  2620  00BE  3E00               	addlw	0
  2621  00BF  00BD               	movwf	___fldiv@new_exp+1
  2622  00C0                     l1448:
  2623  00C0  0831               	movf	___fldiv@b+3,w
  2624  00C1  00BA               	movwf	___fldiv@rem+3
  2625  00C2  0830               	movf	___fldiv@b+2,w
  2626  00C3  00B9               	movwf	___fldiv@rem+2
  2627  00C4  082F               	movf	___fldiv@b+1,w
  2628  00C5  00B8               	movwf	___fldiv@rem+1
  2629  00C6  082E               	movf	___fldiv@b,w
  2630  00C7  00B7               	movwf	___fldiv@rem
  2631  00C8                     l1450:
  2632  00C8  3000               	movlw	0
  2633  00C9  00B1               	movwf	___fldiv@b+3
  2634  00CA  3000               	movlw	0
  2635  00CB  00B0               	movwf	___fldiv@b+2
  2636  00CC  3000               	movlw	0
  2637  00CD  00AF               	movwf	___fldiv@b+1
  2638  00CE  3000               	movlw	0
  2639  00CF  00AE               	movwf	___fldiv@b
  2640  00D0                     l1452:
  2641  00D0  3000               	movlw	0
  2642  00D1  00C1               	movwf	___fldiv@grs+3
  2643  00D2  3000               	movlw	0
  2644  00D3  00C0               	movwf	___fldiv@grs+2
  2645  00D4  3000               	movlw	0
  2646  00D5  00BF               	movwf	___fldiv@grs+1
  2647  00D6  3000               	movlw	0
  2648  00D7  00BE               	movwf	___fldiv@grs
  2649  00D8                     l1454:
  2650  00D8  01C3               	clrf	___fldiv@aexp
  2651  00D9  2924               	goto	l1474
  2652  00DA                     l1456:
  2653  00DA  0843               	movf	___fldiv@aexp,w
  2654  00DB  1903               	btfsc	3,2
  2655  00DC  28DE               	goto	u1031
  2656  00DD  28DF               	goto	u1030
  2657  00DE                     u1031:
  2658  00DE  28FF               	goto	l1466
  2659  00DF                     u1030:
  2660  00DF                     l1458:
  2661  00DF  3001               	movlw	1
  2662  00E0  00B2               	movwf	??___fldiv
  2663  00E1                     u1045:
  2664  00E1  1003               	clrc
  2665  00E2  0DB7               	rlf	___fldiv@rem,f
  2666  00E3  0DB8               	rlf	___fldiv@rem+1,f
  2667  00E4  0DB9               	rlf	___fldiv@rem+2,f
  2668  00E5  0DBA               	rlf	___fldiv@rem+3,f
  2669  00E6  0BB2               	decfsz	??___fldiv,f
  2670  00E7  28E1               	goto	u1045
  2671  00E8  3001               	movlw	1
  2672  00E9  00B2               	movwf	??___fldiv
  2673  00EA                     u1055:
  2674  00EA  1003               	clrc
  2675  00EB  0DAE               	rlf	___fldiv@b,f
  2676  00EC  0DAF               	rlf	___fldiv@b+1,f
  2677  00ED  0DB0               	rlf	___fldiv@b+2,f
  2678  00EE  0DB1               	rlf	___fldiv@b+3,f
  2679  00EF  0BB2               	decfsz	??___fldiv,f
  2680  00F0  28EA               	goto	u1055
  2681  00F1                     l1460:
  2682  00F1  1FC1               	btfss	___fldiv@grs+3,7
  2683  00F2  28F4               	goto	u1061
  2684  00F3  28F5               	goto	u1060
  2685  00F4                     u1061:
  2686  00F4  28F6               	goto	l1464
  2687  00F5                     u1060:
  2688  00F5                     l1462:
  2689  00F5  142E               	bsf	___fldiv@b,0
  2690  00F6                     l1464:
  2691  00F6  3001               	movlw	1
  2692  00F7  00B2               	movwf	??___fldiv
  2693  00F8                     u1075:
  2694  00F8  1003               	clrc
  2695  00F9  0DBE               	rlf	___fldiv@grs,f
  2696  00FA  0DBF               	rlf	___fldiv@grs+1,f
  2697  00FB  0DC0               	rlf	___fldiv@grs+2,f
  2698  00FC  0DC1               	rlf	___fldiv@grs+3,f
  2699  00FD  0BB2               	decfsz	??___fldiv,f
  2700  00FE  28F8               	goto	u1075
  2701  00FF                     l1466:
  2702  00FF  082D               	movf	___fldiv@a+3,w
  2703  0100  023A               	subwf	___fldiv@rem+3,w
  2704  0101  1D03               	skipz
  2705  0102  290D               	goto	u1085
  2706  0103  082C               	movf	___fldiv@a+2,w
  2707  0104  0239               	subwf	___fldiv@rem+2,w
  2708  0105  1D03               	skipz
  2709  0106  290D               	goto	u1085
  2710  0107  082B               	movf	___fldiv@a+1,w
  2711  0108  0238               	subwf	___fldiv@rem+1,w
  2712  0109  1D03               	skipz
  2713  010A  290D               	goto	u1085
  2714  010B  082A               	movf	___fldiv@a,w
  2715  010C  0237               	subwf	___fldiv@rem,w
  2716  010D                     u1085:
  2717  010D  1C03               	skipc
  2718  010E  2910               	goto	u1081
  2719  010F  2911               	goto	u1080
  2720  0110                     u1081:
  2721  0110  2920               	goto	l1472
  2722  0111                     u1080:
  2723  0111                     l1468:
  2724  0111  1741               	bsf	___fldiv@grs+3,6
  2725  0112                     l1470:
  2726  0112  082A               	movf	___fldiv@a,w
  2727  0113  02B7               	subwf	___fldiv@rem,f
  2728  0114  082B               	movf	___fldiv@a+1,w
  2729  0115  1C03               	skipc
  2730  0116  0F2B               	incfsz	___fldiv@a+1,w
  2731  0117  02B8               	subwf	___fldiv@rem+1,f
  2732  0118  082C               	movf	___fldiv@a+2,w
  2733  0119  1C03               	skipc
  2734  011A  0F2C               	incfsz	___fldiv@a+2,w
  2735  011B  02B9               	subwf	___fldiv@rem+2,f
  2736  011C  082D               	movf	___fldiv@a+3,w
  2737  011D  1C03               	skipc
  2738  011E  0F2D               	incfsz	___fldiv@a+3,w
  2739  011F  02BA               	subwf	___fldiv@rem+3,f
  2740  0120                     l1472:
  2741  0120  3001               	movlw	1
  2742  0121  00B2               	movwf	??___fldiv
  2743  0122  0832               	movf	??___fldiv,w
  2744  0123  07C3               	addwf	___fldiv@aexp,f
  2745  0124                     l1474:
  2746  0124  301A               	movlw	26
  2747  0125  0243               	subwf	___fldiv@aexp,w
  2748  0126  1C03               	skipc
  2749  0127  2929               	goto	u1091
  2750  0128  292A               	goto	u1090
  2751  0129                     u1091:
  2752  0129  28DA               	goto	l1456
  2753  012A                     u1090:
  2754  012A                     l1476:
  2755  012A  083A               	movf	___fldiv@rem+3,w
  2756  012B  0439               	iorwf	___fldiv@rem+2,w
  2757  012C  0438               	iorwf	___fldiv@rem+1,w
  2758  012D  0437               	iorwf	___fldiv@rem,w
  2759  012E  1903               	skipnz
  2760  012F  2931               	goto	u1101
  2761  0130  2932               	goto	u1100
  2762  0131                     u1101:
  2763  0131  2951               	goto	l1490
  2764  0132                     u1100:
  2765  0132                     l1478:
  2766  0132  143E               	bsf	___fldiv@grs,0
  2767  0133  2951               	goto	l1490
  2768  0134                     l1480:
  2769  0134  3001               	movlw	1
  2770  0135  00B2               	movwf	??___fldiv
  2771  0136                     u1115:
  2772  0136  1003               	clrc
  2773  0137  0DAE               	rlf	___fldiv@b,f
  2774  0138  0DAF               	rlf	___fldiv@b+1,f
  2775  0139  0DB0               	rlf	___fldiv@b+2,f
  2776  013A  0DB1               	rlf	___fldiv@b+3,f
  2777  013B  0BB2               	decfsz	??___fldiv,f
  2778  013C  2936               	goto	u1115
  2779  013D                     l1482:
  2780  013D  1FC1               	btfss	___fldiv@grs+3,7
  2781  013E  2940               	goto	u1121
  2782  013F  2941               	goto	u1120
  2783  0140                     u1121:
  2784  0140  2942               	goto	l1486
  2785  0141                     u1120:
  2786  0141                     l1484:
  2787  0141  142E               	bsf	___fldiv@b,0
  2788  0142                     l1486:
  2789  0142  3001               	movlw	1
  2790  0143  00B2               	movwf	??___fldiv
  2791  0144                     u1135:
  2792  0144  1003               	clrc
  2793  0145  0DBE               	rlf	___fldiv@grs,f
  2794  0146  0DBF               	rlf	___fldiv@grs+1,f
  2795  0147  0DC0               	rlf	___fldiv@grs+2,f
  2796  0148  0DC1               	rlf	___fldiv@grs+3,f
  2797  0149  0BB2               	decfsz	??___fldiv,f
  2798  014A  2944               	goto	u1135
  2799  014B                     l1488:
  2800  014B  30FF               	movlw	255
  2801  014C  07BC               	addwf	___fldiv@new_exp,f
  2802  014D  1803               	skipnc
  2803  014E  0ABD               	incf	___fldiv@new_exp+1,f
  2804  014F  30FF               	movlw	255
  2805  0150  07BD               	addwf	___fldiv@new_exp+1,f
  2806  0151                     l1490:
  2807  0151  1FB0               	btfss	___fldiv@b+2,7
  2808  0152  2954               	goto	u1141
  2809  0153  2955               	goto	u1140
  2810  0154                     u1141:
  2811  0154  2934               	goto	l1480
  2812  0155                     u1140:
  2813  0155                     l1492:
  2814  0155  01C3               	clrf	___fldiv@aexp
  2815  0156                     l1494:
  2816  0156  1FC1               	btfss	___fldiv@grs+3,7
  2817  0157  2959               	goto	u1151
  2818  0158  295A               	goto	u1150
  2819  0159                     u1151:
  2820  0159  2976               	goto	l1502
  2821  015A                     u1150:
  2822  015A                     l1496:
  2823  015A  30FF               	movlw	255
  2824  015B  053E               	andwf	___fldiv@grs,w
  2825  015C  00B2               	movwf	??___fldiv
  2826  015D  30FF               	movlw	255
  2827  015E  053F               	andwf	___fldiv@grs+1,w
  2828  015F  00B3               	movwf	??___fldiv+1
  2829  0160  30FF               	movlw	255
  2830  0161  0540               	andwf	___fldiv@grs+2,w
  2831  0162  00B4               	movwf	??___fldiv+2
  2832  0163  307F               	movlw	127
  2833  0164  0541               	andwf	___fldiv@grs+3,w
  2834  0165  00B5               	movwf	??___fldiv+3
  2835  0166  0835               	movf	??___fldiv+3,w
  2836  0167  0434               	iorwf	??___fldiv+2,w
  2837  0168  0433               	iorwf	??___fldiv+1,w
  2838  0169  0432               	iorwf	??___fldiv,w
  2839  016A  1903               	skipnz
  2840  016B  296D               	goto	u1161
  2841  016C  296E               	goto	u1160
  2842  016D                     u1161:
  2843  016D  2971               	goto	l657
  2844  016E                     u1160:
  2845  016E                     l1498:
  2846  016E  01C3               	clrf	___fldiv@aexp
  2847  016F  0AC3               	incf	___fldiv@aexp,f
  2848  0170  2976               	goto	l1502
  2849  0171                     l657:
  2850  0171  1C2E               	btfss	___fldiv@b,0
  2851  0172  2974               	goto	u1171
  2852  0173  2975               	goto	u1170
  2853  0174                     u1171:
  2854  0174  2976               	goto	l1502
  2855  0175                     u1170:
  2856  0175  296E               	goto	l1498
  2857  0176                     l1502:
  2858  0176  0843               	movf	___fldiv@aexp,w
  2859  0177  1903               	btfsc	3,2
  2860  0178  297A               	goto	u1181
  2861  0179  297B               	goto	u1180
  2862  017A                     u1181:
  2863  017A  29AC               	goto	l1512
  2864  017B                     u1180:
  2865  017B                     l1504:
  2866  017B  3001               	movlw	1
  2867  017C  07AE               	addwf	___fldiv@b,f
  2868  017D  3000               	movlw	0
  2869  017E  1803               	skipnc
  2870  017F  3001               	movlw	1
  2871  0180  07AF               	addwf	___fldiv@b+1,f
  2872  0181  3000               	movlw	0
  2873  0182  1803               	skipnc
  2874  0183  3001               	movlw	1
  2875  0184  07B0               	addwf	___fldiv@b+2,f
  2876  0185  3000               	movlw	0
  2877  0186  1803               	skipnc
  2878  0187  3001               	movlw	1
  2879  0188  07B1               	addwf	___fldiv@b+3,f
  2880  0189                     l1506:
  2881  0189  1C31               	btfss	___fldiv@b+3,0
  2882  018A  298C               	goto	u1191
  2883  018B  298D               	goto	u1190
  2884  018C                     u1191:
  2885  018C  29AC               	goto	l1512
  2886  018D                     u1190:
  2887  018D                     l1508:
  2888  018D  082E               	movf	___fldiv@b,w
  2889  018E  00B2               	movwf	??___fldiv
  2890  018F  082F               	movf	___fldiv@b+1,w
  2891  0190  00B3               	movwf	??___fldiv+1
  2892  0191  0830               	movf	___fldiv@b+2,w
  2893  0192  00B4               	movwf	??___fldiv+2
  2894  0193  0831               	movf	___fldiv@b+3,w
  2895  0194  00B5               	movwf	??___fldiv+3
  2896  0195  3001               	movlw	1
  2897  0196  00B6               	movwf	??___fldiv+4
  2898  0197                     u1205:
  2899  0197  0D35               	rlf	??___fldiv+3,w
  2900  0198  0CB5               	rrf	??___fldiv+3,f
  2901  0199  0CB4               	rrf	??___fldiv+2,f
  2902  019A  0CB3               	rrf	??___fldiv+1,f
  2903  019B  0CB2               	rrf	??___fldiv,f
  2904  019C                     u1200:
  2905  019C  0BB6               	decfsz	??___fldiv+4,f
  2906  019D  2997               	goto	u1205
  2907  019E  0835               	movf	??___fldiv+3,w
  2908  019F  00B1               	movwf	___fldiv@b+3
  2909  01A0  0834               	movf	??___fldiv+2,w
  2910  01A1  00B0               	movwf	___fldiv@b+2
  2911  01A2  0833               	movf	??___fldiv+1,w
  2912  01A3  00AF               	movwf	___fldiv@b+1
  2913  01A4  0832               	movf	??___fldiv,w
  2914  01A5  00AE               	movwf	___fldiv@b
  2915  01A6                     l1510:
  2916  01A6  3001               	movlw	1
  2917  01A7  07BC               	addwf	___fldiv@new_exp,f
  2918  01A8  1803               	skipnc
  2919  01A9  0ABD               	incf	___fldiv@new_exp+1,f
  2920  01AA  3000               	movlw	0
  2921  01AB  07BD               	addwf	___fldiv@new_exp+1,f
  2922  01AC                     l1512:
  2923  01AC  083D               	movf	___fldiv@new_exp+1,w
  2924  01AD  3A80               	xorlw	128
  2925  01AE  00FF               	movwf	btemp+1
  2926  01AF  3080               	movlw	128
  2927  01B0  027F               	subwf	btemp+1,w
  2928  01B1  1D03               	skipz
  2929  01B2  29B5               	goto	u1215
  2930  01B3  30FF               	movlw	255
  2931  01B4  023C               	subwf	___fldiv@new_exp,w
  2932  01B5                     u1215:
  2933  01B5  1C03               	skipc
  2934  01B6  29B8               	goto	u1211
  2935  01B7  29B9               	goto	u1210
  2936  01B8                     u1211:
  2937  01B8  29C7               	goto	l1516
  2938  01B9                     u1210:
  2939  01B9                     l1514:
  2940  01B9  30FF               	movlw	255
  2941  01BA  1283               	bcf	3,5	;RP0=0, select bank0
  2942  01BB  1303               	bcf	3,6	;RP1=0, select bank0
  2943  01BC  00BC               	movwf	___fldiv@new_exp
  2944  01BD  3000               	movlw	0
  2945  01BE  00BD               	movwf	___fldiv@new_exp+1
  2946  01BF  3000               	movlw	0
  2947  01C0  00B1               	movwf	___fldiv@b+3
  2948  01C1  3000               	movlw	0
  2949  01C2  00B0               	movwf	___fldiv@b+2
  2950  01C3  3000               	movlw	0
  2951  01C4  00AF               	movwf	___fldiv@b+1
  2952  01C5  3000               	movlw	0
  2953  01C6  00AE               	movwf	___fldiv@b
  2954  01C7                     l1516:
  2955  01C7  1283               	bcf	3,5	;RP0=0, select bank0
  2956  01C8  1303               	bcf	3,6	;RP1=0, select bank0
  2957  01C9  083D               	movf	___fldiv@new_exp+1,w
  2958  01CA  3A80               	xorlw	128
  2959  01CB  00FF               	movwf	btemp+1
  2960  01CC  3080               	movlw	128
  2961  01CD  027F               	subwf	btemp+1,w
  2962  01CE  1D03               	skipz
  2963  01CF  29D2               	goto	u1225
  2964  01D0  3001               	movlw	1
  2965  01D1  023C               	subwf	___fldiv@new_exp,w
  2966  01D2                     u1225:
  2967  01D2  1803               	skipnc
  2968  01D3  29D5               	goto	u1221
  2969  01D4  29D6               	goto	u1220
  2970  01D5                     u1221:
  2971  01D5  29E3               	goto	l663
  2972  01D6                     u1220:
  2973  01D6                     l1518:
  2974  01D6  1283               	bcf	3,5	;RP0=0, select bank0
  2975  01D7  1303               	bcf	3,6	;RP1=0, select bank0
  2976  01D8  01BC               	clrf	___fldiv@new_exp
  2977  01D9  01BD               	clrf	___fldiv@new_exp+1
  2978  01DA                     l1520:
  2979  01DA  3000               	movlw	0
  2980  01DB  00B1               	movwf	___fldiv@b+3
  2981  01DC  3000               	movlw	0
  2982  01DD  00B0               	movwf	___fldiv@b+2
  2983  01DE  3000               	movlw	0
  2984  01DF  00AF               	movwf	___fldiv@b+1
  2985  01E0  3000               	movlw	0
  2986  01E1  00AE               	movwf	___fldiv@b
  2987  01E2                     l1522:
  2988  01E2  01BB               	clrf	___fldiv@sign
  2989  01E3                     l663:
  2990  01E3  1283               	bcf	3,5	;RP0=0, select bank0
  2991  01E4  1303               	bcf	3,6	;RP1=0, select bank0
  2992  01E5  083C               	movf	___fldiv@new_exp,w
  2993  01E6  00B2               	movwf	??___fldiv
  2994  01E7  0832               	movf	??___fldiv,w
  2995  01E8  00C2               	movwf	___fldiv@bexp
  2996  01E9                     l1524:
  2997  01E9  1C42               	btfss	___fldiv@bexp,0
  2998  01EA  29EC               	goto	u1231
  2999  01EB  29ED               	goto	u1230
  3000  01EC                     u1231:
  3001  01EC  29EF               	goto	l1528
  3002  01ED                     u1230:
  3003  01ED                     l1526:
  3004  01ED  17B0               	bsf	___fldiv@b+2,7
  3005  01EE  29F3               	goto	l665
  3006  01EF                     l1528:
  3007  01EF  307F               	movlw	127
  3008  01F0  00B2               	movwf	??___fldiv
  3009  01F1  0832               	movf	??___fldiv,w
  3010  01F2  05B0               	andwf	___fldiv@b+2,f
  3011  01F3                     l665:
  3012  01F3  0842               	movf	___fldiv@bexp,w
  3013  01F4  00B2               	movwf	??___fldiv
  3014  01F5  1003               	clrc
  3015  01F6  0C32               	rrf	??___fldiv,w
  3016  01F7  00B3               	movwf	??___fldiv+1
  3017  01F8  0833               	movf	??___fldiv+1,w
  3018  01F9  00B1               	movwf	___fldiv@b+3
  3019  01FA  083B               	movf	___fldiv@sign,w
  3020  01FB  00B2               	movwf	??___fldiv
  3021  01FC  0832               	movf	??___fldiv,w
  3022  01FD  04B1               	iorwf	___fldiv@b+3,f
  3023  01FE  2897               	goto	l1436
  3024  01FF                     l643:
  3025  01FF  0008               	return
  3026  0200                     __end_of___fldiv:
  3027                           
  3028                           	psect	text12
  3029  0515                     __ptext12:	
  3030 ;; *************** function _ADXL345_READ *****************
  3031 ;; Defined at:
  3032 ;;		line 115 in file "C:/Users/danie/OneDrive/Desktop/DIGITAL2/proyecto2/master.X/I2C.c"
  3033 ;; Parameters:    Size  Location     Type
  3034 ;;  var             1    wreg     unsigned char 
  3035 ;; Auto vars:     Size  Location     Type
  3036 ;;  var             1    6[BANK0 ] unsigned char 
  3037 ;;  leido           2    7[BANK0 ] short 
  3038 ;; Return value:  Size  Location     Type
  3039 ;;                  2    2[BANK0 ] short 
  3040 ;; Registers used:
  3041 ;;		wreg, status,2, status,0, pclath, cstack
  3042 ;; Tracked objects:
  3043 ;;		On entry : 0/0
  3044 ;;		On exit  : 0/0
  3045 ;;		Unchanged: 0/0
  3046 ;; Data sizes:     COMMON   BANK0   BANK1   BANK3   BANK2
  3047 ;;      Params:         0       2       0       0       0
  3048 ;;      Locals:         0       3       0       0       0
  3049 ;;      Temps:          0       2       0       0       0
  3050 ;;      Totals:         0       7       0       0       0
  3051 ;;Total ram usage:        7 bytes
  3052 ;; Hardware stack levels used:    1
  3053 ;; Hardware stack levels required when called:    3
  3054 ;; This function calls:
  3055 ;;		_I2C_Master_Read
  3056 ;;		_I2C_Master_Start
  3057 ;;		_I2C_Master_Stop
  3058 ;;		_I2C_Master_Write
  3059 ;; This function is called by:
  3060 ;;		_ADXL345_readX
  3061 ;;		_ADXL345_readY
  3062 ;;		_ADXL345_readZ
  3063 ;; This function uses a non-reentrant model
  3064 ;;
  3065                           
  3066                           
  3067                           ;psect for function _ADXL345_READ
  3068  0515                     _ADXL345_READ:
  3069                           
  3070                           ;incstack = 0
  3071                           ; Regs used in _ADXL345_READ: [wreg+status,2+status,0+pclath+cstack]
  3072                           ;ADXL345_READ@var stored from wreg
  3073  0515  1283               	bcf	3,5	;RP0=0, select bank0
  3074  0516  1303               	bcf	3,6	;RP1=0, select bank0
  3075  0517  00A6               	movwf	ADXL345_READ@var
  3076  0518                     l1756:
  3077                           
  3078                           ;C:/Users/danie/OneDrive/Desktop/DIGITAL2/proyecto2/master.X/I2C.c: 116:     signed shor
      +                          t leido;;C:/Users/danie/OneDrive/Desktop/DIGITAL2/proyecto2/master.X/I2C.c: 117:     I2C
      +                          _Master_Start();
  3079  0518  120A  118A  26A3  120A  118A  	fcall	_I2C_Master_Start
  3080                           
  3081                           ;C:/Users/danie/OneDrive/Desktop/DIGITAL2/proyecto2/master.X/I2C.c: 118:     I2C_Master_
      +                          Write(0xA6);
  3082  051D  30A6               	movlw	166
  3083  051E  00F3               	movwf	I2C_Master_Write@d
  3084  051F  3000               	movlw	0
  3085  0520  00F4               	movwf	I2C_Master_Write@d+1
  3086  0521  120A  118A  2690  120A  118A  	fcall	_I2C_Master_Write
  3087                           
  3088                           ;C:/Users/danie/OneDrive/Desktop/DIGITAL2/proyecto2/master.X/I2C.c: 119:     I2C_Master_
      +                          Write(var);
  3089  0526  1283               	bcf	3,5	;RP0=0, select bank0
  3090  0527  1303               	bcf	3,6	;RP1=0, select bank0
  3091  0528  0826               	movf	ADXL345_READ@var,w
  3092  0529  00A4               	movwf	??_ADXL345_READ
  3093  052A  01A5               	clrf	??_ADXL345_READ+1
  3094  052B  0824               	movf	??_ADXL345_READ,w
  3095  052C  00F3               	movwf	I2C_Master_Write@d
  3096  052D  0825               	movf	??_ADXL345_READ+1,w
  3097  052E  00F4               	movwf	I2C_Master_Write@d+1
  3098  052F  120A  118A  2690  120A  118A  	fcall	_I2C_Master_Write
  3099                           
  3100                           ;C:/Users/danie/OneDrive/Desktop/DIGITAL2/proyecto2/master.X/I2C.c: 120:     I2C_Master_
      +                          Start();
  3101  0534  120A  118A  26A3  120A  118A  	fcall	_I2C_Master_Start
  3102                           
  3103                           ;C:/Users/danie/OneDrive/Desktop/DIGITAL2/proyecto2/master.X/I2C.c: 121:     I2C_Master_
      +                          Write(0xA7);
  3104  0539  30A7               	movlw	167
  3105  053A  00F3               	movwf	I2C_Master_Write@d
  3106  053B  3000               	movlw	0
  3107  053C  00F4               	movwf	I2C_Master_Write@d+1
  3108  053D  120A  118A  2690  120A  118A  	fcall	_I2C_Master_Write
  3109                           
  3110                           ;C:/Users/danie/OneDrive/Desktop/DIGITAL2/proyecto2/master.X/I2C.c: 122:     leido = I2C
      +                          _Master_Read(0);
  3111  0542  3000               	movlw	0
  3112  0543  00F3               	movwf	I2C_Master_Read@a
  3113  0544  00F4               	movwf	I2C_Master_Read@a+1
  3114  0545  120A  118A  2609  120A  118A  	fcall	_I2C_Master_Read
  3115  054A  0874               	movf	?_I2C_Master_Read+1,w
  3116  054B  1283               	bcf	3,5	;RP0=0, select bank0
  3117  054C  1303               	bcf	3,6	;RP1=0, select bank0
  3118  054D  00A8               	movwf	ADXL345_READ@leido+1
  3119  054E  0873               	movf	?_I2C_Master_Read,w
  3120  054F  00A7               	movwf	ADXL345_READ@leido
  3121                           
  3122                           ;C:/Users/danie/OneDrive/Desktop/DIGITAL2/proyecto2/master.X/I2C.c: 123:     I2C_Master_
      +                          Stop();
  3123  0550  120A  118A  269A  120A  118A  	fcall	_I2C_Master_Stop
  3124  0555                     l1758:
  3125                           
  3126                           ;C:/Users/danie/OneDrive/Desktop/DIGITAL2/proyecto2/master.X/I2C.c: 124:     return leid
      +                          o;
  3127  0555  1283               	bcf	3,5	;RP0=0, select bank0
  3128  0556  1303               	bcf	3,6	;RP1=0, select bank0
  3129  0557  0828               	movf	ADXL345_READ@leido+1,w
  3130  0558  00A3               	movwf	?_ADXL345_READ+1
  3131  0559  0827               	movf	ADXL345_READ@leido,w
  3132  055A  00A2               	movwf	?_ADXL345_READ
  3133  055B                     l175:
  3134  055B  0008               	return
  3135  055C                     __end_of_ADXL345_READ:
  3136                           
  3137                           	psect	text13
  3138  0690                     __ptext13:	
  3139 ;; *************** function _I2C_Master_Write *****************
  3140 ;; Defined at:
  3141 ;;		line 64 in file "C:/Users/danie/OneDrive/Desktop/DIGITAL2/proyecto2/master.X/I2C.c"
  3142 ;; Parameters:    Size  Location     Type
  3143 ;;  d               2    3[COMMON] unsigned int 
  3144 ;; Auto vars:     Size  Location     Type
  3145 ;;		None
  3146 ;; Return value:  Size  Location     Type
  3147 ;;                  1    wreg      void 
  3148 ;; Registers used:
  3149 ;;		wreg, status,2, status,0, pclath, cstack
  3150 ;; Tracked objects:
  3151 ;;		On entry : 0/0
  3152 ;;		On exit  : 0/0
  3153 ;;		Unchanged: 0/0
  3154 ;; Data sizes:     COMMON   BANK0   BANK1   BANK3   BANK2
  3155 ;;      Params:         2       0       0       0       0
  3156 ;;      Locals:         0       0       0       0       0
  3157 ;;      Temps:          0       0       0       0       0
  3158 ;;      Totals:         2       0       0       0       0
  3159 ;;Total ram usage:        2 bytes
  3160 ;; Hardware stack levels used:    1
  3161 ;; Hardware stack levels required when called:    2
  3162 ;; This function calls:
  3163 ;;		_I2C_Master_Wait
  3164 ;; This function is called by:
  3165 ;;		_ADXL345_READ
  3166 ;;		_ADXL345_WRITE
  3167 ;; This function uses a non-reentrant model
  3168 ;;
  3169                           
  3170                           
  3171                           ;psect for function _I2C_Master_Write
  3172  0690                     _I2C_Master_Write:
  3173  0690                     l1692:	
  3174                           ;incstack = 0
  3175                           ; Regs used in _I2C_Master_Write: [wreg+status,2+status,0+pclath+cstack]
  3176                           
  3177                           
  3178                           ;C:/Users/danie/OneDrive/Desktop/DIGITAL2/proyecto2/master.X/I2C.c: 64: void I2C_Master_
      +                          Write(unsigned d);C:/Users/danie/OneDrive/Desktop/DIGITAL2/proyecto2/master.X/I2C.c: 65:
      +                           {;C:/Users/danie/OneDrive/Desktop/DIGITAL2/proyecto2/master.X/I2C.c: 66:     I2C_Master
      +                          _Wait();
  3179  0690  120A  118A  2683  120A  118A  	fcall	_I2C_Master_Wait
  3180  0695                     l1694:
  3181                           
  3182                           ;C:/Users/danie/OneDrive/Desktop/DIGITAL2/proyecto2/master.X/I2C.c: 67:     SSPBUF = d;
  3183  0695  0873               	movf	I2C_Master_Write@d,w
  3184  0696  1283               	bcf	3,5	;RP0=0, select bank0
  3185  0697  1303               	bcf	3,6	;RP1=0, select bank0
  3186  0698  0093               	movwf	19	;volatile
  3187  0699                     l161:
  3188  0699  0008               	return
  3189  069A                     __end_of_I2C_Master_Write:
  3190                           
  3191                           	psect	text14
  3192  069A                     __ptext14:	
  3193 ;; *************** function _I2C_Master_Stop *****************
  3194 ;; Defined at:
  3195 ;;		line 54 in file "C:/Users/danie/OneDrive/Desktop/DIGITAL2/proyecto2/master.X/I2C.c"
  3196 ;; Parameters:    Size  Location     Type
  3197 ;;		None
  3198 ;; Auto vars:     Size  Location     Type
  3199 ;;		None
  3200 ;; Return value:  Size  Location     Type
  3201 ;;                  1    wreg      void 
  3202 ;; Registers used:
  3203 ;;		wreg, status,2, status,0, pclath, cstack
  3204 ;; Tracked objects:
  3205 ;;		On entry : 0/0
  3206 ;;		On exit  : 0/0
  3207 ;;		Unchanged: 0/0
  3208 ;; Data sizes:     COMMON   BANK0   BANK1   BANK3   BANK2
  3209 ;;      Params:         0       0       0       0       0
  3210 ;;      Locals:         0       0       0       0       0
  3211 ;;      Temps:          0       0       0       0       0
  3212 ;;      Totals:         0       0       0       0       0
  3213 ;;Total ram usage:        0 bytes
  3214 ;; Hardware stack levels used:    1
  3215 ;; Hardware stack levels required when called:    2
  3216 ;; This function calls:
  3217 ;;		_I2C_Master_Wait
  3218 ;; This function is called by:
  3219 ;;		_ADXL345_READ
  3220 ;;		_ADXL345_WRITE
  3221 ;; This function uses a non-reentrant model
  3222 ;;
  3223                           
  3224                           
  3225                           ;psect for function _I2C_Master_Stop
  3226  069A                     _I2C_Master_Stop:
  3227  069A                     l1688:	
  3228                           ;incstack = 0
  3229                           ; Regs used in _I2C_Master_Stop: [wreg+status,2+status,0+pclath+cstack]
  3230                           
  3231                           
  3232                           ;C:/Users/danie/OneDrive/Desktop/DIGITAL2/proyecto2/master.X/I2C.c: 56:     I2C_Master_W
      +                          ait();
  3233  069A  120A  118A  2683  120A  118A  	fcall	_I2C_Master_Wait
  3234  069F                     l1690:
  3235                           
  3236                           ;C:/Users/danie/OneDrive/Desktop/DIGITAL2/proyecto2/master.X/I2C.c: 57:     SSPCON2bits.
      +                          PEN = 1;
  3237  069F  1683               	bsf	3,5	;RP0=1, select bank1
  3238  06A0  1303               	bcf	3,6	;RP1=0, select bank1
  3239  06A1  1511               	bsf	17,2	;volatile
  3240  06A2                     l158:
  3241  06A2  0008               	return
  3242  06A3                     __end_of_I2C_Master_Stop:
  3243                           
  3244                           	psect	text15
  3245  06A3                     __ptext15:	
  3246 ;; *************** function _I2C_Master_Start *****************
  3247 ;; Defined at:
  3248 ;;		line 38 in file "C:/Users/danie/OneDrive/Desktop/DIGITAL2/proyecto2/master.X/I2C.c"
  3249 ;; Parameters:    Size  Location     Type
  3250 ;;		None
  3251 ;; Auto vars:     Size  Location     Type
  3252 ;;		None
  3253 ;; Return value:  Size  Location     Type
  3254 ;;                  1    wreg      void 
  3255 ;; Registers used:
  3256 ;;		wreg, status,2, status,0, pclath, cstack
  3257 ;; Tracked objects:
  3258 ;;		On entry : 0/0
  3259 ;;		On exit  : 0/0
  3260 ;;		Unchanged: 0/0
  3261 ;; Data sizes:     COMMON   BANK0   BANK1   BANK3   BANK2
  3262 ;;      Params:         0       0       0       0       0
  3263 ;;      Locals:         0       0       0       0       0
  3264 ;;      Temps:          0       0       0       0       0
  3265 ;;      Totals:         0       0       0       0       0
  3266 ;;Total ram usage:        0 bytes
  3267 ;; Hardware stack levels used:    1
  3268 ;; Hardware stack levels required when called:    2
  3269 ;; This function calls:
  3270 ;;		_I2C_Master_Wait
  3271 ;; This function is called by:
  3272 ;;		_ADXL345_READ
  3273 ;;		_ADXL345_WRITE
  3274 ;; This function uses a non-reentrant model
  3275 ;;
  3276                           
  3277                           
  3278                           ;psect for function _I2C_Master_Start
  3279  06A3                     _I2C_Master_Start:
  3280  06A3                     l1684:	
  3281                           ;incstack = 0
  3282                           ; Regs used in _I2C_Master_Start: [wreg+status,2+status,0+pclath+cstack]
  3283                           
  3284                           
  3285                           ;C:/Users/danie/OneDrive/Desktop/DIGITAL2/proyecto2/master.X/I2C.c: 40:     I2C_Master_W
      +                          ait();
  3286  06A3  120A  118A  2683  120A  118A  	fcall	_I2C_Master_Wait
  3287  06A8                     l1686:
  3288                           
  3289                           ;C:/Users/danie/OneDrive/Desktop/DIGITAL2/proyecto2/master.X/I2C.c: 41:     SSPCON2bits.
      +                          SEN = 1;
  3290  06A8  1683               	bsf	3,5	;RP0=1, select bank1
  3291  06A9  1303               	bcf	3,6	;RP1=0, select bank1
  3292  06AA  1411               	bsf	17,0	;volatile
  3293  06AB                     l152:
  3294  06AB  0008               	return
  3295  06AC                     __end_of_I2C_Master_Start:
  3296                           
  3297                           	psect	text16
  3298  0609                     __ptext16:	
  3299 ;; *************** function _I2C_Master_Read *****************
  3300 ;; Defined at:
  3301 ;;		line 73 in file "C:/Users/danie/OneDrive/Desktop/DIGITAL2/proyecto2/master.X/I2C.c"
  3302 ;; Parameters:    Size  Location     Type
  3303 ;;  a               2    3[COMMON] unsigned short 
  3304 ;; Auto vars:     Size  Location     Type
  3305 ;;  temp            2    0[BANK0 ] unsigned short 
  3306 ;; Return value:  Size  Location     Type
  3307 ;;                  2    3[COMMON] unsigned short 
  3308 ;; Registers used:
  3309 ;;		wreg, status,2, status,0, pclath, cstack
  3310 ;; Tracked objects:
  3311 ;;		On entry : 0/0
  3312 ;;		On exit  : 0/0
  3313 ;;		Unchanged: 0/0
  3314 ;; Data sizes:     COMMON   BANK0   BANK1   BANK3   BANK2
  3315 ;;      Params:         2       0       0       0       0
  3316 ;;      Locals:         0       2       0       0       0
  3317 ;;      Temps:          2       0       0       0       0
  3318 ;;      Totals:         4       2       0       0       0
  3319 ;;Total ram usage:        6 bytes
  3320 ;; Hardware stack levels used:    1
  3321 ;; Hardware stack levels required when called:    2
  3322 ;; This function calls:
  3323 ;;		_I2C_Master_Wait
  3324 ;; This function is called by:
  3325 ;;		_ADXL345_READ
  3326 ;; This function uses a non-reentrant model
  3327 ;;
  3328                           
  3329                           
  3330                           ;psect for function _I2C_Master_Read
  3331  0609                     _I2C_Master_Read:
  3332  0609                     l1696:	
  3333                           ;incstack = 0
  3334                           ; Regs used in _I2C_Master_Read: [wreg+status,2+status,0+pclath+cstack]
  3335                           
  3336                           
  3337                           ;C:/Users/danie/OneDrive/Desktop/DIGITAL2/proyecto2/master.X/I2C.c: 73: unsigned short I
      +                          2C_Master_Read(unsigned short a);C:/Users/danie/OneDrive/Desktop/DIGITAL2/proyecto2/mast
      +                          er.X/I2C.c: 74: {;C:/Users/danie/OneDrive/Desktop/DIGITAL2/proyecto2/master.X/I2C.c: 75:
      +                               unsigned short temp;;C:/Users/danie/OneDrive/Desktop/DIGITAL2/proyecto2/master.X/I2
      +                          C.c: 76:     I2C_Master_Wait();
  3338  0609  120A  118A  2683  120A  118A  	fcall	_I2C_Master_Wait
  3339  060E                     l1698:
  3340                           
  3341                           ;C:/Users/danie/OneDrive/Desktop/DIGITAL2/proyecto2/master.X/I2C.c: 77:     SSPCON2bits.
      +                          RCEN = 1;
  3342  060E  1683               	bsf	3,5	;RP0=1, select bank1
  3343  060F  1303               	bcf	3,6	;RP1=0, select bank1
  3344  0610  1591               	bsf	17,3	;volatile
  3345                           
  3346                           ;C:/Users/danie/OneDrive/Desktop/DIGITAL2/proyecto2/master.X/I2C.c: 78:     I2C_Master_W
      +                          ait();
  3347  0611  120A  118A  2683  120A  118A  	fcall	_I2C_Master_Wait
  3348  0616                     l1700:
  3349                           
  3350                           ;C:/Users/danie/OneDrive/Desktop/DIGITAL2/proyecto2/master.X/I2C.c: 79:     temp = SSPBU
      +                          F;
  3351  0616  1283               	bcf	3,5	;RP0=0, select bank0
  3352  0617  1303               	bcf	3,6	;RP1=0, select bank0
  3353  0618  0813               	movf	19,w	;volatile
  3354  0619  00F5               	movwf	??_I2C_Master_Read
  3355  061A  01F6               	clrf	??_I2C_Master_Read+1
  3356  061B  0875               	movf	??_I2C_Master_Read,w
  3357  061C  00A0               	movwf	I2C_Master_Read@temp
  3358  061D  0876               	movf	??_I2C_Master_Read+1,w
  3359  061E  00A1               	movwf	I2C_Master_Read@temp+1
  3360  061F                     l1702:
  3361                           
  3362                           ;C:/Users/danie/OneDrive/Desktop/DIGITAL2/proyecto2/master.X/I2C.c: 80:     I2C_Master_W
      +                          ait();
  3363  061F  120A  118A  2683  120A  118A  	fcall	_I2C_Master_Wait
  3364  0624                     l1704:
  3365                           
  3366                           ;C:/Users/danie/OneDrive/Desktop/DIGITAL2/proyecto2/master.X/I2C.c: 81:     if(a == 1){
  3367  0624  0373               	decf	I2C_Master_Read@a,w
  3368  0625  0474               	iorwf	I2C_Master_Read@a+1,w
  3369  0626  1D03               	btfss	3,2
  3370  0627  2E29               	goto	u1491
  3371  0628  2E2A               	goto	u1490
  3372  0629                     u1491:
  3373  0629  2E2E               	goto	l164
  3374  062A                     u1490:
  3375  062A                     l1706:
  3376                           
  3377                           ;C:/Users/danie/OneDrive/Desktop/DIGITAL2/proyecto2/master.X/I2C.c: 82:         SSPCON2b
      +                          its.ACKDT = 0;
  3378  062A  1683               	bsf	3,5	;RP0=1, select bank1
  3379  062B  1303               	bcf	3,6	;RP1=0, select bank1
  3380  062C  1291               	bcf	17,5	;volatile
  3381                           
  3382                           ;C:/Users/danie/OneDrive/Desktop/DIGITAL2/proyecto2/master.X/I2C.c: 83:     }else{
  3383  062D  2E31               	goto	l165
  3384  062E                     l164:
  3385                           
  3386                           ;C:/Users/danie/OneDrive/Desktop/DIGITAL2/proyecto2/master.X/I2C.c: 84:         SSPCON2b
      +                          its.ACKDT = 1;
  3387  062E  1683               	bsf	3,5	;RP0=1, select bank1
  3388  062F  1303               	bcf	3,6	;RP1=0, select bank1
  3389  0630  1691               	bsf	17,5	;volatile
  3390  0631                     l165:	
  3391                           ;C:/Users/danie/OneDrive/Desktop/DIGITAL2/proyecto2/master.X/I2C.c: 85:     }
  3392                           
  3393                           
  3394                           ;C:/Users/danie/OneDrive/Desktop/DIGITAL2/proyecto2/master.X/I2C.c: 86:     SSPCON2bits.
      +                          ACKEN = 1;
  3395  0631  1611               	bsf	17,4	;volatile
  3396  0632                     l1708:
  3397                           
  3398                           ;C:/Users/danie/OneDrive/Desktop/DIGITAL2/proyecto2/master.X/I2C.c: 87:     return temp;
  3399  0632  1283               	bcf	3,5	;RP0=0, select bank0
  3400  0633  1303               	bcf	3,6	;RP1=0, select bank0
  3401  0634  0821               	movf	I2C_Master_Read@temp+1,w
  3402  0635  00F4               	movwf	?_I2C_Master_Read+1
  3403  0636  0820               	movf	I2C_Master_Read@temp,w
  3404  0637  00F3               	movwf	?_I2C_Master_Read
  3405  0638                     l166:
  3406  0638  0008               	return
  3407  0639                     __end_of_I2C_Master_Read:
  3408                           
  3409                           	psect	text17
  3410  0683                     __ptext17:	
  3411 ;; *************** function _I2C_Master_Wait *****************
  3412 ;; Defined at:
  3413 ;;		line 31 in file "C:/Users/danie/OneDrive/Desktop/DIGITAL2/proyecto2/master.X/I2C.c"
  3414 ;; Parameters:    Size  Location     Type
  3415 ;;		None
  3416 ;; Auto vars:     Size  Location     Type
  3417 ;;		None
  3418 ;; Return value:  Size  Location     Type
  3419 ;;                  1    wreg      void 
  3420 ;; Registers used:
  3421 ;;		wreg, status,2
  3422 ;; Tracked objects:
  3423 ;;		On entry : 0/0
  3424 ;;		On exit  : 0/0
  3425 ;;		Unchanged: 0/0
  3426 ;; Data sizes:     COMMON   BANK0   BANK1   BANK3   BANK2
  3427 ;;      Params:         0       0       0       0       0
  3428 ;;      Locals:         0       0       0       0       0
  3429 ;;      Temps:          0       0       0       0       0
  3430 ;;      Totals:         0       0       0       0       0
  3431 ;;Total ram usage:        0 bytes
  3432 ;; Hardware stack levels used:    1
  3433 ;; Hardware stack levels required when called:    1
  3434 ;; This function calls:
  3435 ;;		Nothing
  3436 ;; This function is called by:
  3437 ;;		_I2C_Master_Start
  3438 ;;		_I2C_Master_Stop
  3439 ;;		_I2C_Master_Write
  3440 ;;		_I2C_Master_Read
  3441 ;;		_I2C_Master_RepeatedStart
  3442 ;; This function uses a non-reentrant model
  3443 ;;
  3444                           
  3445                           
  3446                           ;psect for function _I2C_Master_Wait
  3447  0683                     _I2C_Master_Wait:
  3448  0683                     l1680:	
  3449                           ;incstack = 0
  3450                           ; Regs used in _I2C_Master_Wait: [wreg+status,2]
  3451                           
  3452  0683                     l146:	
  3453                           ;C:/Users/danie/OneDrive/Desktop/DIGITAL2/proyecto2/master.X/I2C.c: 33:     while ((SSPS
      +                          TAT & 0x04) || (SSPCON2 & 0x1F));
  3454                           
  3455  0683  1683               	bsf	3,5	;RP0=1, select bank1
  3456  0684  1303               	bcf	3,6	;RP1=0, select bank1
  3457  0685  1914               	btfsc	20,2	;volatile
  3458  0686  2E88               	goto	u1471
  3459  0687  2E89               	goto	u1470
  3460  0688                     u1471:
  3461  0688  2E83               	goto	l146
  3462  0689                     u1470:
  3463  0689                     l1682:
  3464  0689  0811               	movf	17,w	;volatile
  3465  068A  391F               	andlw	31
  3466  068B  1D03               	btfss	3,2
  3467  068C  2E8E               	goto	u1481
  3468  068D  2E8F               	goto	u1480
  3469  068E                     u1481:
  3470  068E  2E83               	goto	l146
  3471  068F                     u1480:
  3472  068F                     l149:
  3473  068F  0008               	return
  3474  0690                     __end_of_I2C_Master_Wait:
  3475                           
  3476                           	psect	text18
  3477  0476                     __ptext18:	
  3478 ;; *************** function _isr *****************
  3479 ;; Defined at:
  3480 ;;		line 61 in file "C:/Users/danie/OneDrive/Desktop/DIGITAL2/proyecto2/master.X/main_pic.c"
  3481 ;; Parameters:    Size  Location     Type
  3482 ;;		None
  3483 ;; Auto vars:     Size  Location     Type
  3484 ;;		None
  3485 ;; Return value:  Size  Location     Type
  3486 ;;                  1    wreg      void 
  3487 ;; Registers used:
  3488 ;;		wreg, status,2, status,0
  3489 ;; Tracked objects:
  3490 ;;		On entry : 0/0
  3491 ;;		On exit  : 0/0
  3492 ;;		Unchanged: 0/0
  3493 ;; Data sizes:     COMMON   BANK0   BANK1   BANK3   BANK2
  3494 ;;      Params:         0       0       0       0       0
  3495 ;;      Locals:         0       0       0       0       0
  3496 ;;      Temps:          3       0       0       0       0
  3497 ;;      Totals:         3       0       0       0       0
  3498 ;;Total ram usage:        3 bytes
  3499 ;; Hardware stack levels used:    1
  3500 ;; This function calls:
  3501 ;;		Nothing
  3502 ;; This function is called by:
  3503 ;;		Interrupt level 1
  3504 ;; This function uses a non-reentrant model
  3505 ;;
  3506                           
  3507                           
  3508                           ;psect for function _isr
  3509  0476                     _isr:
  3510  0476                     i1l1624:
  3511                           
  3512                           ;C:/Users/danie/OneDrive/Desktop/DIGITAL2/proyecto2/master.X/main_pic.c: 62:     if (INT
      +                          CONbits.T0IF){
  3513  0476  1D0B               	btfss	11,2	;volatile
  3514  0477  2C79               	goto	u138_21
  3515  0478  2C7A               	goto	u138_20
  3516  0479                     u138_21:
  3517  0479  2C85               	goto	i1l1630
  3518  047A                     u138_20:
  3519  047A                     i1l1626:
  3520                           
  3521                           ;C:/Users/danie/OneDrive/Desktop/DIGITAL2/proyecto2/master.X/main_pic.c: 63:         CON
      +                          TX++;
  3522  047A  3001               	movlw	1
  3523  047B  00F0               	movwf	??_isr
  3524  047C  0870               	movf	??_isr,w
  3525  047D  1283               	bcf	3,5	;RP0=0, select bank0
  3526  047E  1303               	bcf	3,6	;RP1=0, select bank0
  3527  047F  07DF               	addwf	_CONTX,f
  3528                           
  3529                           ;C:/Users/danie/OneDrive/Desktop/DIGITAL2/proyecto2/master.X/main_pic.c: 64:         pru
      +                          eba++;
  3530  0480  3001               	movlw	1
  3531  0481  00F0               	movwf	??_isr
  3532  0482  0870               	movf	??_isr,w
  3533  0483  07E9               	addwf	_prueba,f
  3534  0484                     i1l1628:
  3535                           
  3536                           ;C:/Users/danie/OneDrive/Desktop/DIGITAL2/proyecto2/master.X/main_pic.c: 65:         INT
      +                          CONbits.T0IF = 0;
  3537  0484  110B               	bcf	11,2	;volatile
  3538  0485                     i1l1630:
  3539                           
  3540                           ;C:/Users/danie/OneDrive/Desktop/DIGITAL2/proyecto2/master.X/main_pic.c: 68:     if (TXI
      +                          F == 1){
  3541  0485  1283               	bcf	3,5	;RP0=0, select bank0
  3542  0486  1303               	bcf	3,6	;RP1=0, select bank0
  3543  0487  1E0C               	btfss	12,4	;volatile
  3544  0488  2C8A               	goto	u139_21
  3545  0489  2C8B               	goto	u139_20
  3546  048A                     u139_21:
  3547  048A  2C9F               	goto	i1l1644
  3548  048B                     u139_20:
  3549  048B                     i1l1632:
  3550                           
  3551                           ;C:/Users/danie/OneDrive/Desktop/DIGITAL2/proyecto2/master.X/main_pic.c: 69:         if 
      +                          (bandera == 1){
  3552  048B  0378               	decf	_bandera,w
  3553  048C  1D03               	btfss	3,2
  3554  048D  2C8F               	goto	u140_21
  3555  048E  2C90               	goto	u140_20
  3556  048F                     u140_21:
  3557  048F  2C93               	goto	i1l1636
  3558  0490                     u140_20:
  3559  0490                     i1l1634:
  3560                           
  3561                           ;C:/Users/danie/OneDrive/Desktop/DIGITAL2/proyecto2/master.X/main_pic.c: 70:            
      +                           TXREG = eje_x;
  3562  0490  086A               	movf	_eje_x,w
  3563  0491  0099               	movwf	25	;volatile
  3564                           
  3565                           ;C:/Users/danie/OneDrive/Desktop/DIGITAL2/proyecto2/master.X/main_pic.c: 72:         } e
      +                          lse if (bandera == 2) {
  3566  0492  2C9B               	goto	i1l1640
  3567  0493                     i1l1636:
  3568  0493  3002               	movlw	2
  3569  0494  0678               	xorwf	_bandera,w
  3570  0495  1D03               	btfss	3,2
  3571  0496  2C98               	goto	u141_21
  3572  0497  2C99               	goto	u141_20
  3573  0498                     u141_21:
  3574  0498  2C9B               	goto	i1l1640
  3575  0499                     u141_20:
  3576  0499                     i1l1638:
  3577                           
  3578                           ;C:/Users/danie/OneDrive/Desktop/DIGITAL2/proyecto2/master.X/main_pic.c: 73:            
      +                           TXREG = eje_y;
  3579  0499  0868               	movf	_eje_y,w
  3580  049A  0099               	movwf	25	;volatile
  3581  049B                     i1l1640:
  3582                           
  3583                           ;C:/Users/danie/OneDrive/Desktop/DIGITAL2/proyecto2/master.X/main_pic.c: 75:         ban
      +                          dera = 0;
  3584  049B  01F8               	clrf	_bandera
  3585  049C                     i1l1642:
  3586                           
  3587                           ;C:/Users/danie/OneDrive/Desktop/DIGITAL2/proyecto2/master.X/main_pic.c: 77:         TXI
      +                          E = 0;
  3588  049C  1683               	bsf	3,5	;RP0=1, select bank1
  3589  049D  1303               	bcf	3,6	;RP1=0, select bank1
  3590  049E  120C               	bcf	12,4	;volatile
  3591  049F                     i1l1644:
  3592                           
  3593                           ;C:/Users/danie/OneDrive/Desktop/DIGITAL2/proyecto2/master.X/main_pic.c: 81:     if(PIR1
      +                          bits.RCIF == 1){
  3594  049F  1283               	bcf	3,5	;RP0=0, select bank0
  3595  04A0  1E8C               	btfss	12,5	;volatile
  3596  04A1  2CA3               	goto	u142_21
  3597  04A2  2CA4               	goto	u142_20
  3598  04A3                     u142_21:
  3599  04A3  2CC4               	goto	i1l98
  3600  04A4                     u142_20:
  3601  04A4                     i1l1646:
  3602                           
  3603                           ;C:/Users/danie/OneDrive/Desktop/DIGITAL2/proyecto2/master.X/main_pic.c: 82:         POR
      +                          TD = RCREG;
  3604  04A4  081A               	movf	26,w	;volatile
  3605  04A5  0088               	movwf	8	;volatile
  3606                           
  3607                           ;C:/Users/danie/OneDrive/Desktop/DIGITAL2/proyecto2/master.X/main_pic.c: 83:         POR
      +                          TE = RCREG;
  3608  04A6  081A               	movf	26,w	;volatile
  3609  04A7  0089               	movwf	9	;volatile
  3610                           
  3611                           ;C:/Users/danie/OneDrive/Desktop/DIGITAL2/proyecto2/master.X/main_pic.c: 84:         if 
      +                          (RCREG > 5){
  3612  04A8  3006               	movlw	6
  3613  04A9  021A               	subwf	26,w	;volatile
  3614  04AA  1C03               	skipc
  3615  04AB  2CAD               	goto	u143_21
  3616  04AC  2CAE               	goto	u143_20
  3617  04AD                     u143_21:
  3618  04AD  2CC2               	goto	i1l1656
  3619  04AE                     u143_20:
  3620  04AE                     i1l1648:
  3621                           
  3622                           ;C:/Users/danie/OneDrive/Desktop/DIGITAL2/proyecto2/master.X/main_pic.c: 85:            
      +                           if (RCREG < 25){
  3623  04AE  3019               	movlw	25
  3624  04AF  021A               	subwf	26,w	;volatile
  3625  04B0  1803               	skipnc
  3626  04B1  2CB3               	goto	u144_21
  3627  04B2  2CB4               	goto	u144_20
  3628  04B3                     u144_21:
  3629  04B3  2CB7               	goto	i1l1652
  3630  04B4                     u144_20:
  3631  04B4                     i1l1650:
  3632                           
  3633                           ;C:/Users/danie/OneDrive/Desktop/DIGITAL2/proyecto2/master.X/main_pic.c: 86:            
      +                               bandera = 1;
  3634  04B4  01F8               	clrf	_bandera
  3635  04B5  0AF8               	incf	_bandera,f
  3636                           
  3637                           ;C:/Users/danie/OneDrive/Desktop/DIGITAL2/proyecto2/master.X/main_pic.c: 87:            
      +                           } else if (RCREG < 40){
  3638  04B6  2CC4               	goto	i1l98
  3639  04B7                     i1l1652:
  3640  04B7  3028               	movlw	40
  3641  04B8  021A               	subwf	26,w	;volatile
  3642  04B9  1803               	skipnc
  3643  04BA  2CBC               	goto	u145_21
  3644  04BB  2CBD               	goto	u145_20
  3645  04BC                     u145_21:
  3646  04BC  2CC4               	goto	i1l97
  3647  04BD                     u145_20:
  3648  04BD                     i1l1654:
  3649                           
  3650                           ;C:/Users/danie/OneDrive/Desktop/DIGITAL2/proyecto2/master.X/main_pic.c: 88:            
      +                               bandera = 2;
  3651  04BD  3002               	movlw	2
  3652  04BE  00F0               	movwf	??_isr
  3653  04BF  0870               	movf	??_isr,w
  3654  04C0  00F8               	movwf	_bandera
  3655  04C1  2CC4               	goto	i1l98
  3656  04C2                     i1l1656:
  3657                           
  3658                           ;C:/Users/danie/OneDrive/Desktop/DIGITAL2/proyecto2/master.X/main_pic.c: 91:            
      +                           bandera = 0;
  3659  04C2  01F8               	clrf	_bandera
  3660  04C3  2CC4               	goto	i1l98
  3661  04C4                     i1l97:	
  3662                           ;C:/Users/danie/OneDrive/Desktop/DIGITAL2/proyecto2/master.X/main_pic.c: 92:         }
  3663                           
  3664  04C4                     i1l98:
  3665  04C4  0872               	movf	??_isr+2,w
  3666  04C5  008A               	movwf	10
  3667  04C6  0E71               	swapf	??_isr+1,w
  3668  04C7  0083               	movwf	3
  3669  04C8  0EFE               	swapf	btemp,f
  3670  04C9  0E7E               	swapf	btemp,w
  3671  04CA  0009               	retfie
  3672  04CB                     __end_of_isr:
  3673  007E                     btemp	set	126	;btemp
  3674  007E                     wtemp0	set	126
  3675                           
  3676                           	psect	intentry
  3677  0004                     __pintentry:	
  3678                           ;incstack = 0
  3679                           ; Regs used in _isr: [wreg+status,2+status,0]
  3680                           
  3681  0004                     interrupt_function:
  3682  007E                     saved_w	set	btemp
  3683  0004  00FE               	movwf	btemp
  3684  0005  0E03               	swapf	3,w
  3685  0006  00F1               	movwf	??_isr+1
  3686  0007  080A               	movf	10,w
  3687  0008  00F2               	movwf	??_isr+2
  3688  0009  120A  118A  2C76   	ljmp	_isr
  3689                           
  3690                           	psect	config
  3691                           
  3692                           ;Config register CONFIG1 @ 0x2007
  3693                           ;	Oscillator Selection bits
  3694                           ;	FOSC = INTRC_NOCLKOUT, INTOSCIO oscillator: I/O function on RA6/OSC2/CLKOUT pin, I/O f
      +                          unction on RA7/OSC1/CLKIN
  3695                           ;	Watchdog Timer Enable bit
  3696                           ;	WDTE = OFF, WDT disabled and can be enabled by SWDTEN bit of the WDTCON register
  3697                           ;	Power-up Timer Enable bit
  3698                           ;	PWRTE = OFF, PWRT disabled
  3699                           ;	RE3/MCLR pin function select bit
  3700                           ;	MCLRE = OFF, RE3/MCLR pin function is digital input, MCLR internally tied to VDD
  3701                           ;	Code Protection bit
  3702                           ;	CP = OFF, Program memory code protection is disabled
  3703                           ;	Data Code Protection bit
  3704                           ;	CPD = OFF, Data memory code protection is disabled
  3705                           ;	Brown Out Reset Selection bits
  3706                           ;	BOREN = OFF, BOR disabled
  3707                           ;	Internal External Switchover bit
  3708                           ;	IESO = OFF, Internal/External Switchover mode is disabled
  3709                           ;	Fail-Safe Clock Monitor Enabled bit
  3710                           ;	FCMEN = OFF, Fail-Safe Clock Monitor is disabled
  3711                           ;	Low Voltage Programming Enable bit
  3712                           ;	LVP = OFF, RB3 pin has digital I/O, HV on MCLR must be used for programming
  3713                           ;	In-Circuit Debugger Mode bit
  3714                           ;	DEBUG = 0x1, unprogrammed default
  3715  2007                     	org	8199
  3716  2007  20D4               	dw	8404
  3717                           
  3718                           ;Config register CONFIG2 @ 0x2008
  3719                           ;	Brown-out Reset Selection bit
  3720                           ;	BOR4V = BOR40V, Brown-out Reset set to 4.0V
  3721                           ;	Flash Program Memory Self Write Enable bits
  3722                           ;	WRT = OFF, Write protection off
  3723  2008                     	org	8200
  3724  2008  3FFF               	dw	16383

Data Sizes:
    Strings     0
    Constant    0
    Data        0
    BSS         14
    Persistent  2
    Stack       0

Auto Spaces:
    Space          Size  Autos    Used
    COMMON           14      8      11
    BANK0            80     62      75
    BANK1            80      0       0
    BANK3            96      0       0
    BANK2            96      0       0

Pointer List with Targets:

    None.

Critical Paths under _main in COMMON

    _setup->_I2C_Master_Init
    _I2C_Master_Init->___lldiv
    _ADXL345_init->_ADXL345_WRITE
    _ADXL345_WRITE->_I2C_Master_Write
    _ADXL345_readY->___xxtofl
    _ADXL345_readX->___xxtofl
    ___fltol->___xxtofl
    ___fldiv->___xxtofl
    _ADXL345_READ->_I2C_Master_Read

Critical Paths under _isr in COMMON

    None.

Critical Paths under _main in BANK0

    _main->_ADXL345_readX
    _main->_ADXL345_readY
    _setup->_I2C_Master_Init
    _I2C_Master_Init->___lldiv
    _ADXL345_init->_ADXL345_WRITE
    _ADXL345_readY->___fltol
    _ADXL345_readX->___fltol
    ___fltol->___fldiv
    ___fldiv->___xxtofl
    _ADXL345_READ->_I2C_Master_Read

Critical Paths under _isr in BANK0

    None.

Critical Paths under _main in BANK1

    None.

Critical Paths under _isr in BANK1

    None.

Critical Paths under _main in BANK3

    None.

Critical Paths under _isr in BANK3

    None.

Critical Paths under _main in BANK2

    None.

Critical Paths under _isr in BANK2

    None.

Call Graph Tables:

 ---------------------------------------------------------------------------------
 (Depth) Function   	        Calls       Base Space   Used Autos Params    Refs
 ---------------------------------------------------------------------------------
 (0) _main                                                 3     3      0    8843
                                             59 BANK0      3     3      0
                      _ADXL345_readX
                      _ADXL345_readY
                              _setup
 ---------------------------------------------------------------------------------
 (1) _setup                                                1     1      0    1355
                                             17 BANK0      1     1      0
                       _ADXL345_init
                    _I2C_Master_Init
                          _initUSART
 ---------------------------------------------------------------------------------
 (2) _initUSART                                            0     0      0       0
 ---------------------------------------------------------------------------------
 (2) _I2C_Master_Init                                      8     4      4     542
                                              4 COMMON     4     4      0
                                             13 BANK0      4     0      4
                            ___lldiv
 ---------------------------------------------------------------------------------
 (3) ___lldiv                                             14     6      8     421
                                              3 COMMON     1     1      0
                                              0 BANK0     13     5      8
 ---------------------------------------------------------------------------------
 (2) _ADXL345_init                                         2     2      0     813
                                              1 BANK0      2     2      0
                      _ADXL345_WRITE
 ---------------------------------------------------------------------------------
 (3) _ADXL345_WRITE                                        4     3      1     813
                                              5 COMMON     3     2      1
                                              0 BANK0      1     1      0
                   _I2C_Master_Start
                    _I2C_Master_Stop
                   _I2C_Master_Write
 ---------------------------------------------------------------------------------
 (1) _ADXL345_readY                                       12    10      2    3744
                                             47 BANK0     12    10      2
                       _ADXL345_READ
                            ___fldiv
                            ___fltol
                           ___xxtofl
 ---------------------------------------------------------------------------------
 (1) _ADXL345_readX                                       12    10      2    3744
                                             47 BANK0     12    10      2
                       _ADXL345_READ
                            ___fldiv
                            ___fltol
                           ___xxtofl
 ---------------------------------------------------------------------------------
 (2) ___xxtofl                                            14    10      4     746
                                              3 COMMON     4     0      4
                                              0 BANK0     10    10      0
 ---------------------------------------------------------------------------------
 (2) ___fltol                                             11     7      4     457
                                             36 BANK0     11     7      4
                            ___fldiv (ARG)
                           ___xxtofl (ARG)
 ---------------------------------------------------------------------------------
 (2) ___fldiv                                             26    18      8    1577
                                             10 BANK0     26    18      8
                           ___xxtofl (ARG)
 ---------------------------------------------------------------------------------
 (2) _ADXL345_READ                                         7     5      2     791
                                              2 BANK0      7     5      2
                    _I2C_Master_Read
                   _I2C_Master_Start
                    _I2C_Master_Stop
                   _I2C_Master_Write
 ---------------------------------------------------------------------------------
 (4) _I2C_Master_Write                                     2     0      2     571
                                              3 COMMON     2     0      2
                    _I2C_Master_Wait
 ---------------------------------------------------------------------------------
 (4) _I2C_Master_Stop                                      0     0      0       0
                    _I2C_Master_Wait
 ---------------------------------------------------------------------------------
 (4) _I2C_Master_Start                                     0     0      0       0
                    _I2C_Master_Wait
 ---------------------------------------------------------------------------------
 (3) _I2C_Master_Read                                      6     4      2     155
                                              3 COMMON     4     2      2
                                              0 BANK0      2     2      0
                    _I2C_Master_Wait
 ---------------------------------------------------------------------------------
 (5) _I2C_Master_Wait                                      0     0      0       0
 ---------------------------------------------------------------------------------
 Estimated maximum stack depth 5
 ---------------------------------------------------------------------------------
 (Depth) Function   	        Calls       Base Space   Used Autos Params    Refs
 ---------------------------------------------------------------------------------
 (6) _isr                                                  3     3      0       0
                                              0 COMMON     3     3      0
 ---------------------------------------------------------------------------------
 Estimated maximum stack depth 6
 ---------------------------------------------------------------------------------

 Call Graph Graphs:

 _main (ROOT)
   _ADXL345_readX
     _ADXL345_READ
       _I2C_Master_Read
         _I2C_Master_Wait
       _I2C_Master_Start
         _I2C_Master_Wait
       _I2C_Master_Stop
         _I2C_Master_Wait
       _I2C_Master_Write
         _I2C_Master_Wait
     ___fldiv
       ___xxtofl (ARG)
     ___fltol
       ___fldiv (ARG)
         ___xxtofl (ARG)
       ___xxtofl (ARG)
     ___xxtofl
   _ADXL345_readY
     _ADXL345_READ
       _I2C_Master_Read
         _I2C_Master_Wait
       _I2C_Master_Start
         _I2C_Master_Wait
       _I2C_Master_Stop
         _I2C_Master_Wait
       _I2C_Master_Write
         _I2C_Master_Wait
     ___fldiv
       ___xxtofl (ARG)
     ___fltol
       ___fldiv (ARG)
         ___xxtofl (ARG)
       ___xxtofl (ARG)
     ___xxtofl
   _setup
     _ADXL345_init
       _ADXL345_WRITE
         _I2C_Master_Start
           _I2C_Master_Wait
         _I2C_Master_Stop
           _I2C_Master_Wait
         _I2C_Master_Write
           _I2C_Master_Wait
     _I2C_Master_Init
       ___lldiv
     _initUSART

 _isr (ROOT)

 Address spaces:
Name               Size   Autos  Total    Cost      Usage
BITCOMMON            E      0       0       0        0.0%
EEDATA             100      0       0       0        0.0%
NULL                 0      0       0       0        0.0%
CODE                 0      0       0       0        0.0%
COMMON               E      8       B       1       78.6%
BITSFR0              0      0       0       1        0.0%
SFR0                 0      0       0       1        0.0%
BITSFR1              0      0       0       2        0.0%
SFR1                 0      0       0       2        0.0%
STACK                0      0       0       2        0.0%
ABS                  0      0      56       3        0.0%
BITBANK0            50      0       0       4        0.0%
BITSFR3              0      0       0       4        0.0%
SFR3                 0      0       0       4        0.0%
BANK0               50     3E      4B       5       93.8%
BITSFR2              0      0       0       5        0.0%
SFR2                 0      0       0       5        0.0%
BITBANK1            50      0       0       6        0.0%
BANK1               50      0       0       7        0.0%
BITBANK3            60      0       0       8        0.0%
BANK3               60      0       0       9        0.0%
BITBANK2            60      0       0      10        0.0%
BANK2               60      0       0      11        0.0%
DATA                 0      0      56      12        0.0%


Microchip Technology PIC Macro Assembler V2.31 build 20201012212115 
Symbol Table                                                                                   Fri Mar 05 21:14:38 2021

             ___fldiv@aexp 0043               ___fldiv@bexp 0042               ___fldiv@sign 003B  
                       _xH 0065                         _yH 0063                         _xL 0064  
                       _zH 0061                         _yL 0062                         _zL 0060  
                      l110 0514                        l206 0682                        l143 05D7  
                      l152 06AB                        l161 0699                        l146 0683  
                      l164 062E                        l172 0665                        l149 068F  
                      l165 0631                        l181 040D                        l166 0638  
                      l158 06A2                        l175 055B                        l184 03A2  
                      l328 0475                        l178 0608                        l641 007F  
                      l643 01FF                        l731 0269                        l485 0322  
                      l725 0224                        l478 0337                        l663 01E3  
                      l727 02BB                        l488 0337                        l665 01F3  
                      l657 0171                        l738 0285                        l739 0291  
                      _GIE 005F                        u900 030F                        u901 030E  
                      u910 0316                        u911 0315                        u930 0327  
                      u850 02C9                        u931 0326                        u851 02C8  
                      u940 032C                        u860 02E0                        u941 032B  
                      u925 0319                        u950 0034                        u870 02F6  
                      u951 0033                        u871 02F5                        u960 003A  
                      u880 02FD                        u961 0039                        u881 02FC  
                      u865 02DB                        u970 003F                        u971 003E  
                      u980 0061                        u981 0060                        u990 0067  
                      u991 0066                        u895 02FF                        _isr 0476  
    __size_of_ADXL345_READ 0047               ___fltol@exp1 004E                       l1310 066D  
                     l1400 0035                       l1320 067A                       l1312 0670  
                     l1304 0666                       l1402 003A                       l1410 004A  
                     l1330 0681                       l1322 067B                       l1314 0673  
                     l1306 066A                       l1420 0062                       l1412 0052  
                     l1404 003F                       l1324 067C                       l1316 0674  
                     l1308 066C                       l1510 01A6                       l1502 0176  
                     l1422 0067                       l1430 0077                       l1414 0057  
                     l1406 0047                       l1326 067F                       l1318 0677  
                     l1520 01DA                       l1504 017B                       l1512 01AC  
                     l1432 0087                       l1440 00A0                       l1424 006C  
                     l1416 005D                       l1408 0048                       l1328 0680  
                     l1522 01E2                       l1514 01B9                       l1506 0189  
                     l1450 00C8                       l1442 00A5                       l1434 0093  
                     l1426 0074                       l1418 0061                       l1370 02F2  
                     l1362 02D2                       l1700 0616                       l1524 01E9  
                     l1516 01C7                       l1508 018D                       l1460 00F1  
                     l1452 00D0                       l1436 0097                       l1428 0075  
                     l1372 02F6                       l1380 0310                       l1364 02E7  
                     l1356 02BC                       l1702 061F                       l1526 01ED  
                     l1518 01D6                       l1470 0112                       l1462 00F5  
                     l1454 00D8                       l1446 00AE                       l1390 032C  
                     l1366 02E8                       l1358 02C9                       l1704 0624  
                     l1528 01EF                       l1480 0134                       l1472 0120  
                     l1464 00F6                       l1456 00DA                       l1448 00C0  
                     l1392 0023                       l1368 02F0                       l1800 02B2  
                     l1712 05DB                       l1720 0430                       l1706 062A  
                     l1482 013D                       l1490 0151                       l1458 00DF  
                     l1466 00FF                       l1474 0124                       l1394 002A  
                     l1386 0317                       l1378 02FE                       l1802 02B3  
                     l1730 045E                       l1722 0434                       l1714 040E  
                     l1810 04EB                       l1708 0632                       l1492 0155  
                     l1484 0141                       l1476 012A                       l1468 0111  
                     l1396 0030                       l1388 0327                       l1732 0467  
                     l1724 043D                       l1716 0420                       l1740 05A2  
                     l1820 04FB                       l1812 04F0                       l1494 0156  
                     l1486 0142                       l1478 0132                       l1398 0034  
                     l1750 0639                       l1726 044F                       l1718 0423  
                     l1734 046D                       l1742 05A5                       l1830 050F  
                     l1822 04FF                       l1814 04F5                       l1806 04CB  
                     l1680 0683                       l1496 015A                       l1488 014B  
                     l1832 03A3                       l1752 0645                       l1728 045D  
                     l1744 05D4                       l1824 0500                       l1816 04F8  
                     l1808 04E7                       l1682 0689                       l1690 069F  
                     l1498 016E                       l1770 022C                       l1762 0203  
                     l1834 03BB                       l1842 0338                       l1754 064F  
                     l1746 05D5                       l1738 059E                       l1826 0501  
                     l1818 04F9                       l1684 06A3                       l1692 0690  
                     l1756 0518                       l1780 024E                       l1764 0208  
                     l1836 03CE                       l1844 0350                       l1748 05D6  
                     l1828 0502                       l1860 058B                       l1852 055C  
                     l1686 06A8                       l1694 0695                       l1758 0555  
                     l1790 027F                       l1782 0252                       l1774 0235  
                     l1766 020C                       l1838 0409                       l1846 0363  
                     l1854 0561                       l1696 0609                       l1688 069A  
                     l1792 0289                       l1784 0260                       l1776 023A  
                     l1768 021C                       l1848 039E                       l1856 0569  
                     l1698 060E                       l1794 0293                       l1786 0270  
                     l1778 0247                       l1858 056C                       l1796 02A9  
                     l1788 027B                       l1798 02AE                       ?_isr 0070  
                     u1000 006C                       u1001 006B                       u1010 0087  
                     u1011 0086                       u1100 0132                       u1020 00A5  
                     u1101 0131                       u1021 00A4                       u1030 00DF  
                     u1031 00DE                       u1200 019C                       u1120 0141  
                     u1121 0140                       u1210 01B9                       u1211 01B8  
                     u1115 0136                       u1220 01D6                       u1140 0155  
                     u1060 00F5                       u1221 01D5                       u1205 0197  
                     u1141 0154                       u1061 00F4                       u1045 00E1  
                     u1230 01ED                       u1150 015A                       u1231 01EC  
                     u1215 01B5                       u1151 0159                       u1135 0144  
                     u1055 00EA                       u1160 016E                       u1080 0111  
                     u1225 01D2                       u1161 016D                       u1081 0110  
                     u1170 0175                       u1090 012A                       u1171 0174  
                     u1091 0129                       u1075 00F8                       u1180 017B  
                     u1500 0420                       u1181 017A                       u1085 010D  
                     u1501 041F                       u1190 018D                       u1191 018C  
                     u1600 022C                       u1520 0434                       u1601 022B  
                     u1521 0433                       u1515 0425                       u1700 02AE  
                     u1620 024D                       u1540 044F                       u1701 02AD  
                     u1621 024C                       u1541 044E                       u1470 0689  
                     u1710 02B2                       u1471 0688                       u1711 02B1  
                     u1615 023F                       u1535 0436                       u1480 068F  
                     u1640 026F                       u1560 046D                       u1720 0569  
                     u1481 068E                       u1641 026E                       u1561 046C  
                     u1545 044B                       u1721 0568                       u1490 062A  
                     u1570 05B5                       u1491 0629                       u1635 0261  
                     u1555 045F                       u1660 027F                       u1580 0208  
                     u1661 027E                       u1581 0207                       u1670 0285  
                     u1590 020C                       u1671 0284                       u1655 0274  
                     u1591 020B                       u1575 05B0                       u1680 0289  
                     u1681 0288                       u1737 0593                       u1690 029E  
                     u1747 064B                       u1757 0661                       u1695 0299  
                     _PEIE 005E      __size_of_ADXL345_init 002D                       i1l97 04C4  
                     i1l98 04C4                       _TMR0 0001                       _TXIE 0464  
                     _TXIF 0064       ADXL345_readX@accel_x 0055       ADXL345_readY@accel_y 0055  
                     _main 055C                       btemp 007E                       start 000C  
          ___fldiv@new_exp 003C                      ??_isr 0070     __size_of_ADXL345_WRITE 0031  
         ?_I2C_Master_Init 002D           ?_I2C_Master_Read 0073           ?_I2C_Master_Wait 0070  
         ?_I2C_Master_Stop 0070              ___fltol@sign1 004D                      ?_main 0070  
          __end_of___fldiv 0200               _ADXL345_READ 0515            __end_of___fltol 0338  
                    _ANSEL 0188            __end_of___lldiv 0476                      _CONTX 005F  
   __size_of_ADXL345_readX 006B     __size_of_ADXL345_readY 006B                      _RCREG 001A  
                    _SPBRG 0099                      _PORTA 0005                      _PORTB 0006  
                    _PORTD 0008                      _PORTE 0009                      _TRISA 0085  
                    _TRISB 0086                      _TRISD 0088                      _SSPIE 0463  
                    _TRISE 0089                      _SSPIF 0063                      _TXREG 0019  
             _ADXL345_init 0639                      _eje_x 006A                      _eje_y 0068  
                    _eje_z 007A                      _tempx 0079                      _tempy 0067  
                    _tempz 0066                      _setup 04CB                      pclath 000A  
                    status 0003                      wtemp0 007E            __initialization 000F  
             __end_of_main 059E                     ??_main 005B          ?_I2C_Master_Start 0070  
        ?_I2C_Master_Write 0073         ??_I2C_Master_Start 0073         ??_I2C_Master_Write 0075  
                   ?_setup 0070                     _ANSELH 0189              _ADXL345_WRITE 05D8  
                   i1l1630 0485                     i1l1640 049B                     i1l1632 048B  
                   i1l1624 0476                     i1l1650 04B4                     i1l1642 049C  
                   i1l1634 0490                     i1l1626 047A                     i1l1652 04B7  
                   i1l1636 0493                     i1l1644 049F                     i1l1628 0484  
                   i1l1654 04BD                     i1l1646 04A4                     i1l1638 0499  
                   i1l1648 04AE                     i1l1656 04C2                     u140_20 0490  
                   u140_21 048F                     u141_20 0499                     u141_21 0498  
                   u142_20 04A4                     u142_21 04A3                     u143_20 04AE  
                   u143_21 04AD                     u144_20 04B4                     u144_21 04B3  
                   u145_20 04BD                     u145_21 04BC                     u138_20 047A  
                   u138_21 0479                     u139_20 048B                     u139_21 048A  
                   _SPBRGH 009A                     _SSPADD 0093                     _TRISC3 043B  
                   _TRISC4 043C                     _SSPCON 0014                     _SSPBUF 0013  
         __end_of___xxtofl 02BC              _ADXL345_readX 03A3              _ADXL345_readY 0338  
                ??___fldiv 0032                  ??___fltol 0048                  ??___lldiv 0073  
                   _prueba 0069                     _tx_var 005E                     saved_w 007E  
           ?_ADXL345_WRITE 0075               ___xxtofl@arg 0026               ___xxtofl@exp 0025  
             ___xxtofl@val 0073    __end_of__initialization 001F             ?_ADXL345_readX 004F  
           ?_ADXL345_readY 004F                 ___fltol@f1 0044             __pcstackCOMMON 0070  
            __end_of_setup 0515             _OPTION_REGbits 0081                    ??_setup 0031  
               __pbssBANK0 005E         __size_of_initUSART 001D                 __pmaintext 055C  
               __pintentry 0004                  ?___xxtofl 0073            ??_ADXL345_WRITE 0076  
                  _SSPCON2 0091                    _SSPSTAT 0094            ??_ADXL345_readX 0051  
          ??_ADXL345_readY 0051                    ___fldiv 0023                    ___fltol 02BC  
                  ___lldiv 040E                    _bandera 0078          __end_of_initUSART 0683  
                  __ptext1 04CB                    __ptext2 0666                    __ptext3 059E  
                  __ptext4 040E                    __ptext5 0639                    __ptext6 05D8  
                  __ptext7 0338                    __ptext8 03A3                    __ptext9 0200  
             __size_of_isr 0055                 ??___xxtofl 0020   __size_of_I2C_Master_Init 003A  
 __size_of_I2C_Master_Read 0030   __size_of_I2C_Master_Wait 000D   __size_of_I2C_Master_Stop 0009  
     end_of_initialization 001F  __size_of_I2C_Master_Start 0009  __size_of_I2C_Master_Write 000A  
          ___lldiv@divisor 0020            ___lldiv@counter 002C            ADXL345_READ@var 0026  
                _RCSTAbits 0018           I2C_Master_Init@c 002D           I2C_Master_Read@a 0073  
            ___xxtofl@sign 0024                  _TRISCbits 0087                ___fldiv@grs 003E  
              ___fldiv@rem 0037                  _TXSTAbits 0098        ADXL345_readX@data_x 0059  
      ADXL345_readY@data_y 0059                _BAUDCTLbits 0187        start_initialization 000F  
              __end_of_isr 04CB          ??_I2C_Master_Init 0074          ??_I2C_Master_Read 0075  
        ??_I2C_Master_Wait 0073          ??_I2C_Master_Stop 0073              ?_ADXL345_READ 0022  
                ___fldiv@a 002A                  ___fldiv@b 002E              ?_ADXL345_init 0070  
              __pbssCOMMON 0078                  ___latbits 0002              __pcstackBANK0 0020  
        __size_of___xxtofl 00BC                  __pnvBANK0 0069           _I2C_Master_Start 06A3  
         _I2C_Master_Write 0690                   ?___fldiv 002A                   ?___fltol 0044  
                 ?___lldiv 0020             ??_ADXL345_READ 0024             ??_ADXL345_init 0021  
                _initUSART 0666      __end_of_ADXL345_WRITE 0609             __size_of_setup 004A  
        interrupt_function 0004      __end_of_ADXL345_readX 040E      __end_of_ADXL345_readY 03A3  
                 _PIE1bits 008C                   _PIR1bits 000C         ADXL345_readX@acc_x 0057  
       ADXL345_readY@acc_y 0057                 ?_initUSART 0070        I2C_Master_Read@temp 0020  
         __size_of___fldiv 01DD           __size_of___fltol 007C           __size_of___lldiv 0068  
          _I2C_Master_Init 059E            _I2C_Master_Read 0609                   ___xxtofl 0200  
          _I2C_Master_Wait 0683            _I2C_Master_Stop 069A                   __ptext10 02BC  
                 __ptext11 0023                   __ptext12 0515                   __ptext13 0690  
                 __ptext14 069A                   __ptext15 06A3                   __ptext16 0609  
                 __ptext17 0683                   __ptext18 0476       __end_of_ADXL345_READ 055C  
            __size_of_main 0042       __end_of_ADXL345_init 0666          ADXL345_READ@leido 0027  
 __end_of_I2C_Master_Start 06AC   __end_of_I2C_Master_Write 069A                 _INTCONbits 000B  
              ??_initUSART 0073                   intlevel1 0000           ___lldiv@dividend 0024  
  __end_of_I2C_Master_Init 05D8    __end_of_I2C_Master_Read 0639    __end_of_I2C_Master_Wait 0690  
  __end_of_I2C_Master_Stop 06A3           ___lldiv@quotient 0028          I2C_Master_Write@d 0073  
              _SSPCON2bits 0091          ADXL345_WRITE@data 0075           ADXL345_WRITE@var 0020  
