

Microchip MPLAB XC8 Assembler V2.31 build 20201012212115 
                                                                                               Wed Mar 03 12:24:33 2021

Microchip MPLAB XC8 C Compiler v2.31 (Free license) build 20201012212115 Og1 
     1                           	processor	16F887
     2                           	pagewidth 120
     3                           	opt	flic
     4                           	psect	nvBANK0,global,class=BANK0,space=1,delta=1,noexec
     5                           	psect	cinit,global,class=CODE,merge=1,delta=2
     6                           	psect	bssCOMMON,global,class=COMMON,space=1,delta=1,noexec
     7                           	psect	bssBANK0,global,class=BANK0,space=1,delta=1,noexec
     8                           	psect	cstackCOMMON,global,class=COMMON,space=1,delta=1,noexec
     9                           	psect	cstackBANK0,global,class=BANK0,space=1,delta=1,noexec
    10                           	psect	maintext,global,class=CODE,split=1,delta=2
    11                           	psect	text1,local,class=CODE,merge=1,delta=2
    12                           	psect	text2,local,class=CODE,merge=1,delta=2
    13                           	psect	text3,local,class=CODE,merge=1,delta=2
    14                           	psect	text4,local,class=CODE,merge=1,delta=2,group=1
    15                           	psect	text5,local,class=CODE,merge=1,delta=2
    16                           	psect	text6,local,class=CODE,merge=1,delta=2
    17                           	psect	text7,local,class=CODE,merge=1,delta=2,group=1
    18                           	psect	text8,local,class=CODE,merge=1,delta=2
    19                           	psect	text9,local,class=CODE,merge=1,delta=2
    20                           	psect	text10,local,class=CODE,merge=1,delta=2
    21                           	psect	text11,local,class=CODE,merge=1,delta=2
    22                           	psect	text12,local,class=CODE,merge=1,delta=2
    23                           	psect	text13,local,class=CODE,merge=1,delta=2
    24                           	psect	text14,local,class=CODE,merge=1,delta=2
    25                           	psect	intentry,global,class=CODE,delta=2
    26                           	psect	config,global,abs,ovrld,class=CONFIG,space=4,delta=2,noexec
    27                           	dabs	1,0x7E,2
    28  0000                     
    29                           ; Version 2.20
    30                           ; Generated 12/02/2020 GMT
    31                           ; 
    32                           ; Copyright © 2020, Microchip Technology Inc. and its subsidiaries ("Microchip")
    33                           ; All rights reserved.
    34                           ; 
    35                           ; This software is developed by Microchip Technology Inc. and its subsidiaries ("Microch
      +                          ip").
    36                           ; 
    37                           ; Redistribution and use in source and binary forms, with or without modification, are
    38                           ; permitted provided that the following conditions are met:
    39                           ; 
    40                           ;     1. Redistributions of source code must retain the above copyright notice, this lis
      +                          t of
    41                           ;        conditions and the following disclaimer.
    42                           ; 
    43                           ;     2. Redistributions in binary form must reproduce the above copyright notice, this 
      +                          list
    44                           ;        of conditions and the following disclaimer in the documentation and/or other
    45                           ;        materials provided with the distribution.
    46                           ; 
    47                           ;     3. Microchip's name may not be used to endorse or promote products derived from th
      +                          is
    48                           ;        software without specific prior written permission.
    49                           ; 
    50                           ; THIS SOFTWARE IS PROVIDED BY MICROCHIP "AS IS" AND ANY EXPRESS OR IMPLIED WARRANTIES,
    51                           ; INCLUDING, BUT NOT LIMITED TO, THE IMPLIED WARRANTIES OF MERCHANTABILITY AND FITNESS F
      +                          OR
    52                           ; PURPOSE ARE DISCLAIMED.  IN NO EVENT SHALL MICROCHIP BE LIABLE FOR ANY DIRECT, INDIREC
      +                          T,
    53                           ; INCIDENTAL, SPECIAL, EXEMPLARY, OR CONSEQUENTIAL DAMAGES (INCLUDING BUT NOT LIMITED TO
    54                           ; PROCUREMENT OF SUBSTITUTE GOODS OR SERVICES; LOSS OF USE, DATA OR PROFITS; OR BUSINESS
    55                           ; INTERRUPTION) HOWSOEVER CAUSED AND ON ANY THEORY OF LIABILITY, WHETHER IN CONTRACT, ST
      +                          RICT
    56                           ; LIABILITY, OR TORT (INCLUDING NEGLIGENCE OR OTHERWISE) ARISING IN ANY WAY OUT OF THE U
      +                          SE OF
    57                           ; THIS SOFTWARE, EVEN IF ADVISED OF THE POSSIBILITY OF SUCH DAMAGE.
    58                           ; 
    59                           ; 
    60                           ; Code-generator required, PIC16F887 Definitions
    61                           ; 
    62                           ; SFR Addresses
    63  0000                     	;# 
    64  0001                     	;# 
    65  0002                     	;# 
    66  0003                     	;# 
    67  0004                     	;# 
    68  0005                     	;# 
    69  0006                     	;# 
    70  0007                     	;# 
    71  0008                     	;# 
    72  0009                     	;# 
    73  000A                     	;# 
    74  000B                     	;# 
    75  000C                     	;# 
    76  000D                     	;# 
    77  000E                     	;# 
    78  000E                     	;# 
    79  000F                     	;# 
    80  0010                     	;# 
    81  0011                     	;# 
    82  0012                     	;# 
    83  0013                     	;# 
    84  0014                     	;# 
    85  0015                     	;# 
    86  0015                     	;# 
    87  0016                     	;# 
    88  0017                     	;# 
    89  0018                     	;# 
    90  0019                     	;# 
    91  001A                     	;# 
    92  001B                     	;# 
    93  001B                     	;# 
    94  001C                     	;# 
    95  001D                     	;# 
    96  001E                     	;# 
    97  001F                     	;# 
    98  0081                     	;# 
    99  0085                     	;# 
   100  0086                     	;# 
   101  0087                     	;# 
   102  0088                     	;# 
   103  0089                     	;# 
   104  008C                     	;# 
   105  008D                     	;# 
   106  008E                     	;# 
   107  008F                     	;# 
   108  0090                     	;# 
   109  0091                     	;# 
   110  0092                     	;# 
   111  0093                     	;# 
   112  0093                     	;# 
   113  0093                     	;# 
   114  0094                     	;# 
   115  0095                     	;# 
   116  0096                     	;# 
   117  0097                     	;# 
   118  0098                     	;# 
   119  0099                     	;# 
   120  009A                     	;# 
   121  009B                     	;# 
   122  009C                     	;# 
   123  009D                     	;# 
   124  009E                     	;# 
   125  009F                     	;# 
   126  0105                     	;# 
   127  0107                     	;# 
   128  0108                     	;# 
   129  0109                     	;# 
   130  010C                     	;# 
   131  010C                     	;# 
   132  010D                     	;# 
   133  010E                     	;# 
   134  010F                     	;# 
   135  0185                     	;# 
   136  0187                     	;# 
   137  0188                     	;# 
   138  0189                     	;# 
   139  018C                     	;# 
   140  018D                     	;# 
   141  0000                     	;# 
   142  0001                     	;# 
   143  0002                     	;# 
   144  0003                     	;# 
   145  0004                     	;# 
   146  0005                     	;# 
   147  0006                     	;# 
   148  0007                     	;# 
   149  0008                     	;# 
   150  0009                     	;# 
   151  000A                     	;# 
   152  000B                     	;# 
   153  000C                     	;# 
   154  000D                     	;# 
   155  000E                     	;# 
   156  000E                     	;# 
   157  000F                     	;# 
   158  0010                     	;# 
   159  0011                     	;# 
   160  0012                     	;# 
   161  0013                     	;# 
   162  0014                     	;# 
   163  0015                     	;# 
   164  0015                     	;# 
   165  0016                     	;# 
   166  0017                     	;# 
   167  0018                     	;# 
   168  0019                     	;# 
   169  001A                     	;# 
   170  001B                     	;# 
   171  001B                     	;# 
   172  001C                     	;# 
   173  001D                     	;# 
   174  001E                     	;# 
   175  001F                     	;# 
   176  0081                     	;# 
   177  0085                     	;# 
   178  0086                     	;# 
   179  0087                     	;# 
   180  0088                     	;# 
   181  0089                     	;# 
   182  008C                     	;# 
   183  008D                     	;# 
   184  008E                     	;# 
   185  008F                     	;# 
   186  0090                     	;# 
   187  0091                     	;# 
   188  0092                     	;# 
   189  0093                     	;# 
   190  0093                     	;# 
   191  0093                     	;# 
   192  0094                     	;# 
   193  0095                     	;# 
   194  0096                     	;# 
   195  0097                     	;# 
   196  0098                     	;# 
   197  0099                     	;# 
   198  009A                     	;# 
   199  009B                     	;# 
   200  009C                     	;# 
   201  009D                     	;# 
   202  009E                     	;# 
   203  009F                     	;# 
   204  0105                     	;# 
   205  0107                     	;# 
   206  0108                     	;# 
   207  0109                     	;# 
   208  010C                     	;# 
   209  010C                     	;# 
   210  010D                     	;# 
   211  010E                     	;# 
   212  010F                     	;# 
   213  0185                     	;# 
   214  0187                     	;# 
   215  0188                     	;# 
   216  0189                     	;# 
   217  018C                     	;# 
   218  018D                     	;# 
   219  0000                     	;# 
   220  0001                     	;# 
   221  0002                     	;# 
   222  0003                     	;# 
   223  0004                     	;# 
   224  0005                     	;# 
   225  0006                     	;# 
   226  0007                     	;# 
   227  0008                     	;# 
   228  0009                     	;# 
   229  000A                     	;# 
   230  000B                     	;# 
   231  000C                     	;# 
   232  000D                     	;# 
   233  000E                     	;# 
   234  000E                     	;# 
   235  000F                     	;# 
   236  0010                     	;# 
   237  0011                     	;# 
   238  0012                     	;# 
   239  0013                     	;# 
   240  0014                     	;# 
   241  0015                     	;# 
   242  0015                     	;# 
   243  0016                     	;# 
   244  0017                     	;# 
   245  0018                     	;# 
   246  0019                     	;# 
   247  001A                     	;# 
   248  001B                     	;# 
   249  001B                     	;# 
   250  001C                     	;# 
   251  001D                     	;# 
   252  001E                     	;# 
   253  001F                     	;# 
   254  0081                     	;# 
   255  0085                     	;# 
   256  0086                     	;# 
   257  0087                     	;# 
   258  0088                     	;# 
   259  0089                     	;# 
   260  008C                     	;# 
   261  008D                     	;# 
   262  008E                     	;# 
   263  008F                     	;# 
   264  0090                     	;# 
   265  0091                     	;# 
   266  0092                     	;# 
   267  0093                     	;# 
   268  0093                     	;# 
   269  0093                     	;# 
   270  0094                     	;# 
   271  0095                     	;# 
   272  0096                     	;# 
   273  0097                     	;# 
   274  0098                     	;# 
   275  0099                     	;# 
   276  009A                     	;# 
   277  009B                     	;# 
   278  009C                     	;# 
   279  009D                     	;# 
   280  009E                     	;# 
   281  009F                     	;# 
   282  0105                     	;# 
   283  0107                     	;# 
   284  0108                     	;# 
   285  0109                     	;# 
   286  010C                     	;# 
   287  010C                     	;# 
   288  010D                     	;# 
   289  010E                     	;# 
   290  010F                     	;# 
   291  0185                     	;# 
   292  0187                     	;# 
   293  0188                     	;# 
   294  0189                     	;# 
   295  018C                     	;# 
   296  018D                     	;# 
   297  0000                     	;# 
   298  0001                     	;# 
   299  0002                     	;# 
   300  0003                     	;# 
   301  0004                     	;# 
   302  0005                     	;# 
   303  0006                     	;# 
   304  0007                     	;# 
   305  0008                     	;# 
   306  0009                     	;# 
   307  000A                     	;# 
   308  000B                     	;# 
   309  000C                     	;# 
   310  000D                     	;# 
   311  000E                     	;# 
   312  000E                     	;# 
   313  000F                     	;# 
   314  0010                     	;# 
   315  0011                     	;# 
   316  0012                     	;# 
   317  0013                     	;# 
   318  0014                     	;# 
   319  0015                     	;# 
   320  0015                     	;# 
   321  0016                     	;# 
   322  0017                     	;# 
   323  0018                     	;# 
   324  0019                     	;# 
   325  001A                     	;# 
   326  001B                     	;# 
   327  001B                     	;# 
   328  001C                     	;# 
   329  001D                     	;# 
   330  001E                     	;# 
   331  001F                     	;# 
   332  0081                     	;# 
   333  0085                     	;# 
   334  0086                     	;# 
   335  0087                     	;# 
   336  0088                     	;# 
   337  0089                     	;# 
   338  008C                     	;# 
   339  008D                     	;# 
   340  008E                     	;# 
   341  008F                     	;# 
   342  0090                     	;# 
   343  0091                     	;# 
   344  0092                     	;# 
   345  0093                     	;# 
   346  0093                     	;# 
   347  0093                     	;# 
   348  0094                     	;# 
   349  0095                     	;# 
   350  0096                     	;# 
   351  0097                     	;# 
   352  0098                     	;# 
   353  0099                     	;# 
   354  009A                     	;# 
   355  009B                     	;# 
   356  009C                     	;# 
   357  009D                     	;# 
   358  009E                     	;# 
   359  009F                     	;# 
   360  0105                     	;# 
   361  0107                     	;# 
   362  0108                     	;# 
   363  0109                     	;# 
   364  010C                     	;# 
   365  010C                     	;# 
   366  010D                     	;# 
   367  010E                     	;# 
   368  010F                     	;# 
   369  0185                     	;# 
   370  0187                     	;# 
   371  0188                     	;# 
   372  0189                     	;# 
   373  018C                     	;# 
   374  018D                     	;# 
   375                           
   376                           	psect	nvBANK0
   377  003E                     __pnvBANK0:
   378  003E                     _prueba:
   379  003E                     	ds	1
   380  003F                     _eje_x:
   381  003F                     	ds	1
   382  0018                     _RCSTAbits	set	24
   383  0013                     _SSPBUF	set	19
   384  0014                     _SSPCON	set	20
   385  0001                     _TMR0	set	1
   386  0008                     _PORTD	set	8
   387  0005                     _PORTA	set	5
   388  0006                     _PORTB	set	6
   389  001A                     _RCREG	set	26
   390  0009                     _PORTE	set	9
   391  000C                     _PIR1bits	set	12
   392  0019                     _TXREG	set	25
   393  000B                     _INTCONbits	set	11
   394  0063                     _SSPIF	set	99
   395  005E                     _PEIE	set	94
   396  005F                     _GIE	set	95
   397  0064                     _TXIF	set	100
   398  008C                     _PIE1bits	set	140
   399  009A                     _SPBRGH	set	154
   400  0098                     _TXSTAbits	set	152
   401  0099                     _SPBRG	set	153
   402  0091                     _SSPCON2bits	set	145
   403  0087                     _TRISCbits	set	135
   404  0094                     _SSPSTAT	set	148
   405  0093                     _SSPADD	set	147
   406  0091                     _SSPCON2	set	145
   407  0081                     _OPTION_REGbits	set	129
   408  0089                     _TRISE	set	137
   409  0088                     _TRISD	set	136
   410  0086                     _TRISB	set	134
   411  0085                     _TRISA	set	133
   412  0463                     _SSPIE	set	1123
   413  043C                     _TRISC4	set	1084
   414  043B                     _TRISC3	set	1083
   415  0464                     _TXIE	set	1124
   416  0187                     _BAUDCTLbits	set	391
   417  0189                     _ANSELH	set	393
   418  0188                     _ANSEL	set	392
   419                           
   420                           	psect	cinit
   421  000F                     start_initialization:	
   422                           ; #config settings
   423                           
   424  000F                     __initialization:
   425                           
   426                           ; Clear objects allocated to COMMON
   427  000F  01FA               	clrf	__pbssCOMMON& (0+127)
   428                           
   429                           ; Clear objects allocated to BANK0
   430  0010  1283               	bcf	3,5	;RP0=0, select bank0
   431  0011  1303               	bcf	3,6	;RP1=0, select bank0
   432  0012  01B4               	clrf	__pbssBANK0& (0+127)
   433  0013  01B5               	clrf	(__pbssBANK0+1)& (0+127)
   434  0014  01B6               	clrf	(__pbssBANK0+2)& (0+127)
   435  0015  01B7               	clrf	(__pbssBANK0+3)& (0+127)
   436  0016  01B8               	clrf	(__pbssBANK0+4)& (0+127)
   437  0017  01B9               	clrf	(__pbssBANK0+5)& (0+127)
   438  0018  01BA               	clrf	(__pbssBANK0+6)& (0+127)
   439  0019  01BB               	clrf	(__pbssBANK0+7)& (0+127)
   440  001A  01BC               	clrf	(__pbssBANK0+8)& (0+127)
   441  001B  01BD               	clrf	(__pbssBANK0+9)& (0+127)
   442  001C                     end_of_initialization:	
   443                           ;End of C runtime variable initialization code
   444                           
   445  001C                     __end_of__initialization:
   446  001C  0183               	clrf	3
   447  001D  120A  118A  2820   	ljmp	_main	;jump to C main() function
   448                           
   449                           	psect	bssCOMMON
   450  007A                     __pbssCOMMON:
   451  007A                     _bandera:
   452  007A                     	ds	1
   453                           
   454                           	psect	bssBANK0
   455  0034                     __pbssBANK0:
   456  0034                     _tx_var:
   457  0034                     	ds	1
   458  0035                     _CONTX:
   459  0035                     	ds	1
   460  0036                     _zL:
   461  0036                     	ds	1
   462  0037                     _zH:
   463  0037                     	ds	1
   464  0038                     _yL:
   465  0038                     	ds	1
   466  0039                     _yH:
   467  0039                     	ds	1
   468  003A                     _xL:
   469  003A                     	ds	1
   470  003B                     _xH:
   471  003B                     	ds	1
   472  003C                     _eje_z:
   473  003C                     	ds	1
   474  003D                     _eje_y:
   475  003D                     	ds	1
   476                           
   477                           	psect	cstackCOMMON
   478  0070                     __pcstackCOMMON:
   479  0070                     ?_setup:
   480  0070                     ?_initUSART:	
   481                           ; 1 bytes @ 0x0
   482                           
   483  0070                     ?_ADXL345_init:	
   484                           ; 1 bytes @ 0x0
   485                           
   486  0070                     ?_isr:	
   487                           ; 1 bytes @ 0x0
   488                           
   489  0070                     ??_isr:	
   490                           ; 1 bytes @ 0x0
   491                           
   492  0070                     ?_main:	
   493                           ; 1 bytes @ 0x0
   494                           
   495  0070                     ?_I2C_Master_Wait:	
   496                           ; 1 bytes @ 0x0
   497                           
   498  0070                     ?_I2C_Master_Start:	
   499                           ; 1 bytes @ 0x0
   500                           
   501  0070                     ?_I2C_Master_Stop:	
   502                           ; 1 bytes @ 0x0
   503                           
   504                           
   505                           ; 1 bytes @ 0x0
   506  0070                     	ds	3
   507  0073                     ??_initUSART:
   508  0073                     ??_I2C_Master_Wait:	
   509                           ; 1 bytes @ 0x3
   510                           
   511  0073                     ??_I2C_Master_Start:	
   512                           ; 1 bytes @ 0x3
   513                           
   514  0073                     ??_I2C_Master_Stop:	
   515                           ; 1 bytes @ 0x3
   516                           
   517  0073                     ?_I2C_Master_Write:	
   518                           ; 1 bytes @ 0x3
   519                           
   520  0073                     ??___lldiv:	
   521                           ; 1 bytes @ 0x3
   522                           
   523  0073                     ?_I2C_Master_Read:	
   524                           ; 1 bytes @ 0x3
   525                           
   526  0073                     ?___awdiv:	
   527                           ; 2 bytes @ 0x3
   528                           
   529  0073                     I2C_Master_Write@d:	
   530                           ; 2 bytes @ 0x3
   531                           
   532  0073                     I2C_Master_Read@a:	
   533                           ; 2 bytes @ 0x3
   534                           
   535  0073                     ___awdiv@divisor:	
   536                           ; 2 bytes @ 0x3
   537                           
   538                           
   539                           ; 2 bytes @ 0x3
   540  0073                     	ds	1
   541  0074                     ___lldiv@quotient:
   542                           
   543                           ; 4 bytes @ 0x4
   544  0074                     	ds	1
   545  0075                     ?_ADXL345_WRITE:
   546  0075                     ??_I2C_Master_Write:	
   547                           ; 1 bytes @ 0x5
   548                           
   549  0075                     ??_I2C_Master_Read:	
   550                           ; 1 bytes @ 0x5
   551                           
   552  0075                     ADXL345_WRITE@data:	
   553                           ; 1 bytes @ 0x5
   554                           
   555  0075                     ___awdiv@dividend:	
   556                           ; 1 bytes @ 0x5
   557                           
   558                           
   559                           ; 2 bytes @ 0x5
   560  0075                     	ds	1
   561  0076                     ??_ADXL345_WRITE:
   562                           
   563                           ; 1 bytes @ 0x6
   564  0076                     	ds	1
   565  0077                     ??___awdiv:
   566  0077                     I2C_Master_Read@temp:	
   567                           ; 1 bytes @ 0x7
   568                           
   569                           
   570                           ; 2 bytes @ 0x7
   571  0077                     	ds	1
   572  0078                     ADXL345_WRITE@var:
   573  0078                     ___lldiv@counter:	
   574                           ; 1 bytes @ 0x8
   575                           
   576                           
   577                           ; 1 bytes @ 0x8
   578  0078                     	ds	1
   579  0079                     ??_setup:
   580                           
   581                           ; 1 bytes @ 0x9
   582  0079                     	ds	1
   583                           
   584                           	psect	cstackBANK0
   585  0020                     __pcstackBANK0:
   586  0020                     ??_ADXL345_init:
   587  0020                     ?_ADXL345_READ:	
   588                           ; 1 bytes @ 0x0
   589                           
   590  0020                     ?___lldiv:	
   591                           ; 2 bytes @ 0x0
   592                           
   593  0020                     ___awdiv@counter:	
   594                           ; 4 bytes @ 0x0
   595                           
   596  0020                     ___lldiv@divisor:	
   597                           ; 1 bytes @ 0x0
   598                           
   599                           
   600                           ; 4 bytes @ 0x0
   601  0020                     	ds	1
   602  0021                     ___awdiv@sign:
   603                           
   604                           ; 1 bytes @ 0x1
   605  0021                     	ds	1
   606  0022                     ??_ADXL345_READ:
   607  0022                     ___awdiv@quotient:	
   608                           ; 1 bytes @ 0x2
   609                           
   610                           
   611                           ; 2 bytes @ 0x2
   612  0022                     	ds	2
   613  0024                     ADXL345_READ@var:
   614  0024                     ___lldiv@dividend:	
   615                           ; 1 bytes @ 0x4
   616                           
   617                           
   618                           ; 4 bytes @ 0x4
   619  0024                     	ds	1
   620  0025                     ADXL345_READ@leido:
   621                           
   622                           ; 2 bytes @ 0x5
   623  0025                     	ds	3
   624  0028                     ?_I2C_Master_Init:
   625  0028                     I2C_Master_Init@c:	
   626                           ; 1 bytes @ 0x8
   627                           
   628                           
   629                           ; 4 bytes @ 0x8
   630  0028                     	ds	4
   631  002C                     ??_I2C_Master_Init:
   632                           
   633                           ; 1 bytes @ 0xC
   634  002C                     	ds	4
   635  0030                     ??_main:
   636                           
   637                           ; 1 bytes @ 0x10
   638  0030                     	ds	4
   639                           
   640                           	psect	maintext
   641  0020                     __pmaintext:	
   642 ;;
   643 ;;Main: autosize = 0, tempsize = 4, incstack = 0, save=0
   644 ;;
   645 ;; *************** function _main *****************
   646 ;; Defined at:
   647 ;;		line 96 in file "C:/Users/danie/OneDrive/Desktop/DIGITAL2/proyecto2/master.X/main_pic.c"
   648 ;; Parameters:    Size  Location     Type
   649 ;;		None
   650 ;; Auto vars:     Size  Location     Type
   651 ;;		None
   652 ;; Return value:  Size  Location     Type
   653 ;;                  1    wreg      void 
   654 ;; Registers used:
   655 ;;		wreg, status,2, status,0, pclath, cstack
   656 ;; Tracked objects:
   657 ;;		On entry : B00/0
   658 ;;		On exit  : 0/0
   659 ;;		Unchanged: 0/0
   660 ;; Data sizes:     COMMON   BANK0   BANK1   BANK3   BANK2
   661 ;;      Params:         0       0       0       0       0
   662 ;;      Locals:         0       0       0       0       0
   663 ;;      Temps:          0       4       0       0       0
   664 ;;      Totals:         0       4       0       0       0
   665 ;;Total ram usage:        4 bytes
   666 ;; Hardware stack levels required when called:    6
   667 ;; This function calls:
   668 ;;		_ADXL345_READ
   669 ;;		___awdiv
   670 ;;		_setup
   671 ;; This function is called by:
   672 ;;		Startup code after reset
   673 ;; This function uses a non-reentrant model
   674 ;;
   675                           
   676                           
   677                           ;psect for function _main
   678  0020                     _main:
   679  0020                     l1342:	
   680                           ;incstack = 0
   681                           ; Regs used in _main: [wreg+status,2+status,0+pclath+cstack]
   682                           
   683                           
   684                           ;C:/Users/danie/OneDrive/Desktop/DIGITAL2/proyecto2/master.X/main_pic.c: 97:     setup()
      +                          ;
   685  0020  120A  118A  2215  120A  118A  	fcall	_setup
   686  0025                     l1344:
   687                           
   688                           ;C:/Users/danie/OneDrive/Desktop/DIGITAL2/proyecto2/master.X/main_pic.c: 99:         if 
      +                          (CONTX > 15){
   689  0025  3010               	movlw	16
   690  0026  1283               	bcf	3,5	;RP0=0, select bank0
   691  0027  1303               	bcf	3,6	;RP1=0, select bank0
   692  0028  0235               	subwf	_CONTX,w
   693  0029  1C03               	skipc
   694  002A  282C               	goto	u771
   695  002B  282D               	goto	u770
   696  002C                     u771:
   697  002C  2830               	goto	l1348
   698  002D                     u770:
   699  002D                     l1346:
   700                           
   701                           ;C:/Users/danie/OneDrive/Desktop/DIGITAL2/proyecto2/master.X/main_pic.c: 100:           
      +                            TXIE = 1;
   702  002D  1683               	bsf	3,5	;RP0=1, select bank1
   703  002E  1303               	bcf	3,6	;RP1=0, select bank1
   704  002F  160C               	bsf	12,4	;volatile
   705  0030                     l1348:
   706                           
   707                           ;C:/Users/danie/OneDrive/Desktop/DIGITAL2/proyecto2/master.X/main_pic.c: 102:         xL
      +                           = ADXL345_READ(0x32);
   708  0030  3032               	movlw	50
   709  0031  120A  118A  225F  120A  118A  	fcall	_ADXL345_READ
   710  0036  1283               	bcf	3,5	;RP0=0, select bank0
   711  0037  1303               	bcf	3,6	;RP1=0, select bank0
   712  0038  0820               	movf	?_ADXL345_READ,w
   713  0039  00B0               	movwf	??_main
   714  003A  0830               	movf	??_main,w
   715  003B  00BA               	movwf	_xL
   716                           
   717                           ;C:/Users/danie/OneDrive/Desktop/DIGITAL2/proyecto2/master.X/main_pic.c: 103:         xH
      +                           = ADXL345_READ(0x33);
   718  003C  3033               	movlw	51
   719  003D  120A  118A  225F  120A  118A  	fcall	_ADXL345_READ
   720  0042  1283               	bcf	3,5	;RP0=0, select bank0
   721  0043  1303               	bcf	3,6	;RP1=0, select bank0
   722  0044  0820               	movf	?_ADXL345_READ,w
   723  0045  00B0               	movwf	??_main
   724  0046  0830               	movf	??_main,w
   725  0047  00BB               	movwf	_xH
   726                           
   727                           ;C:/Users/danie/OneDrive/Desktop/DIGITAL2/proyecto2/master.X/main_pic.c: 104:         yL
      +                           = ADXL345_READ(0x34);
   728  0048  3034               	movlw	52
   729  0049  120A  118A  225F  120A  118A  	fcall	_ADXL345_READ
   730  004E  1283               	bcf	3,5	;RP0=0, select bank0
   731  004F  1303               	bcf	3,6	;RP1=0, select bank0
   732  0050  0820               	movf	?_ADXL345_READ,w
   733  0051  00B0               	movwf	??_main
   734  0052  0830               	movf	??_main,w
   735  0053  00B8               	movwf	_yL
   736                           
   737                           ;C:/Users/danie/OneDrive/Desktop/DIGITAL2/proyecto2/master.X/main_pic.c: 105:         yH
      +                           = ADXL345_READ(0x35);
   738  0054  3035               	movlw	53
   739  0055  120A  118A  225F  120A  118A  	fcall	_ADXL345_READ
   740  005A  1283               	bcf	3,5	;RP0=0, select bank0
   741  005B  1303               	bcf	3,6	;RP1=0, select bank0
   742  005C  0820               	movf	?_ADXL345_READ,w
   743  005D  00B0               	movwf	??_main
   744  005E  0830               	movf	??_main,w
   745  005F  00B9               	movwf	_yH
   746                           
   747                           ;C:/Users/danie/OneDrive/Desktop/DIGITAL2/proyecto2/master.X/main_pic.c: 106:         zL
      +                           = ADXL345_READ(0x36);
   748  0060  3036               	movlw	54
   749  0061  120A  118A  225F  120A  118A  	fcall	_ADXL345_READ
   750  0066  1283               	bcf	3,5	;RP0=0, select bank0
   751  0067  1303               	bcf	3,6	;RP1=0, select bank0
   752  0068  0820               	movf	?_ADXL345_READ,w
   753  0069  00B0               	movwf	??_main
   754  006A  0830               	movf	??_main,w
   755  006B  00B6               	movwf	_zL
   756                           
   757                           ;C:/Users/danie/OneDrive/Desktop/DIGITAL2/proyecto2/master.X/main_pic.c: 107:         zH
      +                           = ADXL345_READ(0x37);
   758  006C  3037               	movlw	55
   759  006D  120A  118A  225F  120A  118A  	fcall	_ADXL345_READ
   760  0072  1283               	bcf	3,5	;RP0=0, select bank0
   761  0073  1303               	bcf	3,6	;RP1=0, select bank0
   762  0074  0820               	movf	?_ADXL345_READ,w
   763  0075  00B0               	movwf	??_main
   764  0076  0830               	movf	??_main,w
   765  0077  00B7               	movwf	_zH
   766                           
   767                           ;C:/Users/danie/OneDrive/Desktop/DIGITAL2/proyecto2/master.X/main_pic.c: 108:         ej
      +                          e_x = (xH * 32) + (xL / 4);
   768  0078  083B               	movf	_xH,w
   769  0079  00B0               	movwf	??_main
   770  007A  3005               	movlw	5
   771  007B                     u785:
   772  007B  1003               	clrc
   773  007C  0DB0               	rlf	??_main,f
   774  007D  3EFF               	addlw	-1
   775  007E  1D03               	skipz
   776  007F  287B               	goto	u785
   777  0080  3004               	movlw	4
   778  0081  00F3               	movwf	___awdiv@divisor
   779  0082  3000               	movlw	0
   780  0083  00F4               	movwf	___awdiv@divisor+1
   781  0084  083A               	movf	_xL,w
   782  0085  00B1               	movwf	??_main+1
   783  0086  01B2               	clrf	??_main+2
   784  0087  0831               	movf	??_main+1,w
   785  0088  00F5               	movwf	___awdiv@dividend
   786  0089  0832               	movf	??_main+2,w
   787  008A  00F6               	movwf	___awdiv@dividend+1
   788  008B  120A  118A  20EA  120A  118A  	fcall	___awdiv
   789  0090  0873               	movf	?___awdiv,w
   790  0091  1283               	bcf	3,5	;RP0=0, select bank0
   791  0092  1303               	bcf	3,6	;RP1=0, select bank0
   792  0093  0730               	addwf	??_main,w
   793  0094  00B3               	movwf	??_main+3
   794  0095  0833               	movf	??_main+3,w
   795  0096  00BF               	movwf	_eje_x
   796                           
   797                           ;C:/Users/danie/OneDrive/Desktop/DIGITAL2/proyecto2/master.X/main_pic.c: 109:         ej
      +                          e_y = (yH * 32) + (yL / 4);
   798  0097  0839               	movf	_yH,w
   799  0098  00B0               	movwf	??_main
   800  0099  3005               	movlw	5
   801  009A                     u795:
   802  009A  1003               	clrc
   803  009B  0DB0               	rlf	??_main,f
   804  009C  3EFF               	addlw	-1
   805  009D  1D03               	skipz
   806  009E  289A               	goto	u795
   807  009F  3004               	movlw	4
   808  00A0  00F3               	movwf	___awdiv@divisor
   809  00A1  3000               	movlw	0
   810  00A2  00F4               	movwf	___awdiv@divisor+1
   811  00A3  0838               	movf	_yL,w
   812  00A4  00B1               	movwf	??_main+1
   813  00A5  01B2               	clrf	??_main+2
   814  00A6  0831               	movf	??_main+1,w
   815  00A7  00F5               	movwf	___awdiv@dividend
   816  00A8  0832               	movf	??_main+2,w
   817  00A9  00F6               	movwf	___awdiv@dividend+1
   818  00AA  120A  118A  20EA  120A  118A  	fcall	___awdiv
   819  00AF  0873               	movf	?___awdiv,w
   820  00B0  1283               	bcf	3,5	;RP0=0, select bank0
   821  00B1  1303               	bcf	3,6	;RP1=0, select bank0
   822  00B2  0730               	addwf	??_main,w
   823  00B3  00B3               	movwf	??_main+3
   824  00B4  0833               	movf	??_main+3,w
   825  00B5  00BD               	movwf	_eje_y
   826                           
   827                           ;C:/Users/danie/OneDrive/Desktop/DIGITAL2/proyecto2/master.X/main_pic.c: 110:         ej
      +                          e_z = (zH * 32) + (zL / 4);
   828  00B6  0837               	movf	_zH,w
   829  00B7  00B0               	movwf	??_main
   830  00B8  3005               	movlw	5
   831  00B9                     u805:
   832  00B9  1003               	clrc
   833  00BA  0DB0               	rlf	??_main,f
   834  00BB  3EFF               	addlw	-1
   835  00BC  1D03               	skipz
   836  00BD  28B9               	goto	u805
   837  00BE  3004               	movlw	4
   838  00BF  00F3               	movwf	___awdiv@divisor
   839  00C0  3000               	movlw	0
   840  00C1  00F4               	movwf	___awdiv@divisor+1
   841  00C2  0836               	movf	_zL,w
   842  00C3  00B1               	movwf	??_main+1
   843  00C4  01B2               	clrf	??_main+2
   844  00C5  0831               	movf	??_main+1,w
   845  00C6  00F5               	movwf	___awdiv@dividend
   846  00C7  0832               	movf	??_main+2,w
   847  00C8  00F6               	movwf	___awdiv@dividend+1
   848  00C9  120A  118A  20EA  120A  118A  	fcall	___awdiv
   849  00CE  0873               	movf	?___awdiv,w
   850  00CF  1283               	bcf	3,5	;RP0=0, select bank0
   851  00D0  1303               	bcf	3,6	;RP1=0, select bank0
   852  00D1  0730               	addwf	??_main,w
   853  00D2  00B3               	movwf	??_main+3
   854  00D3  0833               	movf	??_main+3,w
   855  00D4  00BC               	movwf	_eje_z
   856  00D5                     l1350:
   857                           
   858                           ;C:/Users/danie/OneDrive/Desktop/DIGITAL2/proyecto2/master.X/main_pic.c: 112:         PO
      +                          RTB = eje_x;
   859  00D5  083F               	movf	_eje_x,w
   860  00D6  0086               	movwf	6	;volatile
   861  00D7                     l1352:
   862                           
   863                           ;C:/Users/danie/OneDrive/Desktop/DIGITAL2/proyecto2/master.X/main_pic.c: 113:         _d
      +                          elay((unsigned long)((200)*(4000000/4000.0)));
   864  00D7  3002               	movlw	2
   865  00D8  1283               	bcf	3,5	;RP0=0, select bank0
   866  00D9  1303               	bcf	3,6	;RP1=0, select bank0
   867  00DA  00B2               	movwf	??_main+2
   868  00DB  3004               	movlw	4
   869  00DC  00B1               	movwf	??_main+1
   870  00DD  30B9               	movlw	185
   871  00DE  00B0               	movwf	??_main
   872  00DF                     u817:
   873  00DF  0BB0               	decfsz	??_main,f
   874  00E0  28DF               	goto	u817
   875  00E1  0BB1               	decfsz	??_main+1,f
   876  00E2  28DF               	goto	u817
   877  00E3  0BB2               	decfsz	??_main+2,f
   878  00E4  28DF               	goto	u817
   879  00E5  28E6               	nop2
   880  00E6  2825               	goto	l1344
   881  00E7  120A  118A  280C   	ljmp	start
   882  00EA                     __end_of_main:
   883                           
   884                           	psect	text1
   885  0215                     __ptext1:	
   886 ;; *************** function _setup *****************
   887 ;; Defined at:
   888 ;;		line 121 in file "C:/Users/danie/OneDrive/Desktop/DIGITAL2/proyecto2/master.X/main_pic.c"
   889 ;; Parameters:    Size  Location     Type
   890 ;;		None
   891 ;; Auto vars:     Size  Location     Type
   892 ;;		None
   893 ;; Return value:  Size  Location     Type
   894 ;;                  1    wreg      void 
   895 ;; Registers used:
   896 ;;		wreg, status,2, status,0, pclath, cstack
   897 ;; Tracked objects:
   898 ;;		On entry : 0/0
   899 ;;		On exit  : 0/0
   900 ;;		Unchanged: 0/0
   901 ;; Data sizes:     COMMON   BANK0   BANK1   BANK3   BANK2
   902 ;;      Params:         0       0       0       0       0
   903 ;;      Locals:         0       0       0       0       0
   904 ;;      Temps:          1       0       0       0       0
   905 ;;      Totals:         1       0       0       0       0
   906 ;;Total ram usage:        1 bytes
   907 ;; Hardware stack levels used:    1
   908 ;; Hardware stack levels required when called:    5
   909 ;; This function calls:
   910 ;;		_ADXL345_init
   911 ;;		_I2C_Master_Init
   912 ;;		_initUSART
   913 ;; This function is called by:
   914 ;;		_main
   915 ;; This function uses a non-reentrant model
   916 ;;
   917                           
   918                           
   919                           ;psect for function _setup
   920  0215                     _setup:
   921  0215                     l1310:	
   922                           ;incstack = 0
   923                           ; Regs used in _setup: [wreg+status,2+status,0+pclath+cstack]
   924                           
   925                           
   926                           ;C:/Users/danie/OneDrive/Desktop/DIGITAL2/proyecto2/master.X/main_pic.c: 122:     ANSEL 
      +                          = 0;
   927  0215  1683               	bsf	3,5	;RP0=1, select bank3
   928  0216  1703               	bsf	3,6	;RP1=1, select bank3
   929  0217  0188               	clrf	8	;volatile
   930                           
   931                           ;C:/Users/danie/OneDrive/Desktop/DIGITAL2/proyecto2/master.X/main_pic.c: 123:     ANSELH
      +                           = 0;
   932  0218  0189               	clrf	9	;volatile
   933                           
   934                           ;C:/Users/danie/OneDrive/Desktop/DIGITAL2/proyecto2/master.X/main_pic.c: 127:     TRISA 
      +                          = 0;
   935  0219  1683               	bsf	3,5	;RP0=1, select bank1
   936  021A  1303               	bcf	3,6	;RP1=0, select bank1
   937  021B  0185               	clrf	5	;volatile
   938                           
   939                           ;C:/Users/danie/OneDrive/Desktop/DIGITAL2/proyecto2/master.X/main_pic.c: 128:     PORTA 
      +                          = 0;
   940  021C  1283               	bcf	3,5	;RP0=0, select bank0
   941  021D  1303               	bcf	3,6	;RP1=0, select bank0
   942  021E  0185               	clrf	5	;volatile
   943                           
   944                           ;C:/Users/danie/OneDrive/Desktop/DIGITAL2/proyecto2/master.X/main_pic.c: 129:     TRISB 
      +                          = 0;
   945  021F  1683               	bsf	3,5	;RP0=1, select bank1
   946  0220  1303               	bcf	3,6	;RP1=0, select bank1
   947  0221  0186               	clrf	6	;volatile
   948                           
   949                           ;C:/Users/danie/OneDrive/Desktop/DIGITAL2/proyecto2/master.X/main_pic.c: 130:     PORTB 
      +                          = 0;
   950  0222  1283               	bcf	3,5	;RP0=0, select bank0
   951  0223  1303               	bcf	3,6	;RP1=0, select bank0
   952  0224  0186               	clrf	6	;volatile
   953                           
   954                           ;C:/Users/danie/OneDrive/Desktop/DIGITAL2/proyecto2/master.X/main_pic.c: 131:     TRISD 
      +                          = 0;
   955  0225  1683               	bsf	3,5	;RP0=1, select bank1
   956  0226  1303               	bcf	3,6	;RP1=0, select bank1
   957  0227  0188               	clrf	8	;volatile
   958                           
   959                           ;C:/Users/danie/OneDrive/Desktop/DIGITAL2/proyecto2/master.X/main_pic.c: 132:     PORTD 
      +                          = 0;
   960  0228  1283               	bcf	3,5	;RP0=0, select bank0
   961  0229  1303               	bcf	3,6	;RP1=0, select bank0
   962  022A  0188               	clrf	8	;volatile
   963                           
   964                           ;C:/Users/danie/OneDrive/Desktop/DIGITAL2/proyecto2/master.X/main_pic.c: 133:     TRISE 
      +                          = 0;
   965  022B  1683               	bsf	3,5	;RP0=1, select bank1
   966  022C  1303               	bcf	3,6	;RP1=0, select bank1
   967  022D  0189               	clrf	9	;volatile
   968                           
   969                           ;C:/Users/danie/OneDrive/Desktop/DIGITAL2/proyecto2/master.X/main_pic.c: 134:     PORTE 
      +                          = 0;
   970  022E  1283               	bcf	3,5	;RP0=0, select bank0
   971  022F  1303               	bcf	3,6	;RP1=0, select bank0
   972  0230  0189               	clrf	9	;volatile
   973  0231                     l1312:
   974                           
   975                           ;C:/Users/danie/OneDrive/Desktop/DIGITAL2/proyecto2/master.X/main_pic.c: 135:     prueba
      +                           = 126;
   976  0231  307E               	movlw	126
   977  0232  00F9               	movwf	??_setup
   978  0233  0879               	movf	??_setup,w
   979  0234  00BE               	movwf	_prueba
   980  0235                     l1314:
   981                           
   982                           ;C:/Users/danie/OneDrive/Desktop/DIGITAL2/proyecto2/master.X/main_pic.c: 136:     tx_var
      +                           = 0;
   983  0235  01B4               	clrf	_tx_var
   984                           
   985                           ;C:/Users/danie/OneDrive/Desktop/DIGITAL2/proyecto2/master.X/main_pic.c: 138:     eje_x 
      +                          = 0xf8;
   986  0236  30F8               	movlw	248
   987  0237  00F9               	movwf	??_setup
   988  0238  0879               	movf	??_setup,w
   989  0239  00BF               	movwf	_eje_x
   990  023A                     l1316:
   991                           
   992                           ;C:/Users/danie/OneDrive/Desktop/DIGITAL2/proyecto2/master.X/main_pic.c: 139:     initUS
      +                          ART();
   993  023A  120A  118A  2368  120A  118A  	fcall	_initUSART
   994  023F                     l1318:
   995                           
   996                           ;C:/Users/danie/OneDrive/Desktop/DIGITAL2/proyecto2/master.X/main_pic.c: 141:     OPTION
      +                          _REGbits.T0CS = 0;
   997  023F  1683               	bsf	3,5	;RP0=1, select bank1
   998  0240  1303               	bcf	3,6	;RP1=0, select bank1
   999  0241  1281               	bcf	1,5	;volatile
  1000  0242                     l1320:
  1001                           
  1002                           ;C:/Users/danie/OneDrive/Desktop/DIGITAL2/proyecto2/master.X/main_pic.c: 142:     OPTION
      +                          _REGbits.PSA = 0;
  1003  0242  1181               	bcf	1,3	;volatile
  1004  0243                     l1322:
  1005                           
  1006                           ;C:/Users/danie/OneDrive/Desktop/DIGITAL2/proyecto2/master.X/main_pic.c: 143:     OPTION
      +                          _REGbits.PS = 111;
  1007  0243  3007               	movlw	7
  1008  0244  0481               	iorwf	1,f	;volatile
  1009  0245                     l1324:
  1010                           
  1011                           ;C:/Users/danie/OneDrive/Desktop/DIGITAL2/proyecto2/master.X/main_pic.c: 144:     TMR0 =
      +                           10;
  1012  0245  300A               	movlw	10
  1013  0246  1283               	bcf	3,5	;RP0=0, select bank0
  1014  0247  1303               	bcf	3,6	;RP1=0, select bank0
  1015  0248  0081               	movwf	1	;volatile
  1016  0249                     l1326:
  1017                           
  1018                           ;C:/Users/danie/OneDrive/Desktop/DIGITAL2/proyecto2/master.X/main_pic.c: 147:     INTCON
      +                          bits.GIE = 1;
  1019  0249  178B               	bsf	11,7	;volatile
  1020  024A                     l1328:
  1021                           
  1022                           ;C:/Users/danie/OneDrive/Desktop/DIGITAL2/proyecto2/master.X/main_pic.c: 148:     INTCON
      +                          bits.T0IE = 1;
  1023  024A  168B               	bsf	11,5	;volatile
  1024  024B                     l1330:
  1025                           
  1026                           ;C:/Users/danie/OneDrive/Desktop/DIGITAL2/proyecto2/master.X/main_pic.c: 149:     INTCON
      +                          bits.T0IF = 0;
  1027  024B  110B               	bcf	11,2	;volatile
  1028  024C                     l1332:
  1029                           
  1030                           ;C:/Users/danie/OneDrive/Desktop/DIGITAL2/proyecto2/master.X/main_pic.c: 151:     I2C_Ma
      +                          ster_Init(100000);
  1031  024C  3000               	movlw	0
  1032  024D  00AB               	movwf	I2C_Master_Init@c+3
  1033  024E  3001               	movlw	1
  1034  024F  00AA               	movwf	I2C_Master_Init@c+2
  1035  0250  3086               	movlw	134
  1036  0251  00A9               	movwf	I2C_Master_Init@c+1
  1037  0252  30A0               	movlw	160
  1038  0253  00A8               	movwf	I2C_Master_Init@c
  1039  0254  120A  118A  22A6  120A  118A  	fcall	_I2C_Master_Init
  1040  0259                     l1334:
  1041                           
  1042                           ;C:/Users/danie/OneDrive/Desktop/DIGITAL2/proyecto2/master.X/main_pic.c: 152:     ADXL34
      +                          5_init();
  1043  0259  120A  118A  230E  120A  118A  	fcall	_ADXL345_init
  1044  025E                     l103:
  1045  025E  0008               	return
  1046  025F                     __end_of_setup:
  1047                           
  1048                           	psect	text2
  1049  0368                     __ptext2:	
  1050 ;; *************** function _initUSART *****************
  1051 ;; Defined at:
  1052 ;;		line 3 in file "C:/Users/danie/OneDrive/Desktop/DIGITAL2/proyecto2/master.X/USART.c"
  1053 ;; Parameters:    Size  Location     Type
  1054 ;;		None
  1055 ;; Auto vars:     Size  Location     Type
  1056 ;;		None
  1057 ;; Return value:  Size  Location     Type
  1058 ;;                  1    wreg      void 
  1059 ;; Registers used:
  1060 ;;		wreg, status,2
  1061 ;; Tracked objects:
  1062 ;;		On entry : 0/0
  1063 ;;		On exit  : 0/0
  1064 ;;		Unchanged: 0/0
  1065 ;; Data sizes:     COMMON   BANK0   BANK1   BANK3   BANK2
  1066 ;;      Params:         0       0       0       0       0
  1067 ;;      Locals:         0       0       0       0       0
  1068 ;;      Temps:          0       0       0       0       0
  1069 ;;      Totals:         0       0       0       0       0
  1070 ;;Total ram usage:        0 bytes
  1071 ;; Hardware stack levels used:    1
  1072 ;; Hardware stack levels required when called:    1
  1073 ;; This function calls:
  1074 ;;		Nothing
  1075 ;; This function is called by:
  1076 ;;		_setup
  1077 ;; This function uses a non-reentrant model
  1078 ;;
  1079                           
  1080                           
  1081                           ;psect for function _initUSART
  1082  0368                     _initUSART:
  1083  0368                     l1074:	
  1084                           ;incstack = 0
  1085                           ; Regs used in _initUSART: [wreg+status,2]
  1086                           
  1087                           
  1088                           ;C:/Users/danie/OneDrive/Desktop/DIGITAL2/proyecto2/master.X/USART.c: 5:     TRISCbits.T
      +                          RISC6 = 0;
  1089  0368  1683               	bsf	3,5	;RP0=1, select bank1
  1090  0369  1303               	bcf	3,6	;RP1=0, select bank1
  1091  036A  1307               	bcf	7,6	;volatile
  1092                           
  1093                           ;C:/Users/danie/OneDrive/Desktop/DIGITAL2/proyecto2/master.X/USART.c: 6:     TRISCbits.T
      +                          RISC7 = 1;
  1094  036B  1787               	bsf	7,7	;volatile
  1095  036C                     l1076:
  1096                           
  1097                           ;C:/Users/danie/OneDrive/Desktop/DIGITAL2/proyecto2/master.X/USART.c: 9:     SPBRG = 25;
  1098  036C  3019               	movlw	25
  1099  036D  0099               	movwf	25	;volatile
  1100  036E                     l1078:
  1101                           
  1102                           ;C:/Users/danie/OneDrive/Desktop/DIGITAL2/proyecto2/master.X/USART.c: 10:     TXSTAbits.
      +                          BRGH = 1;
  1103  036E  1518               	bsf	24,2	;volatile
  1104  036F                     l1080:
  1105                           
  1106                           ;C:/Users/danie/OneDrive/Desktop/DIGITAL2/proyecto2/master.X/USART.c: 11:     BAUDCTLbit
      +                          s.BRG16 = 0;
  1107  036F  1683               	bsf	3,5	;RP0=1, select bank3
  1108  0370  1703               	bsf	3,6	;RP1=1, select bank3
  1109  0371  1187               	bcf	7,3	;volatile
  1110  0372                     l1082:
  1111                           
  1112                           ;C:/Users/danie/OneDrive/Desktop/DIGITAL2/proyecto2/master.X/USART.c: 12:     SPBRGH = 0
      +                          ;
  1113  0372  1683               	bsf	3,5	;RP0=1, select bank1
  1114  0373  1303               	bcf	3,6	;RP1=0, select bank1
  1115  0374  019A               	clrf	26	;volatile
  1116  0375                     l1084:
  1117                           
  1118                           ;C:/Users/danie/OneDrive/Desktop/DIGITAL2/proyecto2/master.X/USART.c: 15:     TXSTAbits.
      +                          SYNC = 0;
  1119  0375  1218               	bcf	24,4	;volatile
  1120  0376                     l1086:
  1121                           
  1122                           ;C:/Users/danie/OneDrive/Desktop/DIGITAL2/proyecto2/master.X/USART.c: 16:     RCSTAbits.
      +                          SPEN = 1;
  1123  0376  1283               	bcf	3,5	;RP0=0, select bank0
  1124  0377  1303               	bcf	3,6	;RP1=0, select bank0
  1125  0378  1798               	bsf	24,7	;volatile
  1126  0379                     l1088:
  1127                           
  1128                           ;C:/Users/danie/OneDrive/Desktop/DIGITAL2/proyecto2/master.X/USART.c: 17:     TXSTAbits.
      +                          TX9 = 0;
  1129  0379  1683               	bsf	3,5	;RP0=1, select bank1
  1130  037A  1303               	bcf	3,6	;RP1=0, select bank1
  1131  037B  1318               	bcf	24,6	;volatile
  1132  037C                     l1090:
  1133                           
  1134                           ;C:/Users/danie/OneDrive/Desktop/DIGITAL2/proyecto2/master.X/USART.c: 18:     TXSTAbits.
      +                          TXEN = 1;
  1135  037C  1698               	bsf	24,5	;volatile
  1136  037D                     l1092:
  1137                           
  1138                           ;C:/Users/danie/OneDrive/Desktop/DIGITAL2/proyecto2/master.X/USART.c: 21:     PIE1bits.R
      +                          CIE = 1;
  1139  037D  168C               	bsf	12,5	;volatile
  1140  037E                     l1094:
  1141                           
  1142                           ;C:/Users/danie/OneDrive/Desktop/DIGITAL2/proyecto2/master.X/USART.c: 22:     RCSTAbits.
      +                          RX9 = 0;
  1143  037E  1283               	bcf	3,5	;RP0=0, select bank0
  1144  037F  1303               	bcf	3,6	;RP1=0, select bank0
  1145  0380  1318               	bcf	24,6	;volatile
  1146  0381                     l1096:
  1147                           
  1148                           ;C:/Users/danie/OneDrive/Desktop/DIGITAL2/proyecto2/master.X/USART.c: 23:     RCSTAbits.
      +                          CREN = 1;
  1149  0381  1618               	bsf	24,4	;volatile
  1150  0382                     l1098:
  1151                           
  1152                           ;C:/Users/danie/OneDrive/Desktop/DIGITAL2/proyecto2/master.X/USART.c: 26:     INTCONbits
      +                          .GIE = 1;
  1153  0382  178B               	bsf	11,7	;volatile
  1154  0383                     l1100:
  1155                           
  1156                           ;C:/Users/danie/OneDrive/Desktop/DIGITAL2/proyecto2/master.X/USART.c: 27:     INTCONbits
      +                          .PEIE = 1;
  1157  0383  170B               	bsf	11,6	;volatile
  1158  0384                     l190:
  1159  0384  0008               	return
  1160  0385                     __end_of_initUSART:
  1161                           
  1162                           	psect	text3
  1163  02A6                     __ptext3:	
  1164 ;; *************** function _I2C_Master_Init *****************
  1165 ;; Defined at:
  1166 ;;		line 14 in file "C:/Users/danie/OneDrive/Desktop/DIGITAL2/proyecto2/master.X/I2C.c"
  1167 ;; Parameters:    Size  Location     Type
  1168 ;;  c               4    8[BANK0 ] const unsigned long 
  1169 ;; Auto vars:     Size  Location     Type
  1170 ;;		None
  1171 ;; Return value:  Size  Location     Type
  1172 ;;                  1    wreg      void 
  1173 ;; Registers used:
  1174 ;;		wreg, status,2, status,0, pclath, cstack
  1175 ;; Tracked objects:
  1176 ;;		On entry : 0/0
  1177 ;;		On exit  : 0/0
  1178 ;;		Unchanged: 0/0
  1179 ;; Data sizes:     COMMON   BANK0   BANK1   BANK3   BANK2
  1180 ;;      Params:         0       4       0       0       0
  1181 ;;      Locals:         0       0       0       0       0
  1182 ;;      Temps:          0       4       0       0       0
  1183 ;;      Totals:         0       8       0       0       0
  1184 ;;Total ram usage:        8 bytes
  1185 ;; Hardware stack levels used:    1
  1186 ;; Hardware stack levels required when called:    2
  1187 ;; This function calls:
  1188 ;;		___lldiv
  1189 ;; This function is called by:
  1190 ;;		_setup
  1191 ;; This function uses a non-reentrant model
  1192 ;;
  1193                           
  1194                           
  1195                           ;psect for function _I2C_Master_Init
  1196  02A6                     _I2C_Master_Init:
  1197  02A6                     l1292:	
  1198                           ;incstack = 0
  1199                           ; Regs used in _I2C_Master_Init: [wreg+status,2+status,0+pclath+cstack]
  1200                           
  1201                           
  1202                           ;C:/Users/danie/OneDrive/Desktop/DIGITAL2/proyecto2/master.X/I2C.c: 14: void I2C_Master_
      +                          Init(const unsigned long c);C:/Users/danie/OneDrive/Desktop/DIGITAL2/proyecto2/master.X/
      +                          I2C.c: 15: {;C:/Users/danie/OneDrive/Desktop/DIGITAL2/proyecto2/master.X/I2C.c: 16:     
      +                          SSPCON = 0b00101000;
  1203  02A6  3028               	movlw	40
  1204  02A7  1283               	bcf	3,5	;RP0=0, select bank0
  1205  02A8  1303               	bcf	3,6	;RP1=0, select bank0
  1206  02A9  0094               	movwf	20	;volatile
  1207  02AA                     l1294:
  1208                           
  1209                           ;C:/Users/danie/OneDrive/Desktop/DIGITAL2/proyecto2/master.X/I2C.c: 18:     SSPCON2 = 0;
  1210  02AA  1683               	bsf	3,5	;RP0=1, select bank1
  1211  02AB  1303               	bcf	3,6	;RP1=0, select bank1
  1212  02AC  0191               	clrf	17	;volatile
  1213  02AD                     l1296:
  1214                           
  1215                           ;C:/Users/danie/OneDrive/Desktop/DIGITAL2/proyecto2/master.X/I2C.c: 19:     SSPADD = (40
      +                          00000/(4*c))-1;
  1216  02AD  1283               	bcf	3,5	;RP0=0, select bank0
  1217  02AE  1303               	bcf	3,6	;RP1=0, select bank0
  1218  02AF  0828               	movf	I2C_Master_Init@c,w
  1219  02B0  00AC               	movwf	??_I2C_Master_Init
  1220  02B1  0829               	movf	I2C_Master_Init@c+1,w
  1221  02B2  00AD               	movwf	??_I2C_Master_Init+1
  1222  02B3  082A               	movf	I2C_Master_Init@c+2,w
  1223  02B4  00AE               	movwf	??_I2C_Master_Init+2
  1224  02B5  082B               	movf	I2C_Master_Init@c+3,w
  1225  02B6  00AF               	movwf	??_I2C_Master_Init+3
  1226  02B7  3002               	movlw	2
  1227  02B8                     u765:
  1228  02B8  1003               	clrc
  1229  02B9  0DAC               	rlf	??_I2C_Master_Init,f
  1230  02BA  0DAD               	rlf	??_I2C_Master_Init+1,f
  1231  02BB  0DAE               	rlf	??_I2C_Master_Init+2,f
  1232  02BC  0DAF               	rlf	??_I2C_Master_Init+3,f
  1233  02BD                     u760:
  1234  02BD  3EFF               	addlw	-1
  1235  02BE  1D03               	skipz
  1236  02BF  2AB8               	goto	u765
  1237  02C0  082F               	movf	??_I2C_Master_Init+3,w
  1238  02C1  00A3               	movwf	___lldiv@divisor+3
  1239  02C2  082E               	movf	??_I2C_Master_Init+2,w
  1240  02C3  00A2               	movwf	___lldiv@divisor+2
  1241  02C4  082D               	movf	??_I2C_Master_Init+1,w
  1242  02C5  00A1               	movwf	___lldiv@divisor+1
  1243  02C6  082C               	movf	??_I2C_Master_Init,w
  1244  02C7  00A0               	movwf	___lldiv@divisor
  1245  02C8  3000               	movlw	0
  1246  02C9  00A7               	movwf	___lldiv@dividend+3
  1247  02CA  303D               	movlw	61
  1248  02CB  00A6               	movwf	___lldiv@dividend+2
  1249  02CC  3009               	movlw	9
  1250  02CD  00A5               	movwf	___lldiv@dividend+1
  1251  02CE  3000               	movlw	0
  1252  02CF  00A4               	movwf	___lldiv@dividend
  1253  02D0  120A  118A  2153  120A  118A  	fcall	___lldiv
  1254  02D5  1283               	bcf	3,5	;RP0=0, select bank0
  1255  02D6  1303               	bcf	3,6	;RP1=0, select bank0
  1256  02D7  0820               	movf	?___lldiv,w
  1257  02D8  3EFF               	addlw	255
  1258  02D9  1683               	bsf	3,5	;RP0=1, select bank1
  1259  02DA  1303               	bcf	3,6	;RP1=0, select bank1
  1260  02DB  0093               	movwf	19	;volatile
  1261  02DC                     l1298:
  1262                           
  1263                           ;C:/Users/danie/OneDrive/Desktop/DIGITAL2/proyecto2/master.X/I2C.c: 20:     SSPSTAT = 0;
  1264  02DC  0194               	clrf	20	;volatile
  1265  02DD                     l1300:
  1266                           
  1267                           ;C:/Users/danie/OneDrive/Desktop/DIGITAL2/proyecto2/master.X/I2C.c: 21:     TRISCbits.TR
      +                          ISC3 = 1;
  1268  02DD  1587               	bsf	7,3	;volatile
  1269  02DE                     l1302:
  1270                           
  1271                           ;C:/Users/danie/OneDrive/Desktop/DIGITAL2/proyecto2/master.X/I2C.c: 22:     TRISCbits.TR
      +                          ISC4 = 1;
  1272  02DE  1607               	bsf	7,4	;volatile
  1273  02DF                     l136:
  1274  02DF  0008               	return
  1275  02E0                     __end_of_I2C_Master_Init:
  1276                           
  1277                           	psect	text4
  1278  0153                     __ptext4:	
  1279 ;; *************** function ___lldiv *****************
  1280 ;; Defined at:
  1281 ;;		line 5 in file "C:\Program Files\Microchip\xc8\v2.31\pic\sources\c90\common\__lldiv.c"
  1282 ;; Parameters:    Size  Location     Type
  1283 ;;  divisor         4    0[BANK0 ] unsigned long 
  1284 ;;  dividend        4    4[BANK0 ] unsigned long 
  1285 ;; Auto vars:     Size  Location     Type
  1286 ;;  quotient        4    4[COMMON] unsigned long 
  1287 ;;  counter         1    8[COMMON] unsigned char 
  1288 ;; Return value:  Size  Location     Type
  1289 ;;                  4    0[BANK0 ] unsigned long 
  1290 ;; Registers used:
  1291 ;;		wreg, status,2, status,0
  1292 ;; Tracked objects:
  1293 ;;		On entry : 0/0
  1294 ;;		On exit  : 0/0
  1295 ;;		Unchanged: 0/0
  1296 ;; Data sizes:     COMMON   BANK0   BANK1   BANK3   BANK2
  1297 ;;      Params:         0       8       0       0       0
  1298 ;;      Locals:         5       0       0       0       0
  1299 ;;      Temps:          1       0       0       0       0
  1300 ;;      Totals:         6       8       0       0       0
  1301 ;;Total ram usage:       14 bytes
  1302 ;; Hardware stack levels used:    1
  1303 ;; Hardware stack levels required when called:    1
  1304 ;; This function calls:
  1305 ;;		Nothing
  1306 ;; This function is called by:
  1307 ;;		_I2C_Master_Init
  1308 ;; This function uses a non-reentrant model
  1309 ;;
  1310                           
  1311                           
  1312                           ;psect for function ___lldiv
  1313  0153                     ___lldiv:
  1314  0153                     l1268:	
  1315                           ;incstack = 0
  1316                           ; Regs used in ___lldiv: [wreg+status,2+status,0]
  1317                           
  1318  0153  3000               	movlw	0
  1319  0154  00F7               	movwf	___lldiv@quotient+3
  1320  0155  3000               	movlw	0
  1321  0156  00F6               	movwf	___lldiv@quotient+2
  1322  0157  3000               	movlw	0
  1323  0158  00F5               	movwf	___lldiv@quotient+1
  1324  0159  3000               	movlw	0
  1325  015A  00F4               	movwf	___lldiv@quotient
  1326  015B  1283               	bcf	3,5	;RP0=0, select bank0
  1327  015C  1303               	bcf	3,6	;RP1=0, select bank0
  1328  015D  0823               	movf	___lldiv@divisor+3,w
  1329  015E  0422               	iorwf	___lldiv@divisor+2,w
  1330  015F  0421               	iorwf	___lldiv@divisor+1,w
  1331  0160  0420               	iorwf	___lldiv@divisor,w
  1332  0161  1903               	skipnz
  1333  0162  2964               	goto	u691
  1334  0163  2965               	goto	u690
  1335  0164                     u691:
  1336  0164  29B2               	goto	l1288
  1337  0165                     u690:
  1338  0165                     l1270:
  1339  0165  01F8               	clrf	___lldiv@counter
  1340  0166  0AF8               	incf	___lldiv@counter,f
  1341  0167  2975               	goto	l1274
  1342  0168                     l1272:
  1343  0168  3001               	movlw	1
  1344  0169  00F3               	movwf	??___lldiv
  1345  016A                     u705:
  1346  016A  1003               	clrc
  1347  016B  0DA0               	rlf	___lldiv@divisor,f
  1348  016C  0DA1               	rlf	___lldiv@divisor+1,f
  1349  016D  0DA2               	rlf	___lldiv@divisor+2,f
  1350  016E  0DA3               	rlf	___lldiv@divisor+3,f
  1351  016F  0BF3               	decfsz	??___lldiv,f
  1352  0170  296A               	goto	u705
  1353  0171  3001               	movlw	1
  1354  0172  00F3               	movwf	??___lldiv
  1355  0173  0873               	movf	??___lldiv,w
  1356  0174  07F8               	addwf	___lldiv@counter,f
  1357  0175                     l1274:
  1358  0175  1FA3               	btfss	___lldiv@divisor+3,7
  1359  0176  2978               	goto	u711
  1360  0177  2979               	goto	u710
  1361  0178                     u711:
  1362  0178  2968               	goto	l1272
  1363  0179                     u710:
  1364  0179                     l1276:
  1365  0179  3001               	movlw	1
  1366  017A  00F3               	movwf	??___lldiv
  1367  017B                     u725:
  1368  017B  1003               	clrc
  1369  017C  0DF4               	rlf	___lldiv@quotient,f
  1370  017D  0DF5               	rlf	___lldiv@quotient+1,f
  1371  017E  0DF6               	rlf	___lldiv@quotient+2,f
  1372  017F  0DF7               	rlf	___lldiv@quotient+3,f
  1373  0180  0BF3               	decfsz	??___lldiv,f
  1374  0181  297B               	goto	u725
  1375  0182                     l1278:
  1376  0182  0823               	movf	___lldiv@divisor+3,w
  1377  0183  0227               	subwf	___lldiv@dividend+3,w
  1378  0184  1D03               	skipz
  1379  0185  2990               	goto	u735
  1380  0186  0822               	movf	___lldiv@divisor+2,w
  1381  0187  0226               	subwf	___lldiv@dividend+2,w
  1382  0188  1D03               	skipz
  1383  0189  2990               	goto	u735
  1384  018A  0821               	movf	___lldiv@divisor+1,w
  1385  018B  0225               	subwf	___lldiv@dividend+1,w
  1386  018C  1D03               	skipz
  1387  018D  2990               	goto	u735
  1388  018E  0820               	movf	___lldiv@divisor,w
  1389  018F  0224               	subwf	___lldiv@dividend,w
  1390  0190                     u735:
  1391  0190  1C03               	skipc
  1392  0191  2993               	goto	u731
  1393  0192  2994               	goto	u730
  1394  0193                     u731:
  1395  0193  29A3               	goto	l1284
  1396  0194                     u730:
  1397  0194                     l1280:
  1398  0194  0820               	movf	___lldiv@divisor,w
  1399  0195  02A4               	subwf	___lldiv@dividend,f
  1400  0196  0821               	movf	___lldiv@divisor+1,w
  1401  0197  1C03               	skipc
  1402  0198  0F21               	incfsz	___lldiv@divisor+1,w
  1403  0199  02A5               	subwf	___lldiv@dividend+1,f
  1404  019A  0822               	movf	___lldiv@divisor+2,w
  1405  019B  1C03               	skipc
  1406  019C  0F22               	incfsz	___lldiv@divisor+2,w
  1407  019D  02A6               	subwf	___lldiv@dividend+2,f
  1408  019E  0823               	movf	___lldiv@divisor+3,w
  1409  019F  1C03               	skipc
  1410  01A0  0F23               	incfsz	___lldiv@divisor+3,w
  1411  01A1  02A7               	subwf	___lldiv@dividend+3,f
  1412  01A2                     l1282:
  1413  01A2  1474               	bsf	___lldiv@quotient,0
  1414  01A3                     l1284:
  1415  01A3  3001               	movlw	1
  1416  01A4                     u745:
  1417  01A4  1003               	clrc
  1418  01A5  0CA3               	rrf	___lldiv@divisor+3,f
  1419  01A6  0CA2               	rrf	___lldiv@divisor+2,f
  1420  01A7  0CA1               	rrf	___lldiv@divisor+1,f
  1421  01A8  0CA0               	rrf	___lldiv@divisor,f
  1422  01A9  3EFF               	addlw	-1
  1423  01AA  1D03               	skipz
  1424  01AB  29A4               	goto	u745
  1425  01AC                     l1286:
  1426  01AC  3001               	movlw	1
  1427  01AD  02F8               	subwf	___lldiv@counter,f
  1428  01AE  1D03               	btfss	3,2
  1429  01AF  29B1               	goto	u751
  1430  01B0  29B2               	goto	u750
  1431  01B1                     u751:
  1432  01B1  2979               	goto	l1276
  1433  01B2                     u750:
  1434  01B2                     l1288:
  1435  01B2  0877               	movf	___lldiv@quotient+3,w
  1436  01B3  00A3               	movwf	?___lldiv+3
  1437  01B4  0876               	movf	___lldiv@quotient+2,w
  1438  01B5  00A2               	movwf	?___lldiv+2
  1439  01B6  0875               	movf	___lldiv@quotient+1,w
  1440  01B7  00A1               	movwf	?___lldiv+1
  1441  01B8  0874               	movf	___lldiv@quotient,w
  1442  01B9  00A0               	movwf	?___lldiv
  1443  01BA                     l312:
  1444  01BA  0008               	return
  1445  01BB                     __end_of___lldiv:
  1446                           
  1447                           	psect	text5
  1448  030E                     __ptext5:	
  1449 ;; *************** function _ADXL345_init *****************
  1450 ;; Defined at:
  1451 ;;		line 109 in file "C:/Users/danie/OneDrive/Desktop/DIGITAL2/proyecto2/master.X/I2C.c"
  1452 ;; Parameters:    Size  Location     Type
  1453 ;;		None
  1454 ;; Auto vars:     Size  Location     Type
  1455 ;;		None
  1456 ;; Return value:  Size  Location     Type
  1457 ;;                  1    wreg      void 
  1458 ;; Registers used:
  1459 ;;		wreg, status,2, status,0, pclath, cstack
  1460 ;; Tracked objects:
  1461 ;;		On entry : 0/0
  1462 ;;		On exit  : 0/0
  1463 ;;		Unchanged: 0/0
  1464 ;; Data sizes:     COMMON   BANK0   BANK1   BANK3   BANK2
  1465 ;;      Params:         0       0       0       0       0
  1466 ;;      Locals:         0       0       0       0       0
  1467 ;;      Temps:          0       2       0       0       0
  1468 ;;      Totals:         0       2       0       0       0
  1469 ;;Total ram usage:        2 bytes
  1470 ;; Hardware stack levels used:    1
  1471 ;; Hardware stack levels required when called:    4
  1472 ;; This function calls:
  1473 ;;		_ADXL345_WRITE
  1474 ;; This function is called by:
  1475 ;;		_setup
  1476 ;; This function uses a non-reentrant model
  1477 ;;
  1478                           
  1479                           
  1480                           ;psect for function _ADXL345_init
  1481  030E                     _ADXL345_init:
  1482  030E                     l1304:	
  1483                           ;incstack = 0
  1484                           ; Regs used in _ADXL345_init: [wreg+status,2+status,0+pclath+cstack]
  1485                           
  1486                           
  1487                           ;C:/Users/danie/OneDrive/Desktop/DIGITAL2/proyecto2/master.X/I2C.c: 110:     ADXL345_WRI
      +                          TE(0x31, 0x0B);
  1488  030E  300B               	movlw	11
  1489  030F  1283               	bcf	3,5	;RP0=0, select bank0
  1490  0310  1303               	bcf	3,6	;RP1=0, select bank0
  1491  0311  00A0               	movwf	??_ADXL345_init
  1492  0312  0820               	movf	??_ADXL345_init,w
  1493  0313  00F5               	movwf	ADXL345_WRITE@data
  1494  0314  3031               	movlw	49
  1495  0315  120A  118A  233B  120A  118A  	fcall	_ADXL345_WRITE
  1496  031A                     l1306:
  1497                           
  1498                           ;C:/Users/danie/OneDrive/Desktop/DIGITAL2/proyecto2/master.X/I2C.c: 111:     _delay((uns
      +                          igned long)((2)*(4000000/4000.0)));
  1499  031A  3003               	movlw	3
  1500  031B  1283               	bcf	3,5	;RP0=0, select bank0
  1501  031C  1303               	bcf	3,6	;RP1=0, select bank0
  1502  031D  00A1               	movwf	??_ADXL345_init+1
  1503  031E  3097               	movlw	151
  1504  031F  00A0               	movwf	??_ADXL345_init
  1505  0320                     u827:
  1506  0320  0BA0               	decfsz	??_ADXL345_init,f
  1507  0321  2B20               	goto	u827
  1508  0322  0BA1               	decfsz	??_ADXL345_init+1,f
  1509  0323  2B20               	goto	u827
  1510  0324                     l1308:
  1511                           
  1512                           ;C:/Users/danie/OneDrive/Desktop/DIGITAL2/proyecto2/master.X/I2C.c: 112:     ADXL345_WRI
      +                          TE(0x2D, 0x08);
  1513  0324  3008               	movlw	8
  1514  0325  1283               	bcf	3,5	;RP0=0, select bank0
  1515  0326  1303               	bcf	3,6	;RP1=0, select bank0
  1516  0327  00A0               	movwf	??_ADXL345_init
  1517  0328  0820               	movf	??_ADXL345_init,w
  1518  0329  00F5               	movwf	ADXL345_WRITE@data
  1519  032A  302D               	movlw	45
  1520  032B  120A  118A  233B  120A  118A  	fcall	_ADXL345_WRITE
  1521                           
  1522                           ;C:/Users/danie/OneDrive/Desktop/DIGITAL2/proyecto2/master.X/I2C.c: 113:     _delay((uns
      +                          igned long)((2)*(4000000/4000.0)));
  1523  0330  3003               	movlw	3
  1524  0331  1283               	bcf	3,5	;RP0=0, select bank0
  1525  0332  1303               	bcf	3,6	;RP1=0, select bank0
  1526  0333  00A1               	movwf	??_ADXL345_init+1
  1527  0334  3097               	movlw	151
  1528  0335  00A0               	movwf	??_ADXL345_init
  1529  0336                     u837:
  1530  0336  0BA0               	decfsz	??_ADXL345_init,f
  1531  0337  2B36               	goto	u837
  1532  0338  0BA1               	decfsz	??_ADXL345_init+1,f
  1533  0339  2B36               	goto	u837
  1534  033A                     l165:
  1535  033A  0008               	return
  1536  033B                     __end_of_ADXL345_init:
  1537                           
  1538                           	psect	text6
  1539  033B                     __ptext6:	
  1540 ;; *************** function _ADXL345_WRITE *****************
  1541 ;; Defined at:
  1542 ;;		line 126 in file "C:/Users/danie/OneDrive/Desktop/DIGITAL2/proyecto2/master.X/I2C.c"
  1543 ;; Parameters:    Size  Location     Type
  1544 ;;  var             1    wreg     unsigned char 
  1545 ;;  data            1    5[COMMON] unsigned char 
  1546 ;; Auto vars:     Size  Location     Type
  1547 ;;  var             1    8[COMMON] unsigned char 
  1548 ;; Return value:  Size  Location     Type
  1549 ;;                  1    wreg      void 
  1550 ;; Registers used:
  1551 ;;		wreg, status,2, status,0, pclath, cstack
  1552 ;; Tracked objects:
  1553 ;;		On entry : 0/0
  1554 ;;		On exit  : 0/0
  1555 ;;		Unchanged: 0/0
  1556 ;; Data sizes:     COMMON   BANK0   BANK1   BANK3   BANK2
  1557 ;;      Params:         1       0       0       0       0
  1558 ;;      Locals:         1       0       0       0       0
  1559 ;;      Temps:          2       0       0       0       0
  1560 ;;      Totals:         4       0       0       0       0
  1561 ;;Total ram usage:        4 bytes
  1562 ;; Hardware stack levels used:    1
  1563 ;; Hardware stack levels required when called:    3
  1564 ;; This function calls:
  1565 ;;		_I2C_Master_Start
  1566 ;;		_I2C_Master_Stop
  1567 ;;		_I2C_Master_Write
  1568 ;; This function is called by:
  1569 ;;		_ADXL345_init
  1570 ;; This function uses a non-reentrant model
  1571 ;;
  1572                           
  1573                           
  1574                           ;psect for function _ADXL345_WRITE
  1575  033B                     _ADXL345_WRITE:
  1576                           
  1577                           ;incstack = 0
  1578                           ; Regs used in _ADXL345_WRITE: [wreg+status,2+status,0+pclath+cstack]
  1579                           ;ADXL345_WRITE@var stored from wreg
  1580  033B  00F8               	movwf	ADXL345_WRITE@var
  1581  033C                     l1048:
  1582                           
  1583                           ;C:/Users/danie/OneDrive/Desktop/DIGITAL2/proyecto2/master.X/I2C.c: 127:     I2C_Master_
      +                          Start();
  1584  033C  120A  118A  23A5  120A  118A  	fcall	_I2C_Master_Start
  1585                           
  1586                           ;C:/Users/danie/OneDrive/Desktop/DIGITAL2/proyecto2/master.X/I2C.c: 128:     I2C_Master_
      +                          Write(0xA6);
  1587  0341  30A6               	movlw	166
  1588  0342  00F3               	movwf	I2C_Master_Write@d
  1589  0343  3000               	movlw	0
  1590  0344  00F4               	movwf	I2C_Master_Write@d+1
  1591  0345  120A  118A  2392  120A  118A  	fcall	_I2C_Master_Write
  1592                           
  1593                           ;C:/Users/danie/OneDrive/Desktop/DIGITAL2/proyecto2/master.X/I2C.c: 129:     I2C_Master_
      +                          Write(var);
  1594  034A  0878               	movf	ADXL345_WRITE@var,w
  1595  034B  00F6               	movwf	??_ADXL345_WRITE
  1596  034C  01F7               	clrf	??_ADXL345_WRITE+1
  1597  034D  0876               	movf	??_ADXL345_WRITE,w
  1598  034E  00F3               	movwf	I2C_Master_Write@d
  1599  034F  0877               	movf	??_ADXL345_WRITE+1,w
  1600  0350  00F4               	movwf	I2C_Master_Write@d+1
  1601  0351  120A  118A  2392  120A  118A  	fcall	_I2C_Master_Write
  1602                           
  1603                           ;C:/Users/danie/OneDrive/Desktop/DIGITAL2/proyecto2/master.X/I2C.c: 130:     I2C_Master_
      +                          Write(data);
  1604  0356  0875               	movf	ADXL345_WRITE@data,w
  1605  0357  00F6               	movwf	??_ADXL345_WRITE
  1606  0358  01F7               	clrf	??_ADXL345_WRITE+1
  1607  0359  0876               	movf	??_ADXL345_WRITE,w
  1608  035A  00F3               	movwf	I2C_Master_Write@d
  1609  035B  0877               	movf	??_ADXL345_WRITE+1,w
  1610  035C  00F4               	movwf	I2C_Master_Write@d+1
  1611  035D  120A  118A  2392  120A  118A  	fcall	_I2C_Master_Write
  1612                           
  1613                           ;C:/Users/danie/OneDrive/Desktop/DIGITAL2/proyecto2/master.X/I2C.c: 131:     I2C_Master_
      +                          Stop();
  1614  0362  120A  118A  239C  120A  118A  	fcall	_I2C_Master_Stop
  1615  0367                     l171:
  1616  0367  0008               	return
  1617  0368                     __end_of_ADXL345_WRITE:
  1618                           
  1619                           	psect	text7
  1620  00EA                     __ptext7:	
  1621 ;; *************** function ___awdiv *****************
  1622 ;; Defined at:
  1623 ;;		line 5 in file "C:\Program Files\Microchip\xc8\v2.31\pic\sources\c90\common\awdiv.c"
  1624 ;; Parameters:    Size  Location     Type
  1625 ;;  divisor         2    3[COMMON] int 
  1626 ;;  dividend        2    5[COMMON] int 
  1627 ;; Auto vars:     Size  Location     Type
  1628 ;;  quotient        2    2[BANK0 ] int 
  1629 ;;  sign            1    1[BANK0 ] unsigned char 
  1630 ;;  counter         1    0[BANK0 ] unsigned char 
  1631 ;; Return value:  Size  Location     Type
  1632 ;;                  2    3[COMMON] int 
  1633 ;; Registers used:
  1634 ;;		wreg, status,2, status,0
  1635 ;; Tracked objects:
  1636 ;;		On entry : 0/0
  1637 ;;		On exit  : 0/0
  1638 ;;		Unchanged: 0/0
  1639 ;; Data sizes:     COMMON   BANK0   BANK1   BANK3   BANK2
  1640 ;;      Params:         4       0       0       0       0
  1641 ;;      Locals:         0       4       0       0       0
  1642 ;;      Temps:          1       0       0       0       0
  1643 ;;      Totals:         5       4       0       0       0
  1644 ;;Total ram usage:        9 bytes
  1645 ;; Hardware stack levels used:    1
  1646 ;; Hardware stack levels required when called:    1
  1647 ;; This function calls:
  1648 ;;		Nothing
  1649 ;; This function is called by:
  1650 ;;		_main
  1651 ;; This function uses a non-reentrant model
  1652 ;;
  1653                           
  1654                           
  1655                           ;psect for function ___awdiv
  1656  00EA                     ___awdiv:
  1657  00EA                     l1168:	
  1658                           ;incstack = 0
  1659                           ; Regs used in ___awdiv: [wreg+status,2+status,0]
  1660                           
  1661  00EA  1283               	bcf	3,5	;RP0=0, select bank0
  1662  00EB  1303               	bcf	3,6	;RP1=0, select bank0
  1663  00EC  01A1               	clrf	___awdiv@sign
  1664  00ED                     l1170:
  1665  00ED  1FF4               	btfss	___awdiv@divisor+1,7
  1666  00EE  28F0               	goto	u461
  1667  00EF  28F1               	goto	u460
  1668  00F0                     u461:
  1669  00F0  28F8               	goto	l1176
  1670  00F1                     u460:
  1671  00F1                     l1172:
  1672  00F1  09F3               	comf	___awdiv@divisor,f
  1673  00F2  09F4               	comf	___awdiv@divisor+1,f
  1674  00F3  0AF3               	incf	___awdiv@divisor,f
  1675  00F4  1903               	skipnz
  1676  00F5  0AF4               	incf	___awdiv@divisor+1,f
  1677  00F6                     l1174:
  1678  00F6  01A1               	clrf	___awdiv@sign
  1679  00F7  0AA1               	incf	___awdiv@sign,f
  1680  00F8                     l1176:
  1681  00F8  1FF6               	btfss	___awdiv@dividend+1,7
  1682  00F9  28FB               	goto	u471
  1683  00FA  28FC               	goto	u470
  1684  00FB                     u471:
  1685  00FB  2905               	goto	l1182
  1686  00FC                     u470:
  1687  00FC                     l1178:
  1688  00FC  09F5               	comf	___awdiv@dividend,f
  1689  00FD  09F6               	comf	___awdiv@dividend+1,f
  1690  00FE  0AF5               	incf	___awdiv@dividend,f
  1691  00FF  1903               	skipnz
  1692  0100  0AF6               	incf	___awdiv@dividend+1,f
  1693  0101                     l1180:
  1694  0101  3001               	movlw	1
  1695  0102  00F7               	movwf	??___awdiv
  1696  0103  0877               	movf	??___awdiv,w
  1697  0104  06A1               	xorwf	___awdiv@sign,f
  1698  0105                     l1182:
  1699  0105  01A2               	clrf	___awdiv@quotient
  1700  0106  01A3               	clrf	___awdiv@quotient+1
  1701  0107                     l1184:
  1702  0107  0873               	movf	___awdiv@divisor,w
  1703  0108  0474               	iorwf	___awdiv@divisor+1,w
  1704  0109  1903               	btfsc	3,2
  1705  010A  290C               	goto	u481
  1706  010B  290D               	goto	u480
  1707  010C                     u481:
  1708  010C  2944               	goto	l1204
  1709  010D                     u480:
  1710  010D                     l1186:
  1711  010D  01A0               	clrf	___awdiv@counter
  1712  010E  0AA0               	incf	___awdiv@counter,f
  1713  010F  291B               	goto	l1192
  1714  0110                     l1188:
  1715  0110  3001               	movlw	1
  1716  0111                     u495:
  1717  0111  1003               	clrc
  1718  0112  0DF3               	rlf	___awdiv@divisor,f
  1719  0113  0DF4               	rlf	___awdiv@divisor+1,f
  1720  0114  3EFF               	addlw	-1
  1721  0115  1D03               	skipz
  1722  0116  2911               	goto	u495
  1723  0117                     l1190:
  1724  0117  3001               	movlw	1
  1725  0118  00F7               	movwf	??___awdiv
  1726  0119  0877               	movf	??___awdiv,w
  1727  011A  07A0               	addwf	___awdiv@counter,f
  1728  011B                     l1192:
  1729  011B  1FF4               	btfss	___awdiv@divisor+1,7
  1730  011C  291E               	goto	u501
  1731  011D  291F               	goto	u500
  1732  011E                     u501:
  1733  011E  2910               	goto	l1188
  1734  011F                     u500:
  1735  011F                     l1194:
  1736  011F  3001               	movlw	1
  1737  0120                     u515:
  1738  0120  1003               	clrc
  1739  0121  0DA2               	rlf	___awdiv@quotient,f
  1740  0122  0DA3               	rlf	___awdiv@quotient+1,f
  1741  0123  3EFF               	addlw	-1
  1742  0124  1D03               	skipz
  1743  0125  2920               	goto	u515
  1744  0126  0874               	movf	___awdiv@divisor+1,w
  1745  0127  0276               	subwf	___awdiv@dividend+1,w
  1746  0128  1D03               	skipz
  1747  0129  292C               	goto	u525
  1748  012A  0873               	movf	___awdiv@divisor,w
  1749  012B  0275               	subwf	___awdiv@dividend,w
  1750  012C                     u525:
  1751  012C  1C03               	skipc
  1752  012D  292F               	goto	u521
  1753  012E  2930               	goto	u520
  1754  012F                     u521:
  1755  012F  2937               	goto	l1200
  1756  0130                     u520:
  1757  0130                     l1196:
  1758  0130  0873               	movf	___awdiv@divisor,w
  1759  0131  02F5               	subwf	___awdiv@dividend,f
  1760  0132  0874               	movf	___awdiv@divisor+1,w
  1761  0133  1C03               	skipc
  1762  0134  03F6               	decf	___awdiv@dividend+1,f
  1763  0135  02F6               	subwf	___awdiv@dividend+1,f
  1764  0136                     l1198:
  1765  0136  1422               	bsf	___awdiv@quotient,0
  1766  0137                     l1200:
  1767  0137  3001               	movlw	1
  1768  0138                     u535:
  1769  0138  1003               	clrc
  1770  0139  0CF4               	rrf	___awdiv@divisor+1,f
  1771  013A  0CF3               	rrf	___awdiv@divisor,f
  1772  013B  3EFF               	addlw	-1
  1773  013C  1D03               	skipz
  1774  013D  2938               	goto	u535
  1775  013E                     l1202:
  1776  013E  3001               	movlw	1
  1777  013F  02A0               	subwf	___awdiv@counter,f
  1778  0140  1D03               	btfss	3,2
  1779  0141  2943               	goto	u541
  1780  0142  2944               	goto	u540
  1781  0143                     u541:
  1782  0143  291F               	goto	l1194
  1783  0144                     u540:
  1784  0144                     l1204:
  1785  0144  0821               	movf	___awdiv@sign,w
  1786  0145  1903               	btfsc	3,2
  1787  0146  2948               	goto	u551
  1788  0147  2949               	goto	u550
  1789  0148                     u551:
  1790  0148  294E               	goto	l1208
  1791  0149                     u550:
  1792  0149                     l1206:
  1793  0149  09A2               	comf	___awdiv@quotient,f
  1794  014A  09A3               	comf	___awdiv@quotient+1,f
  1795  014B  0AA2               	incf	___awdiv@quotient,f
  1796  014C  1903               	skipnz
  1797  014D  0AA3               	incf	___awdiv@quotient+1,f
  1798  014E                     l1208:
  1799  014E  0823               	movf	___awdiv@quotient+1,w
  1800  014F  00F4               	movwf	?___awdiv+1
  1801  0150  0822               	movf	___awdiv@quotient,w
  1802  0151  00F3               	movwf	?___awdiv
  1803  0152                     l429:
  1804  0152  0008               	return
  1805  0153                     __end_of___awdiv:
  1806                           
  1807                           	psect	text8
  1808  025F                     __ptext8:	
  1809 ;; *************** function _ADXL345_READ *****************
  1810 ;; Defined at:
  1811 ;;		line 115 in file "C:/Users/danie/OneDrive/Desktop/DIGITAL2/proyecto2/master.X/I2C.c"
  1812 ;; Parameters:    Size  Location     Type
  1813 ;;  var             1    wreg     unsigned char 
  1814 ;; Auto vars:     Size  Location     Type
  1815 ;;  var             1    4[BANK0 ] unsigned char 
  1816 ;;  leido           2    5[BANK0 ] unsigned short 
  1817 ;; Return value:  Size  Location     Type
  1818 ;;                  2    0[BANK0 ] unsigned short 
  1819 ;; Registers used:
  1820 ;;		wreg, status,2, status,0, pclath, cstack
  1821 ;; Tracked objects:
  1822 ;;		On entry : 0/0
  1823 ;;		On exit  : 0/0
  1824 ;;		Unchanged: 0/0
  1825 ;; Data sizes:     COMMON   BANK0   BANK1   BANK3   BANK2
  1826 ;;      Params:         0       2       0       0       0
  1827 ;;      Locals:         0       3       0       0       0
  1828 ;;      Temps:          0       2       0       0       0
  1829 ;;      Totals:         0       7       0       0       0
  1830 ;;Total ram usage:        7 bytes
  1831 ;; Hardware stack levels used:    1
  1832 ;; Hardware stack levels required when called:    3
  1833 ;; This function calls:
  1834 ;;		_I2C_Master_Read
  1835 ;;		_I2C_Master_Start
  1836 ;;		_I2C_Master_Stop
  1837 ;;		_I2C_Master_Write
  1838 ;; This function is called by:
  1839 ;;		_main
  1840 ;; This function uses a non-reentrant model
  1841 ;;
  1842                           
  1843                           
  1844                           ;psect for function _ADXL345_READ
  1845  025F                     _ADXL345_READ:
  1846                           
  1847                           ;incstack = 0
  1848                           ; Regs used in _ADXL345_READ: [wreg+status,2+status,0+pclath+cstack]
  1849                           ;ADXL345_READ@var stored from wreg
  1850  025F  1283               	bcf	3,5	;RP0=0, select bank0
  1851  0260  1303               	bcf	3,6	;RP1=0, select bank0
  1852  0261  00A4               	movwf	ADXL345_READ@var
  1853  0262                     l1336:
  1854                           
  1855                           ;C:/Users/danie/OneDrive/Desktop/DIGITAL2/proyecto2/master.X/I2C.c: 116:     unsigned sh
      +                          ort leido;;C:/Users/danie/OneDrive/Desktop/DIGITAL2/proyecto2/master.X/I2C.c: 117:     I
      +                          2C_Master_Start();
  1856  0262  120A  118A  23A5  120A  118A  	fcall	_I2C_Master_Start
  1857                           
  1858                           ;C:/Users/danie/OneDrive/Desktop/DIGITAL2/proyecto2/master.X/I2C.c: 118:     I2C_Master_
      +                          Write(0xA6);
  1859  0267  30A6               	movlw	166
  1860  0268  00F3               	movwf	I2C_Master_Write@d
  1861  0269  3000               	movlw	0
  1862  026A  00F4               	movwf	I2C_Master_Write@d+1
  1863  026B  120A  118A  2392  120A  118A  	fcall	_I2C_Master_Write
  1864                           
  1865                           ;C:/Users/danie/OneDrive/Desktop/DIGITAL2/proyecto2/master.X/I2C.c: 119:     I2C_Master_
      +                          Write(var);
  1866  0270  1283               	bcf	3,5	;RP0=0, select bank0
  1867  0271  1303               	bcf	3,6	;RP1=0, select bank0
  1868  0272  0824               	movf	ADXL345_READ@var,w
  1869  0273  00A2               	movwf	??_ADXL345_READ
  1870  0274  01A3               	clrf	??_ADXL345_READ+1
  1871  0275  0822               	movf	??_ADXL345_READ,w
  1872  0276  00F3               	movwf	I2C_Master_Write@d
  1873  0277  0823               	movf	??_ADXL345_READ+1,w
  1874  0278  00F4               	movwf	I2C_Master_Write@d+1
  1875  0279  120A  118A  2392  120A  118A  	fcall	_I2C_Master_Write
  1876                           
  1877                           ;C:/Users/danie/OneDrive/Desktop/DIGITAL2/proyecto2/master.X/I2C.c: 120:     I2C_Master_
      +                          Start();
  1878  027E  120A  118A  23A5  120A  118A  	fcall	_I2C_Master_Start
  1879                           
  1880                           ;C:/Users/danie/OneDrive/Desktop/DIGITAL2/proyecto2/master.X/I2C.c: 121:     I2C_Master_
      +                          Write(0xA7);
  1881  0283  30A7               	movlw	167
  1882  0284  00F3               	movwf	I2C_Master_Write@d
  1883  0285  3000               	movlw	0
  1884  0286  00F4               	movwf	I2C_Master_Write@d+1
  1885  0287  120A  118A  2392  120A  118A  	fcall	_I2C_Master_Write
  1886                           
  1887                           ;C:/Users/danie/OneDrive/Desktop/DIGITAL2/proyecto2/master.X/I2C.c: 122:     leido = I2C
      +                          _Master_Read(0);
  1888  028C  3000               	movlw	0
  1889  028D  00F3               	movwf	I2C_Master_Read@a
  1890  028E  00F4               	movwf	I2C_Master_Read@a+1
  1891  028F  120A  118A  22E0  120A  118A  	fcall	_I2C_Master_Read
  1892  0294  0874               	movf	?_I2C_Master_Read+1,w
  1893  0295  1283               	bcf	3,5	;RP0=0, select bank0
  1894  0296  1303               	bcf	3,6	;RP1=0, select bank0
  1895  0297  00A6               	movwf	ADXL345_READ@leido+1
  1896  0298  0873               	movf	?_I2C_Master_Read,w
  1897  0299  00A5               	movwf	ADXL345_READ@leido
  1898                           
  1899                           ;C:/Users/danie/OneDrive/Desktop/DIGITAL2/proyecto2/master.X/I2C.c: 123:     I2C_Master_
      +                          Stop();
  1900  029A  120A  118A  239C  120A  118A  	fcall	_I2C_Master_Stop
  1901  029F                     l1338:
  1902                           
  1903                           ;C:/Users/danie/OneDrive/Desktop/DIGITAL2/proyecto2/master.X/I2C.c: 124:     return leid
      +                          o;
  1904  029F  1283               	bcf	3,5	;RP0=0, select bank0
  1905  02A0  1303               	bcf	3,6	;RP1=0, select bank0
  1906  02A1  0826               	movf	ADXL345_READ@leido+1,w
  1907  02A2  00A1               	movwf	?_ADXL345_READ+1
  1908  02A3  0825               	movf	ADXL345_READ@leido,w
  1909  02A4  00A0               	movwf	?_ADXL345_READ
  1910  02A5                     l168:
  1911  02A5  0008               	return
  1912  02A6                     __end_of_ADXL345_READ:
  1913                           
  1914                           	psect	text9
  1915  0392                     __ptext9:	
  1916 ;; *************** function _I2C_Master_Write *****************
  1917 ;; Defined at:
  1918 ;;		line 64 in file "C:/Users/danie/OneDrive/Desktop/DIGITAL2/proyecto2/master.X/I2C.c"
  1919 ;; Parameters:    Size  Location     Type
  1920 ;;  d               2    3[COMMON] unsigned int 
  1921 ;; Auto vars:     Size  Location     Type
  1922 ;;		None
  1923 ;; Return value:  Size  Location     Type
  1924 ;;                  1    wreg      void 
  1925 ;; Registers used:
  1926 ;;		wreg, status,2, status,0, pclath, cstack
  1927 ;; Tracked objects:
  1928 ;;		On entry : 0/0
  1929 ;;		On exit  : 0/0
  1930 ;;		Unchanged: 0/0
  1931 ;; Data sizes:     COMMON   BANK0   BANK1   BANK3   BANK2
  1932 ;;      Params:         2       0       0       0       0
  1933 ;;      Locals:         0       0       0       0       0
  1934 ;;      Temps:          0       0       0       0       0
  1935 ;;      Totals:         2       0       0       0       0
  1936 ;;Total ram usage:        2 bytes
  1937 ;; Hardware stack levels used:    1
  1938 ;; Hardware stack levels required when called:    2
  1939 ;; This function calls:
  1940 ;;		_I2C_Master_Wait
  1941 ;; This function is called by:
  1942 ;;		_ADXL345_READ
  1943 ;;		_ADXL345_WRITE
  1944 ;; This function uses a non-reentrant model
  1945 ;;
  1946                           
  1947                           
  1948                           ;psect for function _I2C_Master_Write
  1949  0392                     _I2C_Master_Write:
  1950  0392                     l1044:	
  1951                           ;incstack = 0
  1952                           ; Regs used in _I2C_Master_Write: [wreg+status,2+status,0+pclath+cstack]
  1953                           
  1954                           
  1955                           ;C:/Users/danie/OneDrive/Desktop/DIGITAL2/proyecto2/master.X/I2C.c: 64: void I2C_Master_
      +                          Write(unsigned d);C:/Users/danie/OneDrive/Desktop/DIGITAL2/proyecto2/master.X/I2C.c: 65:
      +                           {;C:/Users/danie/OneDrive/Desktop/DIGITAL2/proyecto2/master.X/I2C.c: 66:     I2C_Master
      +                          _Wait();
  1956  0392  120A  118A  2385  120A  118A  	fcall	_I2C_Master_Wait
  1957  0397                     l1046:
  1958                           
  1959                           ;C:/Users/danie/OneDrive/Desktop/DIGITAL2/proyecto2/master.X/I2C.c: 67:     SSPBUF = d;
  1960  0397  0873               	movf	I2C_Master_Write@d,w
  1961  0398  1283               	bcf	3,5	;RP0=0, select bank0
  1962  0399  1303               	bcf	3,6	;RP1=0, select bank0
  1963  039A  0093               	movwf	19	;volatile
  1964  039B                     l154:
  1965  039B  0008               	return
  1966  039C                     __end_of_I2C_Master_Write:
  1967                           
  1968                           	psect	text10
  1969  039C                     __ptext10:	
  1970 ;; *************** function _I2C_Master_Stop *****************
  1971 ;; Defined at:
  1972 ;;		line 54 in file "C:/Users/danie/OneDrive/Desktop/DIGITAL2/proyecto2/master.X/I2C.c"
  1973 ;; Parameters:    Size  Location     Type
  1974 ;;		None
  1975 ;; Auto vars:     Size  Location     Type
  1976 ;;		None
  1977 ;; Return value:  Size  Location     Type
  1978 ;;                  1    wreg      void 
  1979 ;; Registers used:
  1980 ;;		wreg, status,2, status,0, pclath, cstack
  1981 ;; Tracked objects:
  1982 ;;		On entry : 0/0
  1983 ;;		On exit  : 0/0
  1984 ;;		Unchanged: 0/0
  1985 ;; Data sizes:     COMMON   BANK0   BANK1   BANK3   BANK2
  1986 ;;      Params:         0       0       0       0       0
  1987 ;;      Locals:         0       0       0       0       0
  1988 ;;      Temps:          0       0       0       0       0
  1989 ;;      Totals:         0       0       0       0       0
  1990 ;;Total ram usage:        0 bytes
  1991 ;; Hardware stack levels used:    1
  1992 ;; Hardware stack levels required when called:    2
  1993 ;; This function calls:
  1994 ;;		_I2C_Master_Wait
  1995 ;; This function is called by:
  1996 ;;		_ADXL345_READ
  1997 ;;		_ADXL345_WRITE
  1998 ;; This function uses a non-reentrant model
  1999 ;;
  2000                           
  2001                           
  2002                           ;psect for function _I2C_Master_Stop
  2003  039C                     _I2C_Master_Stop:
  2004  039C                     l1040:	
  2005                           ;incstack = 0
  2006                           ; Regs used in _I2C_Master_Stop: [wreg+status,2+status,0+pclath+cstack]
  2007                           
  2008                           
  2009                           ;C:/Users/danie/OneDrive/Desktop/DIGITAL2/proyecto2/master.X/I2C.c: 56:     I2C_Master_W
      +                          ait();
  2010  039C  120A  118A  2385  120A  118A  	fcall	_I2C_Master_Wait
  2011  03A1                     l1042:
  2012                           
  2013                           ;C:/Users/danie/OneDrive/Desktop/DIGITAL2/proyecto2/master.X/I2C.c: 57:     SSPCON2bits.
      +                          PEN = 1;
  2014  03A1  1683               	bsf	3,5	;RP0=1, select bank1
  2015  03A2  1303               	bcf	3,6	;RP1=0, select bank1
  2016  03A3  1511               	bsf	17,2	;volatile
  2017  03A4                     l151:
  2018  03A4  0008               	return
  2019  03A5                     __end_of_I2C_Master_Stop:
  2020                           
  2021                           	psect	text11
  2022  03A5                     __ptext11:	
  2023 ;; *************** function _I2C_Master_Start *****************
  2024 ;; Defined at:
  2025 ;;		line 38 in file "C:/Users/danie/OneDrive/Desktop/DIGITAL2/proyecto2/master.X/I2C.c"
  2026 ;; Parameters:    Size  Location     Type
  2027 ;;		None
  2028 ;; Auto vars:     Size  Location     Type
  2029 ;;		None
  2030 ;; Return value:  Size  Location     Type
  2031 ;;                  1    wreg      void 
  2032 ;; Registers used:
  2033 ;;		wreg, status,2, status,0, pclath, cstack
  2034 ;; Tracked objects:
  2035 ;;		On entry : 0/0
  2036 ;;		On exit  : 0/0
  2037 ;;		Unchanged: 0/0
  2038 ;; Data sizes:     COMMON   BANK0   BANK1   BANK3   BANK2
  2039 ;;      Params:         0       0       0       0       0
  2040 ;;      Locals:         0       0       0       0       0
  2041 ;;      Temps:          0       0       0       0       0
  2042 ;;      Totals:         0       0       0       0       0
  2043 ;;Total ram usage:        0 bytes
  2044 ;; Hardware stack levels used:    1
  2045 ;; Hardware stack levels required when called:    2
  2046 ;; This function calls:
  2047 ;;		_I2C_Master_Wait
  2048 ;; This function is called by:
  2049 ;;		_ADXL345_READ
  2050 ;;		_ADXL345_WRITE
  2051 ;; This function uses a non-reentrant model
  2052 ;;
  2053                           
  2054                           
  2055                           ;psect for function _I2C_Master_Start
  2056  03A5                     _I2C_Master_Start:
  2057  03A5                     l1036:	
  2058                           ;incstack = 0
  2059                           ; Regs used in _I2C_Master_Start: [wreg+status,2+status,0+pclath+cstack]
  2060                           
  2061                           
  2062                           ;C:/Users/danie/OneDrive/Desktop/DIGITAL2/proyecto2/master.X/I2C.c: 40:     I2C_Master_W
      +                          ait();
  2063  03A5  120A  118A  2385  120A  118A  	fcall	_I2C_Master_Wait
  2064  03AA                     l1038:
  2065                           
  2066                           ;C:/Users/danie/OneDrive/Desktop/DIGITAL2/proyecto2/master.X/I2C.c: 41:     SSPCON2bits.
      +                          SEN = 1;
  2067  03AA  1683               	bsf	3,5	;RP0=1, select bank1
  2068  03AB  1303               	bcf	3,6	;RP1=0, select bank1
  2069  03AC  1411               	bsf	17,0	;volatile
  2070  03AD                     l145:
  2071  03AD  0008               	return
  2072  03AE                     __end_of_I2C_Master_Start:
  2073                           
  2074                           	psect	text12
  2075  02E0                     __ptext12:	
  2076 ;; *************** function _I2C_Master_Read *****************
  2077 ;; Defined at:
  2078 ;;		line 73 in file "C:/Users/danie/OneDrive/Desktop/DIGITAL2/proyecto2/master.X/I2C.c"
  2079 ;; Parameters:    Size  Location     Type
  2080 ;;  a               2    3[COMMON] unsigned short 
  2081 ;; Auto vars:     Size  Location     Type
  2082 ;;  temp            2    7[COMMON] unsigned short 
  2083 ;; Return value:  Size  Location     Type
  2084 ;;                  2    3[COMMON] unsigned short 
  2085 ;; Registers used:
  2086 ;;		wreg, status,2, status,0, pclath, cstack
  2087 ;; Tracked objects:
  2088 ;;		On entry : 0/0
  2089 ;;		On exit  : 0/0
  2090 ;;		Unchanged: 0/0
  2091 ;; Data sizes:     COMMON   BANK0   BANK1   BANK3   BANK2
  2092 ;;      Params:         2       0       0       0       0
  2093 ;;      Locals:         2       0       0       0       0
  2094 ;;      Temps:          2       0       0       0       0
  2095 ;;      Totals:         6       0       0       0       0
  2096 ;;Total ram usage:        6 bytes
  2097 ;; Hardware stack levels used:    1
  2098 ;; Hardware stack levels required when called:    2
  2099 ;; This function calls:
  2100 ;;		_I2C_Master_Wait
  2101 ;; This function is called by:
  2102 ;;		_ADXL345_READ
  2103 ;; This function uses a non-reentrant model
  2104 ;;
  2105                           
  2106                           
  2107                           ;psect for function _I2C_Master_Read
  2108  02E0                     _I2C_Master_Read:
  2109  02E0                     l1120:	
  2110                           ;incstack = 0
  2111                           ; Regs used in _I2C_Master_Read: [wreg+status,2+status,0+pclath+cstack]
  2112                           
  2113                           
  2114                           ;C:/Users/danie/OneDrive/Desktop/DIGITAL2/proyecto2/master.X/I2C.c: 73: unsigned short I
      +                          2C_Master_Read(unsigned short a);C:/Users/danie/OneDrive/Desktop/DIGITAL2/proyecto2/mast
      +                          er.X/I2C.c: 74: {;C:/Users/danie/OneDrive/Desktop/DIGITAL2/proyecto2/master.X/I2C.c: 75:
      +                               unsigned short temp;;C:/Users/danie/OneDrive/Desktop/DIGITAL2/proyecto2/master.X/I2
      +                          C.c: 76:     I2C_Master_Wait();
  2115  02E0  120A  118A  2385  120A  118A  	fcall	_I2C_Master_Wait
  2116  02E5                     l1122:
  2117                           
  2118                           ;C:/Users/danie/OneDrive/Desktop/DIGITAL2/proyecto2/master.X/I2C.c: 77:     SSPCON2bits.
      +                          RCEN = 1;
  2119  02E5  1683               	bsf	3,5	;RP0=1, select bank1
  2120  02E6  1303               	bcf	3,6	;RP1=0, select bank1
  2121  02E7  1591               	bsf	17,3	;volatile
  2122                           
  2123                           ;C:/Users/danie/OneDrive/Desktop/DIGITAL2/proyecto2/master.X/I2C.c: 78:     I2C_Master_W
      +                          ait();
  2124  02E8  120A  118A  2385  120A  118A  	fcall	_I2C_Master_Wait
  2125  02ED                     l1124:
  2126                           
  2127                           ;C:/Users/danie/OneDrive/Desktop/DIGITAL2/proyecto2/master.X/I2C.c: 79:     temp = SSPBU
      +                          F;
  2128  02ED  1283               	bcf	3,5	;RP0=0, select bank0
  2129  02EE  1303               	bcf	3,6	;RP1=0, select bank0
  2130  02EF  0813               	movf	19,w	;volatile
  2131  02F0  00F5               	movwf	??_I2C_Master_Read
  2132  02F1  01F6               	clrf	??_I2C_Master_Read+1
  2133  02F2  0875               	movf	??_I2C_Master_Read,w
  2134  02F3  00F7               	movwf	I2C_Master_Read@temp
  2135  02F4  0876               	movf	??_I2C_Master_Read+1,w
  2136  02F5  00F8               	movwf	I2C_Master_Read@temp+1
  2137  02F6                     l1126:
  2138                           
  2139                           ;C:/Users/danie/OneDrive/Desktop/DIGITAL2/proyecto2/master.X/I2C.c: 80:     I2C_Master_W
      +                          ait();
  2140  02F6  120A  118A  2385  120A  118A  	fcall	_I2C_Master_Wait
  2141  02FB                     l1128:
  2142                           
  2143                           ;C:/Users/danie/OneDrive/Desktop/DIGITAL2/proyecto2/master.X/I2C.c: 81:     if(a == 1){
  2144  02FB  0373               	decf	I2C_Master_Read@a,w
  2145  02FC  0474               	iorwf	I2C_Master_Read@a+1,w
  2146  02FD  1D03               	btfss	3,2
  2147  02FE  2B00               	goto	u451
  2148  02FF  2B01               	goto	u450
  2149  0300                     u451:
  2150  0300  2B05               	goto	l157
  2151  0301                     u450:
  2152  0301                     l1130:
  2153                           
  2154                           ;C:/Users/danie/OneDrive/Desktop/DIGITAL2/proyecto2/master.X/I2C.c: 82:         SSPCON2b
      +                          its.ACKDT = 0;
  2155  0301  1683               	bsf	3,5	;RP0=1, select bank1
  2156  0302  1303               	bcf	3,6	;RP1=0, select bank1
  2157  0303  1291               	bcf	17,5	;volatile
  2158                           
  2159                           ;C:/Users/danie/OneDrive/Desktop/DIGITAL2/proyecto2/master.X/I2C.c: 83:     }else{
  2160  0304  2B08               	goto	l158
  2161  0305                     l157:
  2162                           
  2163                           ;C:/Users/danie/OneDrive/Desktop/DIGITAL2/proyecto2/master.X/I2C.c: 84:         SSPCON2b
      +                          its.ACKDT = 1;
  2164  0305  1683               	bsf	3,5	;RP0=1, select bank1
  2165  0306  1303               	bcf	3,6	;RP1=0, select bank1
  2166  0307  1691               	bsf	17,5	;volatile
  2167  0308                     l158:	
  2168                           ;C:/Users/danie/OneDrive/Desktop/DIGITAL2/proyecto2/master.X/I2C.c: 85:     }
  2169                           
  2170                           
  2171                           ;C:/Users/danie/OneDrive/Desktop/DIGITAL2/proyecto2/master.X/I2C.c: 86:     SSPCON2bits.
      +                          ACKEN = 1;
  2172  0308  1611               	bsf	17,4	;volatile
  2173  0309                     l1132:
  2174                           
  2175                           ;C:/Users/danie/OneDrive/Desktop/DIGITAL2/proyecto2/master.X/I2C.c: 87:     return temp;
  2176  0309  0878               	movf	I2C_Master_Read@temp+1,w
  2177  030A  00F4               	movwf	?_I2C_Master_Read+1
  2178  030B  0877               	movf	I2C_Master_Read@temp,w
  2179  030C  00F3               	movwf	?_I2C_Master_Read
  2180  030D                     l159:
  2181  030D  0008               	return
  2182  030E                     __end_of_I2C_Master_Read:
  2183                           
  2184                           	psect	text13
  2185  0385                     __ptext13:	
  2186 ;; *************** function _I2C_Master_Wait *****************
  2187 ;; Defined at:
  2188 ;;		line 31 in file "C:/Users/danie/OneDrive/Desktop/DIGITAL2/proyecto2/master.X/I2C.c"
  2189 ;; Parameters:    Size  Location     Type
  2190 ;;		None
  2191 ;; Auto vars:     Size  Location     Type
  2192 ;;		None
  2193 ;; Return value:  Size  Location     Type
  2194 ;;                  1    wreg      void 
  2195 ;; Registers used:
  2196 ;;		wreg, status,2
  2197 ;; Tracked objects:
  2198 ;;		On entry : 0/0
  2199 ;;		On exit  : 0/0
  2200 ;;		Unchanged: 0/0
  2201 ;; Data sizes:     COMMON   BANK0   BANK1   BANK3   BANK2
  2202 ;;      Params:         0       0       0       0       0
  2203 ;;      Locals:         0       0       0       0       0
  2204 ;;      Temps:          0       0       0       0       0
  2205 ;;      Totals:         0       0       0       0       0
  2206 ;;Total ram usage:        0 bytes
  2207 ;; Hardware stack levels used:    1
  2208 ;; Hardware stack levels required when called:    1
  2209 ;; This function calls:
  2210 ;;		Nothing
  2211 ;; This function is called by:
  2212 ;;		_I2C_Master_Start
  2213 ;;		_I2C_Master_Stop
  2214 ;;		_I2C_Master_Write
  2215 ;;		_I2C_Master_Read
  2216 ;;		_I2C_Master_RepeatedStart
  2217 ;; This function uses a non-reentrant model
  2218 ;;
  2219                           
  2220                           
  2221                           ;psect for function _I2C_Master_Wait
  2222  0385                     _I2C_Master_Wait:
  2223  0385                     l1032:	
  2224                           ;incstack = 0
  2225                           ; Regs used in _I2C_Master_Wait: [wreg+status,2]
  2226                           
  2227  0385                     l139:	
  2228                           ;C:/Users/danie/OneDrive/Desktop/DIGITAL2/proyecto2/master.X/I2C.c: 33:     while ((SSPS
      +                          TAT & 0x04) || (SSPCON2 & 0x1F));
  2229                           
  2230  0385  1683               	bsf	3,5	;RP0=1, select bank1
  2231  0386  1303               	bcf	3,6	;RP1=0, select bank1
  2232  0387  1914               	btfsc	20,2	;volatile
  2233  0388  2B8A               	goto	u351
  2234  0389  2B8B               	goto	u350
  2235  038A                     u351:
  2236  038A  2B85               	goto	l139
  2237  038B                     u350:
  2238  038B                     l1034:
  2239  038B  0811               	movf	17,w	;volatile
  2240  038C  391F               	andlw	31
  2241  038D  1D03               	btfss	3,2
  2242  038E  2B90               	goto	u361
  2243  038F  2B91               	goto	u360
  2244  0390                     u361:
  2245  0390  2B85               	goto	l139
  2246  0391                     u360:
  2247  0391                     l142:
  2248  0391  0008               	return
  2249  0392                     __end_of_I2C_Master_Wait:
  2250                           
  2251                           	psect	text14
  2252  01BB                     __ptext14:	
  2253 ;; *************** function _isr *****************
  2254 ;; Defined at:
  2255 ;;		line 58 in file "C:/Users/danie/OneDrive/Desktop/DIGITAL2/proyecto2/master.X/main_pic.c"
  2256 ;; Parameters:    Size  Location     Type
  2257 ;;		None
  2258 ;; Auto vars:     Size  Location     Type
  2259 ;;		None
  2260 ;; Return value:  Size  Location     Type
  2261 ;;                  1    wreg      void 
  2262 ;; Registers used:
  2263 ;;		wreg, status,2, status,0
  2264 ;; Tracked objects:
  2265 ;;		On entry : 0/0
  2266 ;;		On exit  : 0/0
  2267 ;;		Unchanged: 0/0
  2268 ;; Data sizes:     COMMON   BANK0   BANK1   BANK3   BANK2
  2269 ;;      Params:         0       0       0       0       0
  2270 ;;      Locals:         0       0       0       0       0
  2271 ;;      Temps:          3       0       0       0       0
  2272 ;;      Totals:         3       0       0       0       0
  2273 ;;Total ram usage:        3 bytes
  2274 ;; Hardware stack levels used:    1
  2275 ;; This function calls:
  2276 ;;		Nothing
  2277 ;; This function is called by:
  2278 ;;		Interrupt level 1
  2279 ;; This function uses a non-reentrant model
  2280 ;;
  2281                           
  2282                           
  2283                           ;psect for function _isr
  2284  01BB                     _isr:
  2285  01BB                     i1l1212:
  2286                           
  2287                           ;C:/Users/danie/OneDrive/Desktop/DIGITAL2/proyecto2/master.X/main_pic.c: 59:     if (INT
      +                          CONbits.T0IF){
  2288  01BB  1D0B               	btfss	11,2	;volatile
  2289  01BC  29BE               	goto	u56_21
  2290  01BD  29BF               	goto	u56_20
  2291  01BE                     u56_21:
  2292  01BE  29CA               	goto	i1l1218
  2293  01BF                     u56_20:
  2294  01BF                     i1l1214:
  2295                           
  2296                           ;C:/Users/danie/OneDrive/Desktop/DIGITAL2/proyecto2/master.X/main_pic.c: 60:         CON
      +                          TX++;
  2297  01BF  3001               	movlw	1
  2298  01C0  00F0               	movwf	??_isr
  2299  01C1  0870               	movf	??_isr,w
  2300  01C2  1283               	bcf	3,5	;RP0=0, select bank0
  2301  01C3  1303               	bcf	3,6	;RP1=0, select bank0
  2302  01C4  07B5               	addwf	_CONTX,f
  2303                           
  2304                           ;C:/Users/danie/OneDrive/Desktop/DIGITAL2/proyecto2/master.X/main_pic.c: 61:         pru
      +                          eba++;
  2305  01C5  3001               	movlw	1
  2306  01C6  00F0               	movwf	??_isr
  2307  01C7  0870               	movf	??_isr,w
  2308  01C8  07BE               	addwf	_prueba,f
  2309  01C9                     i1l1216:
  2310                           
  2311                           ;C:/Users/danie/OneDrive/Desktop/DIGITAL2/proyecto2/master.X/main_pic.c: 62:         INT
      +                          CONbits.T0IF = 0;
  2312  01C9  110B               	bcf	11,2	;volatile
  2313  01CA                     i1l1218:
  2314                           
  2315                           ;C:/Users/danie/OneDrive/Desktop/DIGITAL2/proyecto2/master.X/main_pic.c: 65:     if (TXI
      +                          F == 1){
  2316  01CA  1283               	bcf	3,5	;RP0=0, select bank0
  2317  01CB  1303               	bcf	3,6	;RP1=0, select bank0
  2318  01CC  1E0C               	btfss	12,4	;volatile
  2319  01CD  29CF               	goto	u57_21
  2320  01CE  29D0               	goto	u57_20
  2321  01CF                     u57_21:
  2322  01CF  29FF               	goto	i1l1246
  2323  01D0                     u57_20:
  2324  01D0                     i1l1220:
  2325                           
  2326                           ;C:/Users/danie/OneDrive/Desktop/DIGITAL2/proyecto2/master.X/main_pic.c: 66:         if 
      +                          (tx_var == 1){
  2327  01D0  0334               	decf	_tx_var,w
  2328  01D1  1D03               	btfss	3,2
  2329  01D2  29D4               	goto	u58_21
  2330  01D3  29D5               	goto	u58_20
  2331  01D4                     u58_21:
  2332  01D4  29FC               	goto	i1l1244
  2333  01D5                     u58_20:
  2334  01D5                     i1l1222:
  2335                           
  2336                           ;C:/Users/danie/OneDrive/Desktop/DIGITAL2/proyecto2/master.X/main_pic.c: 67:            
      +                           tx_var = 0;
  2337  01D5  01B4               	clrf	_tx_var
  2338  01D6                     i1l1224:
  2339                           
  2340                           ;C:/Users/danie/OneDrive/Desktop/DIGITAL2/proyecto2/master.X/main_pic.c: 68:            
      +                           if (bandera == 0){
  2341  01D6  087A               	movf	_bandera,w
  2342  01D7  1D03               	btfss	3,2
  2343  01D8  29DA               	goto	u59_21
  2344  01D9  29DB               	goto	u59_20
  2345  01DA                     u59_21:
  2346  01DA  29DE               	goto	i1l1228
  2347  01DB                     u59_20:
  2348  01DB                     i1l1226:
  2349                           
  2350                           ;C:/Users/danie/OneDrive/Desktop/DIGITAL2/proyecto2/master.X/main_pic.c: 69:            
      +                               TXREG = eje_x;
  2351  01DB  083F               	movf	_eje_x,w
  2352  01DC  0099               	movwf	25	;volatile
  2353                           
  2354                           ;C:/Users/danie/OneDrive/Desktop/DIGITAL2/proyecto2/master.X/main_pic.c: 71:            
      +                           } else if (bandera == 1) {
  2355  01DD  29FC               	goto	i1l1244
  2356  01DE                     i1l1228:
  2357  01DE  037A               	decf	_bandera,w
  2358  01DF  1D03               	btfss	3,2
  2359  01E0  29E2               	goto	u60_21
  2360  01E1  29E3               	goto	u60_20
  2361  01E2                     u60_21:
  2362  01E2  29EA               	goto	i1l1234
  2363  01E3                     u60_20:
  2364  01E3                     i1l1230:
  2365                           
  2366                           ;C:/Users/danie/OneDrive/Desktop/DIGITAL2/proyecto2/master.X/main_pic.c: 72:            
      +                               TXREG = eje_y;
  2367  01E3  083D               	movf	_eje_y,w
  2368  01E4  0099               	movwf	25	;volatile
  2369  01E5                     i1l1232:
  2370                           
  2371                           ;C:/Users/danie/OneDrive/Desktop/DIGITAL2/proyecto2/master.X/main_pic.c: 73:            
      +                               bandera++;
  2372  01E5  3001               	movlw	1
  2373  01E6  00F0               	movwf	??_isr
  2374  01E7  0870               	movf	??_isr,w
  2375  01E8  07FA               	addwf	_bandera,f
  2376                           
  2377                           ;C:/Users/danie/OneDrive/Desktop/DIGITAL2/proyecto2/master.X/main_pic.c: 74:            
      +                           } else if (bandera == 2){
  2378  01E9  29FC               	goto	i1l1244
  2379  01EA                     i1l1234:
  2380  01EA  3002               	movlw	2
  2381  01EB  067A               	xorwf	_bandera,w
  2382  01EC  1D03               	btfss	3,2
  2383  01ED  29EF               	goto	u61_21
  2384  01EE  29F0               	goto	u61_20
  2385  01EF                     u61_21:
  2386  01EF  29F3               	goto	i1l1240
  2387  01F0                     u61_20:
  2388  01F0                     i1l1236:
  2389                           
  2390                           ;C:/Users/danie/OneDrive/Desktop/DIGITAL2/proyecto2/master.X/main_pic.c: 75:            
      +                               TXREG = eje_z;
  2391  01F0  083C               	movf	_eje_z,w
  2392  01F1  0099               	movwf	25	;volatile
  2393  01F2  29E5               	goto	i1l1232
  2394  01F3                     i1l1240:
  2395  01F3  3003               	movlw	3
  2396  01F4  067A               	xorwf	_bandera,w
  2397  01F5  1D03               	btfss	3,2
  2398  01F6  29F8               	goto	u62_21
  2399  01F7  29F9               	goto	u62_20
  2400  01F8                     u62_21:
  2401  01F8  29FC               	goto	i1l83
  2402  01F9                     u62_20:
  2403  01F9                     i1l1242:
  2404                           
  2405                           ;C:/Users/danie/OneDrive/Desktop/DIGITAL2/proyecto2/master.X/main_pic.c: 78:            
      +                               TXREG = 10;
  2406  01F9  300A               	movlw	10
  2407  01FA  0099               	movwf	25	;volatile
  2408  01FB  29FC               	goto	i1l1244
  2409  01FC                     i1l83:
  2410  01FC                     i1l1244:
  2411                           
  2412                           ;C:/Users/danie/OneDrive/Desktop/DIGITAL2/proyecto2/master.X/main_pic.c: 82:         TXI
      +                          E = 0;
  2413  01FC  1683               	bsf	3,5	;RP0=1, select bank1
  2414  01FD  1303               	bcf	3,6	;RP1=0, select bank1
  2415  01FE  120C               	bcf	12,4	;volatile
  2416  01FF                     i1l1246:
  2417                           
  2418                           ;C:/Users/danie/OneDrive/Desktop/DIGITAL2/proyecto2/master.X/main_pic.c: 86:     if(PIR1
      +                          bits.RCIF == 1){
  2419  01FF  1283               	bcf	3,5	;RP0=0, select bank0
  2420  0200  1E8C               	btfss	12,5	;volatile
  2421  0201  2A03               	goto	u63_21
  2422  0202  2A04               	goto	u63_20
  2423  0203                     u63_21:
  2424  0203  2A0E               	goto	i1l91
  2425  0204                     u63_20:
  2426  0204                     i1l1248:
  2427                           
  2428                           ;C:/Users/danie/OneDrive/Desktop/DIGITAL2/proyecto2/master.X/main_pic.c: 87:         POR
      +                          TE = RCREG;
  2429  0204  081A               	movf	26,w	;volatile
  2430  0205  0089               	movwf	9	;volatile
  2431                           
  2432                           ;C:/Users/danie/OneDrive/Desktop/DIGITAL2/proyecto2/master.X/main_pic.c: 88:         if 
      +                          (RCREG > 30){
  2433  0206  301F               	movlw	31
  2434  0207  021A               	subwf	26,w	;volatile
  2435  0208  1C03               	skipc
  2436  0209  2A0B               	goto	u64_21
  2437  020A  2A0C               	goto	u64_20
  2438  020B                     u64_21:
  2439  020B  2A0E               	goto	i1l91
  2440  020C                     u64_20:
  2441  020C                     i1l1250:
  2442                           
  2443                           ;C:/Users/danie/OneDrive/Desktop/DIGITAL2/proyecto2/master.X/main_pic.c: 89:            
      +                           tx_var = 1;
  2444  020C  01B4               	clrf	_tx_var
  2445  020D  0AB4               	incf	_tx_var,f
  2446  020E                     i1l91:
  2447  020E  0872               	movf	??_isr+2,w
  2448  020F  008A               	movwf	10
  2449  0210  0E71               	swapf	??_isr+1,w
  2450  0211  0083               	movwf	3
  2451  0212  0EFE               	swapf	btemp,f
  2452  0213  0E7E               	swapf	btemp,w
  2453  0214  0009               	retfie
  2454  0215                     __end_of_isr:
  2455  007E                     btemp	set	126	;btemp
  2456  007E                     wtemp0	set	126
  2457                           
  2458                           	psect	intentry
  2459  0004                     __pintentry:	
  2460                           ;incstack = 0
  2461                           ; Regs used in _isr: [wreg+status,2+status,0]
  2462                           
  2463  0004                     interrupt_function:
  2464  007E                     saved_w	set	btemp
  2465  0004  00FE               	movwf	btemp
  2466  0005  0E03               	swapf	3,w
  2467  0006  00F1               	movwf	??_isr+1
  2468  0007  080A               	movf	10,w
  2469  0008  00F2               	movwf	??_isr+2
  2470  0009  120A  118A  29BB   	ljmp	_isr
  2471                           
  2472                           	psect	config
  2473                           
  2474                           ;Config register CONFIG1 @ 0x2007
  2475                           ;	Oscillator Selection bits
  2476                           ;	FOSC = INTRC_NOCLKOUT, INTOSCIO oscillator: I/O function on RA6/OSC2/CLKOUT pin, I/O f
      +                          unction on RA7/OSC1/CLKIN
  2477                           ;	Watchdog Timer Enable bit
  2478                           ;	WDTE = OFF, WDT disabled and can be enabled by SWDTEN bit of the WDTCON register
  2479                           ;	Power-up Timer Enable bit
  2480                           ;	PWRTE = OFF, PWRT disabled
  2481                           ;	RE3/MCLR pin function select bit
  2482                           ;	MCLRE = OFF, RE3/MCLR pin function is digital input, MCLR internally tied to VDD
  2483                           ;	Code Protection bit
  2484                           ;	CP = OFF, Program memory code protection is disabled
  2485                           ;	Data Code Protection bit
  2486                           ;	CPD = OFF, Data memory code protection is disabled
  2487                           ;	Brown Out Reset Selection bits
  2488                           ;	BOREN = OFF, BOR disabled
  2489                           ;	Internal External Switchover bit
  2490                           ;	IESO = OFF, Internal/External Switchover mode is disabled
  2491                           ;	Fail-Safe Clock Monitor Enabled bit
  2492                           ;	FCMEN = OFF, Fail-Safe Clock Monitor is disabled
  2493                           ;	Low Voltage Programming Enable bit
  2494                           ;	LVP = OFF, RB3 pin has digital I/O, HV on MCLR must be used for programming
  2495                           ;	In-Circuit Debugger Mode bit
  2496                           ;	DEBUG = 0x1, unprogrammed default
  2497  2007                     	org	8199
  2498  2007  20D4               	dw	8404
  2499                           
  2500                           ;Config register CONFIG2 @ 0x2008
  2501                           ;	Brown-out Reset Selection bit
  2502                           ;	BOR4V = BOR40V, Brown-out Reset set to 4.0V
  2503                           ;	Flash Program Memory Self Write Enable bits
  2504                           ;	WRT = OFF, Write protection off
  2505  2008                     	org	8200
  2506  2008  3FFF               	dw	16383

Data Sizes:
    Strings     0
    Constant    0
    Data        0
    BSS         11
    Persistent  2
    Stack       0

Auto Spaces:
    Space          Size  Autos    Used
    COMMON           14     10      11
    BANK0            80     20      32
    BANK1            80      0       0
    BANK3            96      0       0
    BANK2            96      0       0

Pointer List with Targets:

    None.

Critical Paths under _main in COMMON

    _main->_setup
    _I2C_Master_Init->___lldiv
    _ADXL345_init->_ADXL345_WRITE
    _ADXL345_WRITE->_I2C_Master_Write
    _ADXL345_READ->_I2C_Master_Read

Critical Paths under _isr in COMMON

    None.

Critical Paths under _main in BANK0

    _setup->_I2C_Master_Init
    _I2C_Master_Init->___lldiv

Critical Paths under _isr in BANK0

    None.

Critical Paths under _main in BANK1

    None.

Critical Paths under _isr in BANK1

    None.

Critical Paths under _main in BANK3

    None.

Critical Paths under _isr in BANK3

    None.

Critical Paths under _main in BANK2

    None.

Critical Paths under _isr in BANK2

    None.

Call Graph Tables:

 ---------------------------------------------------------------------------------
 (Depth) Function   	        Calls       Base Space   Used Autos Params    Refs
 ---------------------------------------------------------------------------------
 (0) _main                                                 4     4      0    2636
                                             16 BANK0      4     4      0
                       _ADXL345_READ
                            ___awdiv
                              _setup
 ---------------------------------------------------------------------------------
 (1) _setup                                                1     1      0    1216
                                              9 COMMON     1     1      0
                       _ADXL345_init
                    _I2C_Master_Init
                          _initUSART
 ---------------------------------------------------------------------------------
 (2) _initUSART                                            0     0      0       0
 ---------------------------------------------------------------------------------
 (2) _I2C_Master_Init                                      8     4      4     542
                                              8 BANK0      8     4      4
                            ___lldiv
 ---------------------------------------------------------------------------------
 (3) ___lldiv                                             14     6      8     421
                                              3 COMMON     6     6      0
                                              0 BANK0      8     0      8
 ---------------------------------------------------------------------------------
 (2) _ADXL345_init                                         2     2      0     674
                                              0 BANK0      2     2      0
                      _ADXL345_WRITE
 ---------------------------------------------------------------------------------
 (3) _ADXL345_WRITE                                        4     3      1     674
                                              5 COMMON     4     3      1
                   _I2C_Master_Start
                    _I2C_Master_Stop
                   _I2C_Master_Write
 ---------------------------------------------------------------------------------
 (1) ___awdiv                                              9     5      4     756
                                              3 COMMON     5     1      4
                                              0 BANK0      4     4      0
 ---------------------------------------------------------------------------------
 (1) _ADXL345_READ                                         7     5      2     664
                                              0 BANK0      7     5      2
                    _I2C_Master_Read
                   _I2C_Master_Start
                    _I2C_Master_Stop
                   _I2C_Master_Write
 ---------------------------------------------------------------------------------
 (4) _I2C_Master_Write                                     2     0      2     478
                                              3 COMMON     2     0      2
                    _I2C_Master_Wait
 ---------------------------------------------------------------------------------
 (4) _I2C_Master_Stop                                      0     0      0       0
                    _I2C_Master_Wait
 ---------------------------------------------------------------------------------
 (4) _I2C_Master_Start                                     0     0      0       0
                    _I2C_Master_Wait
 ---------------------------------------------------------------------------------
 (2) _I2C_Master_Read                                      6     4      2     121
                                              3 COMMON     6     4      2
                    _I2C_Master_Wait
 ---------------------------------------------------------------------------------
 (5) _I2C_Master_Wait                                      0     0      0       0
 ---------------------------------------------------------------------------------
 Estimated maximum stack depth 5
 ---------------------------------------------------------------------------------
 (Depth) Function   	        Calls       Base Space   Used Autos Params    Refs
 ---------------------------------------------------------------------------------
 (6) _isr                                                  3     3      0       0
                                              0 COMMON     3     3      0
 ---------------------------------------------------------------------------------
 Estimated maximum stack depth 6
 ---------------------------------------------------------------------------------

 Call Graph Graphs:

 _main (ROOT)
   _ADXL345_READ
     _I2C_Master_Read
       _I2C_Master_Wait
     _I2C_Master_Start
       _I2C_Master_Wait
     _I2C_Master_Stop
       _I2C_Master_Wait
     _I2C_Master_Write
       _I2C_Master_Wait
   ___awdiv
   _setup
     _ADXL345_init
       _ADXL345_WRITE
         _I2C_Master_Start
           _I2C_Master_Wait
         _I2C_Master_Stop
           _I2C_Master_Wait
         _I2C_Master_Write
           _I2C_Master_Wait
     _I2C_Master_Init
       ___lldiv
     _initUSART

 _isr (ROOT)

 Address spaces:
Name               Size   Autos  Total    Cost      Usage
BITCOMMON            E      0       0       0        0.0%
EEDATA             100      0       0       0        0.0%
NULL                 0      0       0       0        0.0%
CODE                 0      0       0       0        0.0%
COMMON               E      A       B       1       78.6%
BITSFR0              0      0       0       1        0.0%
SFR0                 0      0       0       1        0.0%
BITSFR1              0      0       0       2        0.0%
SFR1                 0      0       0       2        0.0%
STACK                0      0       0       2        0.0%
ABS                  0      0      2B       3        0.0%
BITBANK0            50      0       0       4        0.0%
BITSFR3              0      0       0       4        0.0%
SFR3                 0      0       0       4        0.0%
BANK0               50     14      20       5       40.0%
BITSFR2              0      0       0       5        0.0%
SFR2                 0      0       0       5        0.0%
BITBANK1            50      0       0       6        0.0%
BANK1               50      0       0       7        0.0%
BITBANK3            60      0       0       8        0.0%
BANK3               60      0       0       9        0.0%
BITBANK2            60      0       0      10        0.0%
BANK2               60      0       0      11        0.0%
DATA                 0      0      2B      12        0.0%


Microchip Technology PIC Macro Assembler V2.31 build 20201012212115 
Symbol Table                                                                                   Wed Mar 03 12:24:33 2021

             ___awdiv@sign 0021                         _xH 003B                         _yH 0039  
                       _xL 003A                         _zH 0037                         _yL 0038  
                       _zL 0036                        l103 025E                        l142 0391  
                      l151 03A4                        l312 01BA                        l136 02DF  
                      l145 03AD                        l154 039B                        l139 0385  
                      l171 0367                        l157 0305                        l165 033A  
                      l158 0308                        l190 0384                        l159 030D  
                      l168 02A5                        l429 0152                        _GIE 005F  
                      u500 011F                        u501 011E                        u350 038B  
                      u351 038A                        u360 0391                        u520 0130  
                      u361 0390                        u521 012F                        u450 0301  
                      u451 0300                        u515 0120                        u540 0144  
                      u460 00F1                        u541 0143                        u525 012C  
                      u461 00F0                        u550 0149                        u470 00FC  
                      u710 0179                        u551 0148                        u535 0138  
                      u471 00FB                        u711 0178                        u480 010D  
                      u481 010C                        u705 016A                        u730 0194  
                      u731 0193                        u725 017B                        u805 00B9  
                      u750 01B2                        u495 0111                        u751 01B1  
                      u735 0190                        u760 02BD                        u745 01A4  
                      u817 00DF                        u690 0165                        u770 002D  
                      u827 0320                        u691 0164                        u771 002C  
                      u837 0336                        u765 02B8                        u785 007B  
                      u795 009A                        _isr 01BB      __size_of_ADXL345_READ 0047  
                     l1100 0383                       l1032 0385                       l1120 02E0  
                     l1040 039C                       l1200 0137                       l1034 038B  
                     l1130 0301                       l1122 02E5                       l1042 03A1  
                     l1202 013E                       l1132 0309                       l1124 02ED  
                     l1036 03A5                       l1044 0392                       l1204 0144  
                     l1300 02DD                       l1126 02F6                       l1038 03AA  
                     l1046 0397                       l1206 0149                       l1302 02DE  
                     l1310 0215                       l1128 02FB                       l1208 014E  
                     l1048 033C                       l1304 030E                       l1080 036F  
                     l1320 0242                       l1312 0231                       l1170 00ED  
                     l1306 031A                       l1090 037C                       l1082 0372  
                     l1074 0368                       l1330 024B                       l1322 0243  
                     l1314 0235                       l1180 0101                       l1172 00F1  
                     l1308 0324                       l1092 037D                       l1084 0375  
                     l1076 036C                       l1332 024C                       l1324 0245  
                     l1316 023A                       l1190 0117                       l1182 0105  
                     l1174 00F6                       l1270 0165                       l1094 037E  
                     l1086 0376                       l1078 036E                       l1334 0259  
                     l1326 0249                       l1318 023F                       l1350 00D5  
                     l1342 0020                       l1336 0262                       l1192 011B  
                     l1184 0107                       l1176 00F8                       l1168 00EA  
                     l1280 0194                       l1272 0168                       l1096 0381  
                     l1088 0379                       l1328 024A                       l1352 00D7  
                     l1344 0025                       l1338 029F                       l1194 011F  
                     l1186 010D                       l1178 00FC                       l1282 01A2  
                     l1274 0175                       l1098 0382                       l1346 002D  
                     l1196 0130                       l1188 0110                       l1284 01A3  
                     l1276 0179                       l1268 0153                       l1292 02A6  
                     l1348 0030                       l1198 0136                       l1286 01AC  
                     l1278 0182                       l1294 02AA                       l1288 01B2  
                     l1296 02AD                       l1298 02DC                       ?_isr 0070  
                     _PEIE 005E      __size_of_ADXL345_init 002D                       i1l91 020E  
                     i1l83 01FC                       _TMR0 0001                       _TXIE 0464  
                     _TXIF 0064                       _main 0020                       btemp 007E  
                     start 000C                      ??_isr 0070     __size_of_ADXL345_WRITE 002D  
         ?_I2C_Master_Init 0028           ?_I2C_Master_Read 0073           ?_I2C_Master_Wait 0070  
         ?_I2C_Master_Stop 0070                      ?_main 0070            __end_of___awdiv 0153  
             _ADXL345_READ 025F                      _ANSEL 0188            __end_of___lldiv 01BB  
          ___awdiv@divisor 0073                      _CONTX 0035            ___awdiv@counter 0020  
                    _RCREG 001A                      _SPBRG 0099                      _PORTA 0005  
                    _PORTB 0006                      _PORTD 0008                      _PORTE 0009  
                    u60_20 01E3                      u60_21 01E2                      u61_20 01F0  
                    u61_21 01EF                      u62_20 01F9                      u62_21 01F8  
                    u63_20 0204                      u63_21 0203                      u64_20 020C  
                    u56_20 01BF                      u64_21 020B                      u56_21 01BE  
                    u57_20 01D0                      u57_21 01CF                      _TRISA 0085  
                    _TRISB 0086                      _TRISD 0088                      _SSPIE 0463  
                    _TRISE 0089                      u58_20 01D5                      _SSPIF 0063  
                    u58_21 01D4                      u59_20 01DB                      u59_21 01DA  
                    _TXREG 0019               _ADXL345_init 030E                      _eje_x 003F  
                    _eje_y 003D                      _eje_z 003C                      _setup 0215  
                    pclath 000A                      status 0003                      wtemp0 007E  
          __initialization 000F               __end_of_main 00EA                     ??_main 0030  
        ?_I2C_Master_Start 0070          ?_I2C_Master_Write 0073         ??_I2C_Master_Start 0073  
       ??_I2C_Master_Write 0075           ___awdiv@dividend 0075                     ?_setup 0070  
                   _ANSELH 0189              _ADXL345_WRITE 033B                     i1l1220 01D0  
                   i1l1212 01BB                     i1l1230 01E3                     i1l1222 01D5  
                   i1l1214 01BF                     i1l1240 01F3                     i1l1232 01E5  
                   i1l1224 01D6                     i1l1216 01C9                     i1l1250 020C  
                   i1l1242 01F9                     i1l1234 01EA                     i1l1226 01DB  
                   i1l1218 01CA                     i1l1236 01F0                     i1l1228 01DE  
                   i1l1244 01FC                     i1l1246 01FF                     i1l1248 0204  
                   _SPBRGH 009A                     _SSPADD 0093                     _TRISC3 043B  
                   _TRISC4 043C                     _SSPCON 0014                     _SSPBUF 0013  
                ??___awdiv 0077                  ??___lldiv 0073           ___awdiv@quotient 0022  
                   _prueba 003E                     _tx_var 0034                     saved_w 007E  
           ?_ADXL345_WRITE 0075    __end_of__initialization 001C             __pcstackCOMMON 0070  
            __end_of_setup 025F             _OPTION_REGbits 0081                    ??_setup 0079  
               __pbssBANK0 0034         __size_of_initUSART 001D                 __pmaintext 0020  
               __pintentry 0004            ??_ADXL345_WRITE 0076                    _SSPCON2 0091  
                  _SSPSTAT 0094                    ___awdiv 00EA                    ___lldiv 0153  
                  _bandera 007A          __end_of_initUSART 0385                    __ptext1 0215  
                  __ptext2 0368                    __ptext3 02A6                    __ptext4 0153  
                  __ptext5 030E                    __ptext6 033B                    __ptext7 00EA  
                  __ptext8 025F                    __ptext9 0392               __size_of_isr 005A  
 __size_of_I2C_Master_Init 003A   __size_of_I2C_Master_Read 002E   __size_of_I2C_Master_Wait 000D  
 __size_of_I2C_Master_Stop 0009       end_of_initialization 001C  __size_of_I2C_Master_Start 0009  
__size_of_I2C_Master_Write 000A            ___lldiv@divisor 0020            ___lldiv@counter 0078  
          ADXL345_READ@var 0024                  _RCSTAbits 0018           I2C_Master_Init@c 0028  
         I2C_Master_Read@a 0073                  _TRISCbits 0087                  _TXSTAbits 0098  
              _BAUDCTLbits 0187        start_initialization 000F                __end_of_isr 0215  
        ??_I2C_Master_Init 002C          ??_I2C_Master_Read 0075          ??_I2C_Master_Wait 0073  
        ??_I2C_Master_Stop 0073              ?_ADXL345_READ 0020              ?_ADXL345_init 0070  
              __pbssCOMMON 007A                  ___latbits 0002              __pcstackBANK0 0020  
                __pnvBANK0 003E           _I2C_Master_Start 03A5           _I2C_Master_Write 0392  
                 ?___awdiv 0073                   ?___lldiv 0020             ??_ADXL345_READ 0022  
           ??_ADXL345_init 0020                  _initUSART 0368      __end_of_ADXL345_WRITE 0368  
           __size_of_setup 004A          interrupt_function 0004                   _PIE1bits 008C  
                 _PIR1bits 000C                 ?_initUSART 0070        I2C_Master_Read@temp 0077  
         __size_of___awdiv 0069           __size_of___lldiv 0068            _I2C_Master_Init 02A6  
          _I2C_Master_Read 02E0            _I2C_Master_Wait 0385            _I2C_Master_Stop 039C  
                 __ptext10 039C                   __ptext11 03A5                   __ptext12 02E0  
                 __ptext13 0385                   __ptext14 01BB       __end_of_ADXL345_READ 02A6  
            __size_of_main 00CA       __end_of_ADXL345_init 033B          ADXL345_READ@leido 0025  
 __end_of_I2C_Master_Start 03AE   __end_of_I2C_Master_Write 039C                 _INTCONbits 000B  
              ??_initUSART 0073                   intlevel1 0000           ___lldiv@dividend 0024  
  __end_of_I2C_Master_Init 02E0    __end_of_I2C_Master_Read 030E    __end_of_I2C_Master_Wait 0392  
  __end_of_I2C_Master_Stop 03A5           ___lldiv@quotient 0074          I2C_Master_Write@d 0073  
              _SSPCON2bits 0091          ADXL345_WRITE@data 0075           ADXL345_WRITE@var 0078  
