

Microchip MPLAB XC8 Assembler V2.31 build 20201012212115 
                                                                                               Thu Apr 22 21:35:40 2021

Microchip MPLAB XC8 C Compiler v2.31 (Free license) build 20201012212115 Og1 
     1                           	processor	16F887
     2                           	pagewidth 120
     3                           	opt	flic
     4                           	psect	idataCOMMON,global,class=CODE,delta=2,noexec
     5                           	psect	idataBANK0,global,class=CODE,delta=2,noexec
     6                           	psect	cinit,global,class=CODE,merge=1,delta=2
     7                           	psect	dataCOMMON,global,class=COMMON,space=1,delta=1,noexec
     8                           	psect	dataBANK0,global,class=BANK0,space=1,delta=1,noexec
     9                           	psect	inittext,global,class=CODE,delta=2
    10                           	psect	cstackCOMMON,global,class=COMMON,space=1,delta=1,noexec
    11                           	psect	cstackBANK0,global,class=BANK0,space=1,delta=1,noexec
    12                           	psect	maintext,global,class=CODE,split=1,delta=2
    13                           	psect	text1,local,class=CODE,merge=1,delta=2
    14                           	psect	text2,local,class=CODE,merge=1,delta=2
    15                           	psect	config,global,abs,ovrld,class=CONFIG,space=4,delta=2,noexec
    16                           	dabs	1,0x7E,2
    17  0000                     
    18                           ; Version 2.20
    19                           ; Generated 12/02/2020 GMT
    20                           ; 
    21                           ; Copyright © 2020, Microchip Technology Inc. and its subsidiaries ("Microchip")
    22                           ; All rights reserved.
    23                           ; 
    24                           ; This software is developed by Microchip Technology Inc. and its subsidiaries ("Microch
      +                          ip").
    25                           ; 
    26                           ; Redistribution and use in source and binary forms, with or without modification, are
    27                           ; permitted provided that the following conditions are met:
    28                           ; 
    29                           ;     1. Redistributions of source code must retain the above copyright notice, this lis
      +                          t of
    30                           ;        conditions and the following disclaimer.
    31                           ; 
    32                           ;     2. Redistributions in binary form must reproduce the above copyright notice, this 
      +                          list
    33                           ;        of conditions and the following disclaimer in the documentation and/or other
    34                           ;        materials provided with the distribution.
    35                           ; 
    36                           ;     3. Microchip's name may not be used to endorse or promote products derived from th
      +                          is
    37                           ;        software without specific prior written permission.
    38                           ; 
    39                           ; THIS SOFTWARE IS PROVIDED BY MICROCHIP "AS IS" AND ANY EXPRESS OR IMPLIED WARRANTIES,
    40                           ; INCLUDING, BUT NOT LIMITED TO, THE IMPLIED WARRANTIES OF MERCHANTABILITY AND FITNESS F
      +                          OR
    41                           ; PURPOSE ARE DISCLAIMED.  IN NO EVENT SHALL MICROCHIP BE LIABLE FOR ANY DIRECT, INDIREC
      +                          T,
    42                           ; INCIDENTAL, SPECIAL, EXEMPLARY, OR CONSEQUENTIAL DAMAGES (INCLUDING BUT NOT LIMITED TO
    43                           ; PROCUREMENT OF SUBSTITUTE GOODS OR SERVICES; LOSS OF USE, DATA OR PROFITS; OR BUSINESS
    44                           ; INTERRUPTION) HOWSOEVER CAUSED AND ON ANY THEORY OF LIABILITY, WHETHER IN CONTRACT, ST
      +                          RICT
    45                           ; LIABILITY, OR TORT (INCLUDING NEGLIGENCE OR OTHERWISE) ARISING IN ANY WAY OUT OF THE U
      +                          SE OF
    46                           ; THIS SOFTWARE, EVEN IF ADVISED OF THE POSSIBILITY OF SUCH DAMAGE.
    47                           ; 
    48                           ; 
    49                           ; Code-generator required, PIC16F887 Definitions
    50                           ; 
    51                           ; SFR Addresses
    52  0000                     	;# 
    53  0001                     	;# 
    54  0002                     	;# 
    55  0003                     	;# 
    56  0004                     	;# 
    57  0005                     	;# 
    58  0006                     	;# 
    59  0007                     	;# 
    60  0008                     	;# 
    61  0009                     	;# 
    62  000A                     	;# 
    63  000B                     	;# 
    64  000C                     	;# 
    65  000D                     	;# 
    66  000E                     	;# 
    67  000E                     	;# 
    68  000F                     	;# 
    69  0010                     	;# 
    70  0011                     	;# 
    71  0012                     	;# 
    72  0013                     	;# 
    73  0014                     	;# 
    74  0015                     	;# 
    75  0015                     	;# 
    76  0016                     	;# 
    77  0017                     	;# 
    78  0018                     	;# 
    79  0019                     	;# 
    80  001A                     	;# 
    81  001B                     	;# 
    82  001B                     	;# 
    83  001C                     	;# 
    84  001D                     	;# 
    85  001E                     	;# 
    86  001F                     	;# 
    87  0081                     	;# 
    88  0085                     	;# 
    89  0086                     	;# 
    90  0087                     	;# 
    91  0088                     	;# 
    92  0089                     	;# 
    93  008C                     	;# 
    94  008D                     	;# 
    95  008E                     	;# 
    96  008F                     	;# 
    97  0090                     	;# 
    98  0091                     	;# 
    99  0092                     	;# 
   100  0093                     	;# 
   101  0093                     	;# 
   102  0093                     	;# 
   103  0094                     	;# 
   104  0095                     	;# 
   105  0096                     	;# 
   106  0097                     	;# 
   107  0098                     	;# 
   108  0099                     	;# 
   109  009A                     	;# 
   110  009B                     	;# 
   111  009C                     	;# 
   112  009D                     	;# 
   113  009E                     	;# 
   114  009F                     	;# 
   115  0105                     	;# 
   116  0107                     	;# 
   117  0108                     	;# 
   118  0109                     	;# 
   119  010C                     	;# 
   120  010C                     	;# 
   121  010D                     	;# 
   122  010E                     	;# 
   123  010F                     	;# 
   124  0185                     	;# 
   125  0187                     	;# 
   126  0188                     	;# 
   127  0189                     	;# 
   128  018C                     	;# 
   129  018D                     	;# 
   130  0000                     	;# 
   131  0001                     	;# 
   132  0002                     	;# 
   133  0003                     	;# 
   134  0004                     	;# 
   135  0005                     	;# 
   136  0006                     	;# 
   137  0007                     	;# 
   138  0008                     	;# 
   139  0009                     	;# 
   140  000A                     	;# 
   141  000B                     	;# 
   142  000C                     	;# 
   143  000D                     	;# 
   144  000E                     	;# 
   145  000E                     	;# 
   146  000F                     	;# 
   147  0010                     	;# 
   148  0011                     	;# 
   149  0012                     	;# 
   150  0013                     	;# 
   151  0014                     	;# 
   152  0015                     	;# 
   153  0015                     	;# 
   154  0016                     	;# 
   155  0017                     	;# 
   156  0018                     	;# 
   157  0019                     	;# 
   158  001A                     	;# 
   159  001B                     	;# 
   160  001B                     	;# 
   161  001C                     	;# 
   162  001D                     	;# 
   163  001E                     	;# 
   164  001F                     	;# 
   165  0081                     	;# 
   166  0085                     	;# 
   167  0086                     	;# 
   168  0087                     	;# 
   169  0088                     	;# 
   170  0089                     	;# 
   171  008C                     	;# 
   172  008D                     	;# 
   173  008E                     	;# 
   174  008F                     	;# 
   175  0090                     	;# 
   176  0091                     	;# 
   177  0092                     	;# 
   178  0093                     	;# 
   179  0093                     	;# 
   180  0093                     	;# 
   181  0094                     	;# 
   182  0095                     	;# 
   183  0096                     	;# 
   184  0097                     	;# 
   185  0098                     	;# 
   186  0099                     	;# 
   187  009A                     	;# 
   188  009B                     	;# 
   189  009C                     	;# 
   190  009D                     	;# 
   191  009E                     	;# 
   192  009F                     	;# 
   193  0105                     	;# 
   194  0107                     	;# 
   195  0108                     	;# 
   196  0109                     	;# 
   197  010C                     	;# 
   198  010C                     	;# 
   199  010D                     	;# 
   200  010E                     	;# 
   201  010F                     	;# 
   202  0185                     	;# 
   203  0187                     	;# 
   204  0188                     	;# 
   205  0189                     	;# 
   206  018C                     	;# 
   207  018D                     	;# 
   208  0000                     	;# 
   209  0001                     	;# 
   210  0002                     	;# 
   211  0003                     	;# 
   212  0004                     	;# 
   213  0005                     	;# 
   214  0006                     	;# 
   215  0007                     	;# 
   216  0008                     	;# 
   217  0009                     	;# 
   218  000A                     	;# 
   219  000B                     	;# 
   220  000C                     	;# 
   221  000D                     	;# 
   222  000E                     	;# 
   223  000E                     	;# 
   224  000F                     	;# 
   225  0010                     	;# 
   226  0011                     	;# 
   227  0012                     	;# 
   228  0013                     	;# 
   229  0014                     	;# 
   230  0015                     	;# 
   231  0015                     	;# 
   232  0016                     	;# 
   233  0017                     	;# 
   234  0018                     	;# 
   235  0019                     	;# 
   236  001A                     	;# 
   237  001B                     	;# 
   238  001B                     	;# 
   239  001C                     	;# 
   240  001D                     	;# 
   241  001E                     	;# 
   242  001F                     	;# 
   243  0081                     	;# 
   244  0085                     	;# 
   245  0086                     	;# 
   246  0087                     	;# 
   247  0088                     	;# 
   248  0089                     	;# 
   249  008C                     	;# 
   250  008D                     	;# 
   251  008E                     	;# 
   252  008F                     	;# 
   253  0090                     	;# 
   254  0091                     	;# 
   255  0092                     	;# 
   256  0093                     	;# 
   257  0093                     	;# 
   258  0093                     	;# 
   259  0094                     	;# 
   260  0095                     	;# 
   261  0096                     	;# 
   262  0097                     	;# 
   263  0098                     	;# 
   264  0099                     	;# 
   265  009A                     	;# 
   266  009B                     	;# 
   267  009C                     	;# 
   268  009D                     	;# 
   269  009E                     	;# 
   270  009F                     	;# 
   271  0105                     	;# 
   272  0107                     	;# 
   273  0108                     	;# 
   274  0109                     	;# 
   275  010C                     	;# 
   276  010C                     	;# 
   277  010D                     	;# 
   278  010E                     	;# 
   279  010F                     	;# 
   280  0185                     	;# 
   281  0187                     	;# 
   282  0188                     	;# 
   283  0189                     	;# 
   284  018C                     	;# 
   285  018D                     	;# 
   286                           
   287                           	psect	idataCOMMON
   288  0FE5                     __pidataCOMMON:
   289                           
   290                           ;initializer for _D4
   291  0FE5  3454               	retlw	84
   292  0FE6  3401               	retlw	1
   293  0FE7  3400               	retlw	0
   294  0FE8  3400               	retlw	0
   295                           
   296                           ;initializer for _C4
   297  0FE9  347E               	retlw	126
   298  0FEA  3401               	retlw	1
   299  0FEB  3400               	retlw	0
   300  0FEC  3400               	retlw	0
   301                           
   302                           	psect	idataBANK0
   303  0006                     __pidataBANK0:
   304                           
   305                           ;initializer for _C5
   306  0006  34CA               	retlw	202
   307  0007  3400               	retlw	0
   308  0008  3400               	retlw	0
   309  0009  3400               	retlw	0
   310                           
   311                           ;initializer for _B4
   312  000A  34D7               	retlw	215
   313  000B  3400               	retlw	0
   314  000C  3400               	retlw	0
   315  000D  3400               	retlw	0
   316                           
   317                           ;initializer for _A4
   318  000E  34E3               	retlw	227
   319  000F  3400               	retlw	0
   320  0010  3400               	retlw	0
   321  0011  3400               	retlw	0
   322                           
   323                           ;initializer for _G4
   324  0012  34FF               	retlw	255
   325  0013  3400               	retlw	0
   326  0014  3400               	retlw	0
   327  0015  3400               	retlw	0
   328                           
   329                           ;initializer for _F4
   330  0016  341F               	retlw	31
   331  0017  3401               	retlw	1
   332  0018  3400               	retlw	0
   333  0019  3400               	retlw	0
   334                           
   335                           ;initializer for _E4
   336  001A  342F               	retlw	47
   337  001B  3401               	retlw	1
   338  001C  3400               	retlw	0
   339  001D  3400               	retlw	0
   340  0008                     _PORTD	set	8
   341  0007                     _PORTC	set	7
   342  0007                     _PORTCbits	set	7
   343  0036                     _RB6	set	54
   344  0037                     _RB7	set	55
   345  008F                     _OSCCONbits	set	143
   346  0081                     _OPTION_REGbits	set	129
   347  0085                     _TRISAbits	set	133
   348  0086                     _TRISBbits	set	134
   349  0088                     _TRISD	set	136
   350  0087                     _TRISC	set	135
   351  0189                     _ANSELH	set	393
   352  0188                     _ANSEL	set	392
   353                           
   354                           	psect	cinit
   355  07BE                     start_initialization:	
   356                           ; #config settings
   357                           
   358  07BE                     __initialization:
   359                           
   360                           ; Initialize objects allocated to BANK0
   361  07BE  1383               	bcf	3,7	;select IRP bank0
   362  07BF  3066               	movlw	low (__pdataBANK0+24)
   363  07C0  00FD               	movwf	btemp+-1
   364  07C1  3000               	movlw	high __pidataBANK0
   365  07C2  00FE               	movwf	btemp
   366  07C3  3006               	movlw	low __pidataBANK0
   367  07C4  00FF               	movwf	btemp+1
   368  07C5  304E               	movlw	low __pdataBANK0
   369  07C6  0084               	movwf	4
   370  07C7  120A  158A  27F1  120A  118A  	fcall	init_ram0
   371                           
   372                           ; Initialize objects allocated to COMMON
   373  07CC  120A  158A  27E5  120A  118A  	fcall	__pidataCOMMON	;fetch initializer
   374  07D1  00F0               	movwf	__pdataCOMMON& (0+127)
   375  07D2  120A  158A  27E6  120A  118A  	fcall	__pidataCOMMON+1	;fetch initializer
   376  07D7  00F1               	movwf	(__pdataCOMMON+1)& (0+127)
   377  07D8  120A  158A  27E7  120A  118A  	fcall	__pidataCOMMON+2	;fetch initializer
   378  07DD  00F2               	movwf	(__pdataCOMMON+2)& (0+127)
   379  07DE  120A  158A  27E8  120A  118A  	fcall	__pidataCOMMON+3	;fetch initializer
   380  07E3  00F3               	movwf	(__pdataCOMMON+3)& (0+127)
   381  07E4  120A  158A  27E9  120A  118A  	fcall	__pidataCOMMON+4	;fetch initializer
   382  07E9  00F4               	movwf	(__pdataCOMMON+4)& (0+127)
   383  07EA  120A  158A  27EA  120A  118A  	fcall	__pidataCOMMON+5	;fetch initializer
   384  07EF  00F5               	movwf	(__pdataCOMMON+5)& (0+127)
   385  07F0  120A  158A  27EB  120A  118A  	fcall	__pidataCOMMON+6	;fetch initializer
   386  07F5  00F6               	movwf	(__pdataCOMMON+6)& (0+127)
   387  07F6  120A  158A  27EC  120A  118A  	fcall	__pidataCOMMON+7	;fetch initializer
   388  07FB  00F7               	movwf	(__pdataCOMMON+7)& (0+127)
   389  07FC                     end_of_initialization:	
   390                           ;End of C runtime variable initialization code
   391                           
   392  07FC                     __end_of__initialization:
   393  07FC  0183               	clrf	3
   394  07FD  120A  118A  289D   	ljmp	_main	;jump to C main() function
   395                           
   396                           	psect	dataCOMMON
   397  0070                     __pdataCOMMON:
   398  0070                     _D4:
   399  0070                     	ds	4
   400  0074                     _C4:
   401  0074                     	ds	4
   402                           
   403                           	psect	dataBANK0
   404  004E                     __pdataBANK0:
   405  004E                     _C5:
   406  004E                     	ds	4
   407  0052                     _B4:
   408  0052                     	ds	4
   409  0056                     _A4:
   410  0056                     	ds	4
   411  005A                     _G4:
   412  005A                     	ds	4
   413  005E                     _F4:
   414  005E                     	ds	4
   415  0062                     _E4:
   416  0062                     	ds	4
   417                           
   418                           	psect	inittext
   419  0FED                     init_fetch0:	
   420                           ;	Called with low address in FSR and high address in W
   421                           
   422  0FED  087E               	movf	btemp,w
   423  0FEE  008A               	movwf	10
   424  0FEF  087F               	movf	btemp+1,w
   425  0FF0  0082               	movwf	2
   426  0FF1                     init_ram0:	
   427                           ;Called with:
   428                           ;	high address of idata address in btemp 
   429                           ;	low address of idata address in btemp+1 
   430                           ;	low address of data in FSR
   431                           ;	high address + 1 of data in btemp-1
   432                           
   433  0FF1  120A  158A  27ED  120A  158A  	fcall	init_fetch0
   434  0FF6  0080               	movwf	0
   435  0FF7  0A84               	incf	4,f
   436  0FF8  0804               	movf	4,w
   437  0FF9  067D               	xorwf	btemp+-1,w
   438  0FFA  1903               	btfsc	3,2
   439  0FFB  3400               	retlw	0
   440  0FFC  0AFF               	incf	btemp+1,f
   441  0FFD  1903               	btfsc	3,2
   442  0FFE  0AFE               	incf	btemp,f
   443  0FFF  2FF1               	goto	init_ram0
   444                           
   445                           	psect	cstackCOMMON
   446  0078                     __pcstackCOMMON:
   447  0078                     ?_Setup:
   448  0078                     ?_initOsc:	
   449                           ; 1 bytes @ 0x0
   450                           
   451  0078                     ??_initOsc:	
   452                           ; 1 bytes @ 0x0
   453                           
   454  0078                     ?_main:	
   455                           ; 1 bytes @ 0x0
   456                           
   457                           
   458                           ; 1 bytes @ 0x0
   459  0078                     	ds	2
   460  007A                     initOsc@IRCF:
   461                           
   462                           ; 1 bytes @ 0x2
   463  007A                     	ds	1
   464  007B                     ??_Setup:
   465  007B                     ??_main:	
   466                           ; 1 bytes @ 0x3
   467                           
   468                           
   469                           ; 1 bytes @ 0x3
   470  007B                     	ds	3
   471                           
   472                           	psect	cstackBANK0
   473  0020                     __pcstackBANK0:
   474  0020                     main@x:
   475                           
   476                           ; 2 bytes @ 0x0
   477  0020                     	ds	2
   478  0022                     main@x_156:
   479                           
   480                           ; 2 bytes @ 0x2
   481  0022                     	ds	2
   482  0024                     main@x_157:
   483                           
   484                           ; 2 bytes @ 0x4
   485  0024                     	ds	2
   486  0026                     main@x_158:
   487                           
   488                           ; 2 bytes @ 0x6
   489  0026                     	ds	2
   490  0028                     main@x_159:
   491                           
   492                           ; 2 bytes @ 0x8
   493  0028                     	ds	2
   494  002A                     main@x_160:
   495                           
   496                           ; 2 bytes @ 0xA
   497  002A                     	ds	2
   498  002C                     main@x_161:
   499                           
   500                           ; 2 bytes @ 0xC
   501  002C                     	ds	2
   502  002E                     main@x_162:
   503                           
   504                           ; 2 bytes @ 0xE
   505  002E                     	ds	2
   506  0030                     main@x_163:
   507                           
   508                           ; 2 bytes @ 0x10
   509  0030                     	ds	2
   510  0032                     main@x_164:
   511                           
   512                           ; 2 bytes @ 0x12
   513  0032                     	ds	2
   514  0034                     main@x_165:
   515                           
   516                           ; 2 bytes @ 0x14
   517  0034                     	ds	2
   518  0036                     main@x_166:
   519                           
   520                           ; 2 bytes @ 0x16
   521  0036                     	ds	2
   522  0038                     main@x_167:
   523                           
   524                           ; 2 bytes @ 0x18
   525  0038                     	ds	2
   526  003A                     main@x_168:
   527                           
   528                           ; 2 bytes @ 0x1A
   529  003A                     	ds	2
   530  003C                     main@x_169:
   531                           
   532                           ; 2 bytes @ 0x1C
   533  003C                     	ds	2
   534  003E                     main@x_170:
   535                           
   536                           ; 2 bytes @ 0x1E
   537  003E                     	ds	2
   538  0040                     main@x_171:
   539                           
   540                           ; 2 bytes @ 0x20
   541  0040                     	ds	2
   542  0042                     main@x_172:
   543                           
   544                           ; 2 bytes @ 0x22
   545  0042                     	ds	2
   546  0044                     main@x_173:
   547                           
   548                           ; 2 bytes @ 0x24
   549  0044                     	ds	2
   550  0046                     main@x_174:
   551                           
   552                           ; 2 bytes @ 0x26
   553  0046                     	ds	2
   554  0048                     main@x_175:
   555                           
   556                           ; 2 bytes @ 0x28
   557  0048                     	ds	2
   558  004A                     main@x_176:
   559                           
   560                           ; 2 bytes @ 0x2A
   561  004A                     	ds	2
   562  004C                     main@x_177:
   563                           
   564                           ; 2 bytes @ 0x2C
   565  004C                     	ds	2
   566                           
   567                           	psect	maintext
   568  009D                     __pmaintext:	
   569 ;;
   570 ;;Main: autosize = 0, tempsize = 3, incstack = 0, save=0
   571 ;;
   572 ;; *************** function _main *****************
   573 ;; Defined at:
   574 ;;		line 78 in file "C:/Users/danie/OneDrive/Desktop/DIGITAL2/proyecto3/musica.X/musica.c"
   575 ;; Parameters:    Size  Location     Type
   576 ;;		None
   577 ;; Auto vars:     Size  Location     Type
   578 ;;  x               2   44[BANK0 ] int 
   579 ;;  x               2   42[BANK0 ] int 
   580 ;;  x               2   40[BANK0 ] int 
   581 ;;  x               2   38[BANK0 ] int 
   582 ;;  x               2   36[BANK0 ] int 
   583 ;;  x               2   34[BANK0 ] int 
   584 ;;  x               2   32[BANK0 ] int 
   585 ;;  x               2   30[BANK0 ] int 
   586 ;;  x               2   28[BANK0 ] int 
   587 ;;  x               2   26[BANK0 ] int 
   588 ;;  x               2   24[BANK0 ] int 
   589 ;;  x               2   22[BANK0 ] int 
   590 ;;  x               2   20[BANK0 ] int 
   591 ;;  x               2   18[BANK0 ] int 
   592 ;;  x               2   16[BANK0 ] int 
   593 ;;  x               2   14[BANK0 ] int 
   594 ;;  x               2   12[BANK0 ] int 
   595 ;;  x               2   10[BANK0 ] int 
   596 ;;  x               2    8[BANK0 ] int 
   597 ;;  x               2    6[BANK0 ] int 
   598 ;;  x               2    4[BANK0 ] int 
   599 ;;  x               2    2[BANK0 ] int 
   600 ;;  x               2    0[BANK0 ] int 
   601 ;; Return value:  Size  Location     Type
   602 ;;                  1    wreg      void 
   603 ;; Registers used:
   604 ;;		wreg, fsr0l, fsr0h, status,2, status,0, btemp+1, pclath, cstack
   605 ;; Tracked objects:
   606 ;;		On entry : B00/0
   607 ;;		On exit  : 0/0
   608 ;;		Unchanged: 0/0
   609 ;; Data sizes:     COMMON   BANK0   BANK1   BANK3   BANK2
   610 ;;      Params:         0       0       0       0       0
   611 ;;      Locals:         0      46       0       0       0
   612 ;;      Temps:          3       0       0       0       0
   613 ;;      Totals:         3      46       0       0       0
   614 ;;Total ram usage:       49 bytes
   615 ;; Hardware stack levels required when called:    2
   616 ;; This function calls:
   617 ;;		_Setup
   618 ;; This function is called by:
   619 ;;		Startup code after reset
   620 ;; This function uses a non-reentrant model
   621 ;;
   622                           
   623                           
   624                           ;psect for function _main
   625  009D                     _main:
   626  009D                     l1372:	
   627                           ;incstack = 0
   628                           ; Regs used in _main: [wreg-fsr0h+status,2+status,0+btemp+1+pclath+cstack]
   629                           
   630                           
   631                           ;C:/Users/danie/OneDrive/Desktop/DIGITAL2/proyecto3/musica.X/musica.c: 79:     Setup();
   632  009D  120A  118A  201E  120A  118A  	fcall	_Setup
   633                           
   634                           ;C:/Users/danie/OneDrive/Desktop/DIGITAL2/proyecto3/musica.X/musica.c: 81:     while(RB7
      +                           == 1 && RB6 == 1){
   635  00A2  28B5               	goto	l1378
   636  00A3                     l52:
   637                           
   638                           ;C:/Users/danie/OneDrive/Desktop/DIGITAL2/proyecto3/musica.X/musica.c: 82:              
      +                             PORTCbits.RC4 = 1;
   639  00A3  1607               	bsf	7,4	;volatile
   640  00A4                     l1374:
   641                           
   642                           ;C:/Users/danie/OneDrive/Desktop/DIGITAL2/proyecto3/musica.X/musica.c: 83:              
      +                             _delay((unsigned long)((400)*(8000000/4000000.0)));
   643  00A4  309F               	movlw	159
   644  00A5  00FB               	movwf	??_main
   645  00A6                     u2397:
   646  00A6  28A7               	nop2
   647  00A7  0BFB               	decfsz	??_main,f
   648  00A8  28A6               	goto	u2397
   649  00A9  28AA               	nop2
   650  00AA  28AB               	nop2
   651  00AB                     l1376:
   652                           
   653                           ;C:/Users/danie/OneDrive/Desktop/DIGITAL2/proyecto3/musica.X/musica.c: 84:              
      +                             PORTCbits.RC4 = 0;
   654  00AB  1283               	bcf	3,5	;RP0=0, select bank0
   655  00AC  1303               	bcf	3,6	;RP1=0, select bank0
   656  00AD  1207               	bcf	7,4	;volatile
   657                           
   658                           ;C:/Users/danie/OneDrive/Desktop/DIGITAL2/proyecto3/musica.X/musica.c: 85:              
      +                             _delay((unsigned long)((400)*(8000000/4000000.0)));
   659  00AE  309F               	movlw	159
   660  00AF  00FB               	movwf	??_main
   661  00B0                     u2407:
   662  00B0  28B1               	nop2
   663  00B1  0BFB               	decfsz	??_main,f
   664  00B2  28B0               	goto	u2407
   665  00B3  28B4               	nop2
   666  00B4  28B5               	nop2
   667  00B5                     l1378:
   668                           
   669                           ;C:/Users/danie/OneDrive/Desktop/DIGITAL2/proyecto3/musica.X/musica.c: 81:     while(RB7
      +                           == 1 && RB6 == 1){
   670  00B5  1283               	bcf	3,5	;RP0=0, select bank0
   671  00B6  1303               	bcf	3,6	;RP1=0, select bank0
   672  00B7  1F86               	btfss	6,7	;volatile
   673  00B8  28BA               	goto	u1201
   674  00B9  28BB               	goto	u1200
   675  00BA                     u1201:
   676  00BA  28BF               	goto	l55
   677  00BB                     u1200:
   678  00BB                     l1380:
   679  00BB  1B06               	btfsc	6,6	;volatile
   680  00BC  28BE               	goto	u1211
   681  00BD  28BF               	goto	u1210
   682  00BE                     u1211:
   683  00BE  28A3               	goto	l52
   684  00BF                     u1210:
   685  00BF                     l55:
   686                           
   687                           ;C:/Users/danie/OneDrive/Desktop/DIGITAL2/proyecto3/musica.X/musica.c: 88:     if (RB7 =
      +                          = 0 && RB6 == 0){
   688  00BF  1B86               	btfsc	6,7	;volatile
   689  00C0  28C2               	goto	u1221
   690  00C1  28C3               	goto	u1220
   691  00C2                     u1221:
   692  00C2  28C8               	goto	l56
   693  00C3                     u1220:
   694  00C3                     l1382:
   695  00C3  1B06               	btfsc	6,6	;volatile
   696  00C4  28C6               	goto	u1231
   697  00C5  28C7               	goto	u1230
   698  00C6                     u1231:
   699  00C6  28C8               	goto	l56
   700  00C7                     u1230:
   701  00C7                     l1384:
   702                           
   703                           ;C:/Users/danie/OneDrive/Desktop/DIGITAL2/proyecto3/musica.X/musica.c: 89:         PORTC
      +                          bits.RC4 = 0;
   704  00C7  1207               	bcf	7,4	;volatile
   705  00C8                     l56:	
   706                           ;C:/Users/danie/OneDrive/Desktop/DIGITAL2/proyecto3/musica.X/musica.c: 90:     }
   707                           
   708                           
   709                           ;C:/Users/danie/OneDrive/Desktop/DIGITAL2/proyecto3/musica.X/musica.c: 93:     if (RB7 =
      +                          = 0 && RB6 == 1){
   710  00C8  1B86               	btfsc	6,7	;volatile
   711  00C9  28CB               	goto	u1241
   712  00CA  28CC               	goto	u1240
   713  00CB                     u1241:
   714  00CB  28FF               	goto	l57
   715  00CC                     u1240:
   716  00CC                     l1386:
   717  00CC  1F06               	btfss	6,6	;volatile
   718  00CD  28CF               	goto	u1251
   719  00CE  28D0               	goto	u1250
   720  00CF                     u1251:
   721  00CF  28FF               	goto	l57
   722  00D0                     u1250:
   723  00D0                     l1388:
   724                           
   725                           ;C:/Users/danie/OneDrive/Desktop/DIGITAL2/proyecto3/musica.X/musica.c: 94:             f
      +                          or (int x = 0; x < 100; x++){
   726  00D0  01A0               	clrf	main@x
   727  00D1  01A1               	clrf	main@x+1
   728  00D2                     l58:
   729                           
   730                           ;C:/Users/danie/OneDrive/Desktop/DIGITAL2/proyecto3/musica.X/musica.c: 95:              
      +                             PORTCbits.RC4 = 1;
   731  00D2  1283               	bcf	3,5	;RP0=0, select bank0
   732  00D3  1303               	bcf	3,6	;RP1=0, select bank0
   733  00D4  1607               	bsf	7,4	;volatile
   734  00D5                     l1394:
   735                           
   736                           ;C:/Users/danie/OneDrive/Desktop/DIGITAL2/proyecto3/musica.X/musica.c: 96:              
      +                             _delay((unsigned long)((955)*(8000000/4000000.0)));
   737  00D5  3003               	movlw	3
   738  00D6  00FC               	movwf	??_main+1
   739  00D7  3079               	movlw	121
   740  00D8  00FB               	movwf	??_main
   741  00D9                     u2417:
   742  00D9  0BFB               	decfsz	??_main,f
   743  00DA  28D9               	goto	u2417
   744  00DB  0BFC               	decfsz	??_main+1,f
   745  00DC  28D9               	goto	u2417
   746  00DD  28DE               	nop2
   747  00DE                     l1396:
   748                           
   749                           ;C:/Users/danie/OneDrive/Desktop/DIGITAL2/proyecto3/musica.X/musica.c: 97:              
      +                             PORTCbits.RC4 = 0;
   750  00DE  1283               	bcf	3,5	;RP0=0, select bank0
   751  00DF  1303               	bcf	3,6	;RP1=0, select bank0
   752  00E0  1207               	bcf	7,4	;volatile
   753                           
   754                           ;C:/Users/danie/OneDrive/Desktop/DIGITAL2/proyecto3/musica.X/musica.c: 98:              
      +                             _delay((unsigned long)((955)*(8000000/4000000.0)));
   755  00E1  3003               	movlw	3
   756  00E2  00FC               	movwf	??_main+1
   757  00E3  3079               	movlw	121
   758  00E4  00FB               	movwf	??_main
   759  00E5                     u2427:
   760  00E5  0BFB               	decfsz	??_main,f
   761  00E6  28E5               	goto	u2427
   762  00E7  0BFC               	decfsz	??_main+1,f
   763  00E8  28E5               	goto	u2427
   764  00E9  28EA               	nop2
   765                           
   766                           ;C:/Users/danie/OneDrive/Desktop/DIGITAL2/proyecto3/musica.X/musica.c: 99:             }
   767  00EA  3001               	movlw	1
   768  00EB  1283               	bcf	3,5	;RP0=0, select bank0
   769  00EC  1303               	bcf	3,6	;RP1=0, select bank0
   770  00ED  07A0               	addwf	main@x,f
   771  00EE  1803               	skipnc
   772  00EF  0AA1               	incf	main@x+1,f
   773  00F0  3000               	movlw	0
   774  00F1  07A1               	addwf	main@x+1,f
   775  00F2                     l1398:
   776  00F2  0821               	movf	main@x+1,w
   777  00F3  3A80               	xorlw	128
   778  00F4  00FF               	movwf	btemp+1
   779  00F5  3080               	movlw	128
   780  00F6  027F               	subwf	btemp+1,w
   781  00F7  1D03               	skipz
   782  00F8  28FB               	goto	u1265
   783  00F9  3064               	movlw	100
   784  00FA  0220               	subwf	main@x,w
   785  00FB                     u1265:
   786  00FB  1C03               	skipc
   787  00FC  28FE               	goto	u1261
   788  00FD  28FF               	goto	u1260
   789  00FE                     u1261:
   790  00FE  28D2               	goto	l58
   791  00FF                     u1260:
   792  00FF                     l57:	
   793                           ;C:/Users/danie/OneDrive/Desktop/DIGITAL2/proyecto3/musica.X/musica.c: 100:         }
   794                           
   795                           
   796                           ;C:/Users/danie/OneDrive/Desktop/DIGITAL2/proyecto3/musica.X/musica.c: 101:     if (RB7 
      +                          == 0 && RB6 == 1){
   797  00FF  1283               	bcf	3,5	;RP0=0, select bank0
   798  0100  1303               	bcf	3,6	;RP1=0, select bank0
   799  0101  1B86               	btfsc	6,7	;volatile
   800  0102  2904               	goto	u1271
   801  0103  2905               	goto	u1270
   802  0104                     u1271:
   803  0104  2916               	goto	l1404
   804  0105                     u1270:
   805  0105                     l1400:
   806  0105  1F06               	btfss	6,6	;volatile
   807  0106  2908               	goto	u1281
   808  0107  2909               	goto	u1280
   809  0108                     u1281:
   810  0108  2916               	goto	l1404
   811  0109                     u1280:
   812  0109                     l1402:
   813                           
   814                           ;C:/Users/danie/OneDrive/Desktop/DIGITAL2/proyecto3/musica.X/musica.c: 102:             
      +                          _delay((unsigned long)((350)*(8000000/4000.0)));
   815  0109  3004               	movlw	4
   816  010A  00FD               	movwf	??_main+2
   817  010B  308E               	movlw	142
   818  010C  00FC               	movwf	??_main+1
   819  010D  3012               	movlw	18
   820  010E  00FB               	movwf	??_main
   821  010F                     u2437:
   822  010F  0BFB               	decfsz	??_main,f
   823  0110  290F               	goto	u2437
   824  0111  0BFC               	decfsz	??_main+1,f
   825  0112  290F               	goto	u2437
   826  0113  0BFD               	decfsz	??_main+2,f
   827  0114  290F               	goto	u2437
   828  0115  0000               	nop
   829  0116                     l1404:
   830                           
   831                           ;C:/Users/danie/OneDrive/Desktop/DIGITAL2/proyecto3/musica.X/musica.c: 104:     if (RB7 
      +                          == 0 && RB6 == 1){
   832  0116  1283               	bcf	3,5	;RP0=0, select bank0
   833  0117  1303               	bcf	3,6	;RP1=0, select bank0
   834  0118  1B86               	btfsc	6,7	;volatile
   835  0119  291B               	goto	u1291
   836  011A  291C               	goto	u1290
   837  011B                     u1291:
   838  011B  294F               	goto	l61
   839  011C                     u1290:
   840  011C                     l1406:
   841  011C  1F06               	btfss	6,6	;volatile
   842  011D  291F               	goto	u1301
   843  011E  2920               	goto	u1300
   844  011F                     u1301:
   845  011F  294F               	goto	l61
   846  0120                     u1300:
   847  0120                     l1408:
   848                           
   849                           ;C:/Users/danie/OneDrive/Desktop/DIGITAL2/proyecto3/musica.X/musica.c: 105:             
      +                          for (int x = 0; x < 100; x++){
   850  0120  01A2               	clrf	main@x_156
   851  0121  01A3               	clrf	main@x_156+1
   852  0122                     l62:
   853                           
   854                           ;C:/Users/danie/OneDrive/Desktop/DIGITAL2/proyecto3/musica.X/musica.c: 106:             
      +                              PORTCbits.RC4 = 1;
   855  0122  1283               	bcf	3,5	;RP0=0, select bank0
   856  0123  1303               	bcf	3,6	;RP1=0, select bank0
   857  0124  1607               	bsf	7,4	;volatile
   858  0125                     l1414:
   859                           
   860                           ;C:/Users/danie/OneDrive/Desktop/DIGITAL2/proyecto3/musica.X/musica.c: 107:             
      +                              _delay((unsigned long)((1275)*(8000000/4000000.0)));
   861  0125  3004               	movlw	4
   862  0126  00FC               	movwf	??_main+1
   863  0127  304E               	movlw	78
   864  0128  00FB               	movwf	??_main
   865  0129                     u2447:
   866  0129  0BFB               	decfsz	??_main,f
   867  012A  2929               	goto	u2447
   868  012B  0BFC               	decfsz	??_main+1,f
   869  012C  2929               	goto	u2447
   870  012D  0000               	nop
   871  012E                     l1416:
   872                           
   873                           ;C:/Users/danie/OneDrive/Desktop/DIGITAL2/proyecto3/musica.X/musica.c: 108:             
      +                              PORTCbits.RC4 = 0;
   874  012E  1283               	bcf	3,5	;RP0=0, select bank0
   875  012F  1303               	bcf	3,6	;RP1=0, select bank0
   876  0130  1207               	bcf	7,4	;volatile
   877                           
   878                           ;C:/Users/danie/OneDrive/Desktop/DIGITAL2/proyecto3/musica.X/musica.c: 109:             
      +                              _delay((unsigned long)((1275)*(8000000/4000000.0)));
   879  0131  3004               	movlw	4
   880  0132  00FC               	movwf	??_main+1
   881  0133  304E               	movlw	78
   882  0134  00FB               	movwf	??_main
   883  0135                     u2457:
   884  0135  0BFB               	decfsz	??_main,f
   885  0136  2935               	goto	u2457
   886  0137  0BFC               	decfsz	??_main+1,f
   887  0138  2935               	goto	u2457
   888  0139  0000               	nop
   889                           
   890                           ;C:/Users/danie/OneDrive/Desktop/DIGITAL2/proyecto3/musica.X/musica.c: 110:             
      +                          }
   891  013A  3001               	movlw	1
   892  013B  1283               	bcf	3,5	;RP0=0, select bank0
   893  013C  1303               	bcf	3,6	;RP1=0, select bank0
   894  013D  07A2               	addwf	main@x_156,f
   895  013E  1803               	skipnc
   896  013F  0AA3               	incf	main@x_156+1,f
   897  0140  3000               	movlw	0
   898  0141  07A3               	addwf	main@x_156+1,f
   899  0142                     l1418:
   900  0142  0823               	movf	main@x_156+1,w
   901  0143  3A80               	xorlw	128
   902  0144  00FF               	movwf	btemp+1
   903  0145  3080               	movlw	128
   904  0146  027F               	subwf	btemp+1,w
   905  0147  1D03               	skipz
   906  0148  294B               	goto	u1315
   907  0149  3064               	movlw	100
   908  014A  0222               	subwf	main@x_156,w
   909  014B                     u1315:
   910  014B  1C03               	skipc
   911  014C  294E               	goto	u1311
   912  014D  294F               	goto	u1310
   913  014E                     u1311:
   914  014E  2922               	goto	l62
   915  014F                     u1310:
   916  014F                     l61:	
   917                           ;C:/Users/danie/OneDrive/Desktop/DIGITAL2/proyecto3/musica.X/musica.c: 111:         }
   918                           
   919                           
   920                           ;C:/Users/danie/OneDrive/Desktop/DIGITAL2/proyecto3/musica.X/musica.c: 112:     if (RB7 
      +                          == 0 && RB6 == 1){
   921  014F  1283               	bcf	3,5	;RP0=0, select bank0
   922  0150  1303               	bcf	3,6	;RP1=0, select bank0
   923  0151  1B86               	btfsc	6,7	;volatile
   924  0152  2954               	goto	u1321
   925  0153  2955               	goto	u1320
   926  0154                     u1321:
   927  0154  2966               	goto	l1424
   928  0155                     u1320:
   929  0155                     l1420:
   930  0155  1F06               	btfss	6,6	;volatile
   931  0156  2958               	goto	u1331
   932  0157  2959               	goto	u1330
   933  0158                     u1331:
   934  0158  2966               	goto	l1424
   935  0159                     u1330:
   936  0159                     l1422:
   937                           
   938                           ;C:/Users/danie/OneDrive/Desktop/DIGITAL2/proyecto3/musica.X/musica.c: 113:             
      +                          _delay((unsigned long)((350)*(8000000/4000.0)));
   939  0159  3004               	movlw	4
   940  015A  00FD               	movwf	??_main+2
   941  015B  308E               	movlw	142
   942  015C  00FC               	movwf	??_main+1
   943  015D  3012               	movlw	18
   944  015E  00FB               	movwf	??_main
   945  015F                     u2467:
   946  015F  0BFB               	decfsz	??_main,f
   947  0160  295F               	goto	u2467
   948  0161  0BFC               	decfsz	??_main+1,f
   949  0162  295F               	goto	u2467
   950  0163  0BFD               	decfsz	??_main+2,f
   951  0164  295F               	goto	u2467
   952  0165  0000               	nop
   953  0166                     l1424:
   954                           
   955                           ;C:/Users/danie/OneDrive/Desktop/DIGITAL2/proyecto3/musica.X/musica.c: 115:     if (RB7 
      +                          == 0 && RB6 == 1){
   956  0166  1283               	bcf	3,5	;RP0=0, select bank0
   957  0167  1303               	bcf	3,6	;RP1=0, select bank0
   958  0168  1B86               	btfsc	6,7	;volatile
   959  0169  296B               	goto	u1341
   960  016A  296C               	goto	u1340
   961  016B                     u1341:
   962  016B  299F               	goto	l65
   963  016C                     u1340:
   964  016C                     l1426:
   965  016C  1F06               	btfss	6,6	;volatile
   966  016D  296F               	goto	u1351
   967  016E  2970               	goto	u1350
   968  016F                     u1351:
   969  016F  299F               	goto	l65
   970  0170                     u1350:
   971  0170                     l1428:
   972                           
   973                           ;C:/Users/danie/OneDrive/Desktop/DIGITAL2/proyecto3/musica.X/musica.c: 116:             
      +                          for (int x = 0; x < 100; x++){
   974  0170  01A4               	clrf	main@x_157
   975  0171  01A5               	clrf	main@x_157+1
   976  0172                     l66:
   977                           
   978                           ;C:/Users/danie/OneDrive/Desktop/DIGITAL2/proyecto3/musica.X/musica.c: 117:             
      +                              PORTCbits.RC4 = 1;
   979  0172  1283               	bcf	3,5	;RP0=0, select bank0
   980  0173  1303               	bcf	3,6	;RP1=0, select bank0
   981  0174  1607               	bsf	7,4	;volatile
   982  0175                     l1434:
   983                           
   984                           ;C:/Users/danie/OneDrive/Desktop/DIGITAL2/proyecto3/musica.X/musica.c: 118:             
      +                              _delay((unsigned long)((1515)*(8000000/4000000.0)));
   985  0175  3004               	movlw	4
   986  0176  00FC               	movwf	??_main+1
   987  0177  30EE               	movlw	238
   988  0178  00FB               	movwf	??_main
   989  0179                     u2477:
   990  0179  0BFB               	decfsz	??_main,f
   991  017A  2979               	goto	u2477
   992  017B  0BFC               	decfsz	??_main+1,f
   993  017C  2979               	goto	u2477
   994  017D  0000               	nop
   995  017E                     l1436:
   996                           
   997                           ;C:/Users/danie/OneDrive/Desktop/DIGITAL2/proyecto3/musica.X/musica.c: 119:             
      +                              PORTCbits.RC4 = 0;
   998  017E  1283               	bcf	3,5	;RP0=0, select bank0
   999  017F  1303               	bcf	3,6	;RP1=0, select bank0
  1000  0180  1207               	bcf	7,4	;volatile
  1001                           
  1002                           ;C:/Users/danie/OneDrive/Desktop/DIGITAL2/proyecto3/musica.X/musica.c: 120:             
      +                              _delay((unsigned long)((1515)*(8000000/4000000.0)));
  1003  0181  3004               	movlw	4
  1004  0182  00FC               	movwf	??_main+1
  1005  0183  30EE               	movlw	238
  1006  0184  00FB               	movwf	??_main
  1007  0185                     u2487:
  1008  0185  0BFB               	decfsz	??_main,f
  1009  0186  2985               	goto	u2487
  1010  0187  0BFC               	decfsz	??_main+1,f
  1011  0188  2985               	goto	u2487
  1012  0189  0000               	nop
  1013                           
  1014                           ;C:/Users/danie/OneDrive/Desktop/DIGITAL2/proyecto3/musica.X/musica.c: 121:             
      +                          }
  1015  018A  3001               	movlw	1
  1016  018B  1283               	bcf	3,5	;RP0=0, select bank0
  1017  018C  1303               	bcf	3,6	;RP1=0, select bank0
  1018  018D  07A4               	addwf	main@x_157,f
  1019  018E  1803               	skipnc
  1020  018F  0AA5               	incf	main@x_157+1,f
  1021  0190  3000               	movlw	0
  1022  0191  07A5               	addwf	main@x_157+1,f
  1023  0192                     l1438:
  1024  0192  0825               	movf	main@x_157+1,w
  1025  0193  3A80               	xorlw	128
  1026  0194  00FF               	movwf	btemp+1
  1027  0195  3080               	movlw	128
  1028  0196  027F               	subwf	btemp+1,w
  1029  0197  1D03               	skipz
  1030  0198  299B               	goto	u1365
  1031  0199  3064               	movlw	100
  1032  019A  0224               	subwf	main@x_157,w
  1033  019B                     u1365:
  1034  019B  1C03               	skipc
  1035  019C  299E               	goto	u1361
  1036  019D  299F               	goto	u1360
  1037  019E                     u1361:
  1038  019E  2972               	goto	l66
  1039  019F                     u1360:
  1040  019F                     l65:	
  1041                           ;C:/Users/danie/OneDrive/Desktop/DIGITAL2/proyecto3/musica.X/musica.c: 122:         }
  1042                           
  1043                           
  1044                           ;C:/Users/danie/OneDrive/Desktop/DIGITAL2/proyecto3/musica.X/musica.c: 123:     if (RB7 
      +                          == 0 && RB6 == 1){
  1045  019F  1283               	bcf	3,5	;RP0=0, select bank0
  1046  01A0  1303               	bcf	3,6	;RP1=0, select bank0
  1047  01A1  1B86               	btfsc	6,7	;volatile
  1048  01A2  29A4               	goto	u1371
  1049  01A3  29A5               	goto	u1370
  1050  01A4                     u1371:
  1051  01A4  29B6               	goto	l1444
  1052  01A5                     u1370:
  1053  01A5                     l1440:
  1054  01A5  1F06               	btfss	6,6	;volatile
  1055  01A6  29A8               	goto	u1381
  1056  01A7  29A9               	goto	u1380
  1057  01A8                     u1381:
  1058  01A8  29B6               	goto	l1444
  1059  01A9                     u1380:
  1060  01A9                     l1442:
  1061                           
  1062                           ;C:/Users/danie/OneDrive/Desktop/DIGITAL2/proyecto3/musica.X/musica.c: 124:             
      +                          _delay((unsigned long)((350)*(8000000/4000.0)));
  1063  01A9  3004               	movlw	4
  1064  01AA  00FD               	movwf	??_main+2
  1065  01AB  308E               	movlw	142
  1066  01AC  00FC               	movwf	??_main+1
  1067  01AD  3012               	movlw	18
  1068  01AE  00FB               	movwf	??_main
  1069  01AF                     u2497:
  1070  01AF  0BFB               	decfsz	??_main,f
  1071  01B0  29AF               	goto	u2497
  1072  01B1  0BFC               	decfsz	??_main+1,f
  1073  01B2  29AF               	goto	u2497
  1074  01B3  0BFD               	decfsz	??_main+2,f
  1075  01B4  29AF               	goto	u2497
  1076  01B5  0000               	nop
  1077  01B6                     l1444:
  1078                           
  1079                           ;C:/Users/danie/OneDrive/Desktop/DIGITAL2/proyecto3/musica.X/musica.c: 127:     if (RB7 
      +                          == 0 && RB6 == 1){
  1080  01B6  1283               	bcf	3,5	;RP0=0, select bank0
  1081  01B7  1303               	bcf	3,6	;RP1=0, select bank0
  1082  01B8  1B86               	btfsc	6,7	;volatile
  1083  01B9  29BB               	goto	u1391
  1084  01BA  29BC               	goto	u1390
  1085  01BB                     u1391:
  1086  01BB  29EF               	goto	l69
  1087  01BC                     u1390:
  1088  01BC                     l1446:
  1089  01BC  1F06               	btfss	6,6	;volatile
  1090  01BD  29BF               	goto	u1401
  1091  01BE  29C0               	goto	u1400
  1092  01BF                     u1401:
  1093  01BF  29EF               	goto	l69
  1094  01C0                     u1400:
  1095  01C0                     l1448:
  1096                           
  1097                           ;C:/Users/danie/OneDrive/Desktop/DIGITAL2/proyecto3/musica.X/musica.c: 128:             
      +                          for (int x = 0; x < 100; x++){
  1098  01C0  01A6               	clrf	main@x_158
  1099  01C1  01A7               	clrf	main@x_158+1
  1100  01C2                     l70:
  1101                           
  1102                           ;C:/Users/danie/OneDrive/Desktop/DIGITAL2/proyecto3/musica.X/musica.c: 129:             
      +                              PORTCbits.RC4 = 1;
  1103  01C2  1283               	bcf	3,5	;RP0=0, select bank0
  1104  01C3  1303               	bcf	3,6	;RP1=0, select bank0
  1105  01C4  1607               	bsf	7,4	;volatile
  1106  01C5                     l1454:
  1107                           
  1108                           ;C:/Users/danie/OneDrive/Desktop/DIGITAL2/proyecto3/musica.X/musica.c: 130:             
      +                              _delay((unsigned long)((1135)*(8000000/4000000.0)));
  1109  01C5  3003               	movlw	3
  1110  01C6  00FC               	movwf	??_main+1
  1111  01C7  30F1               	movlw	241
  1112  01C8  00FB               	movwf	??_main
  1113  01C9                     u2507:
  1114  01C9  0BFB               	decfsz	??_main,f
  1115  01CA  29C9               	goto	u2507
  1116  01CB  0BFC               	decfsz	??_main+1,f
  1117  01CC  29C9               	goto	u2507
  1118  01CD  29CE               	nop2
  1119  01CE                     l1456:
  1120                           
  1121                           ;C:/Users/danie/OneDrive/Desktop/DIGITAL2/proyecto3/musica.X/musica.c: 131:             
      +                              PORTCbits.RC4 = 0;
  1122  01CE  1283               	bcf	3,5	;RP0=0, select bank0
  1123  01CF  1303               	bcf	3,6	;RP1=0, select bank0
  1124  01D0  1207               	bcf	7,4	;volatile
  1125                           
  1126                           ;C:/Users/danie/OneDrive/Desktop/DIGITAL2/proyecto3/musica.X/musica.c: 132:             
      +                              _delay((unsigned long)((1135)*(8000000/4000000.0)));
  1127  01D1  3003               	movlw	3
  1128  01D2  00FC               	movwf	??_main+1
  1129  01D3  30F1               	movlw	241
  1130  01D4  00FB               	movwf	??_main
  1131  01D5                     u2517:
  1132  01D5  0BFB               	decfsz	??_main,f
  1133  01D6  29D5               	goto	u2517
  1134  01D7  0BFC               	decfsz	??_main+1,f
  1135  01D8  29D5               	goto	u2517
  1136  01D9  29DA               	nop2
  1137                           
  1138                           ;C:/Users/danie/OneDrive/Desktop/DIGITAL2/proyecto3/musica.X/musica.c: 133:             
      +                          }
  1139  01DA  3001               	movlw	1
  1140  01DB  1283               	bcf	3,5	;RP0=0, select bank0
  1141  01DC  1303               	bcf	3,6	;RP1=0, select bank0
  1142  01DD  07A6               	addwf	main@x_158,f
  1143  01DE  1803               	skipnc
  1144  01DF  0AA7               	incf	main@x_158+1,f
  1145  01E0  3000               	movlw	0
  1146  01E1  07A7               	addwf	main@x_158+1,f
  1147  01E2                     l1458:
  1148  01E2  0827               	movf	main@x_158+1,w
  1149  01E3  3A80               	xorlw	128
  1150  01E4  00FF               	movwf	btemp+1
  1151  01E5  3080               	movlw	128
  1152  01E6  027F               	subwf	btemp+1,w
  1153  01E7  1D03               	skipz
  1154  01E8  29EB               	goto	u1415
  1155  01E9  3064               	movlw	100
  1156  01EA  0226               	subwf	main@x_158,w
  1157  01EB                     u1415:
  1158  01EB  1C03               	skipc
  1159  01EC  29EE               	goto	u1411
  1160  01ED  29EF               	goto	u1410
  1161  01EE                     u1411:
  1162  01EE  29C2               	goto	l70
  1163  01EF                     u1410:
  1164  01EF                     l69:	
  1165                           ;C:/Users/danie/OneDrive/Desktop/DIGITAL2/proyecto3/musica.X/musica.c: 134:         }
  1166                           
  1167                           
  1168                           ;C:/Users/danie/OneDrive/Desktop/DIGITAL2/proyecto3/musica.X/musica.c: 135:     if (RB7 
      +                          == 0 && RB6 == 1){
  1169  01EF  1283               	bcf	3,5	;RP0=0, select bank0
  1170  01F0  1303               	bcf	3,6	;RP1=0, select bank0
  1171  01F1  1B86               	btfsc	6,7	;volatile
  1172  01F2  29F4               	goto	u1421
  1173  01F3  29F5               	goto	u1420
  1174  01F4                     u1421:
  1175  01F4  2A05               	goto	l1464
  1176  01F5                     u1420:
  1177  01F5                     l1460:
  1178  01F5  1F06               	btfss	6,6	;volatile
  1179  01F6  29F8               	goto	u1431
  1180  01F7  29F9               	goto	u1430
  1181  01F8                     u1431:
  1182  01F8  2A05               	goto	l1464
  1183  01F9                     u1430:
  1184  01F9                     l1462:
  1185                           
  1186                           ;C:/Users/danie/OneDrive/Desktop/DIGITAL2/proyecto3/musica.X/musica.c: 136:             
      +                          _delay((unsigned long)((200)*(8000000/4000.0)));
  1187  01F9  3003               	movlw	3
  1188  01FA  00FD               	movwf	??_main+2
  1189  01FB  3008               	movlw	8
  1190  01FC  00FC               	movwf	??_main+1
  1191  01FD  3077               	movlw	119
  1192  01FE  00FB               	movwf	??_main
  1193  01FF                     u2527:
  1194  01FF  0BFB               	decfsz	??_main,f
  1195  0200  29FF               	goto	u2527
  1196  0201  0BFC               	decfsz	??_main+1,f
  1197  0202  29FF               	goto	u2527
  1198  0203  0BFD               	decfsz	??_main+2,f
  1199  0204  29FF               	goto	u2527
  1200  0205                     l1464:
  1201                           
  1202                           ;C:/Users/danie/OneDrive/Desktop/DIGITAL2/proyecto3/musica.X/musica.c: 138:     if (RB7 
      +                          == 0 && RB6 == 1){
  1203  0205  1283               	bcf	3,5	;RP0=0, select bank0
  1204  0206  1303               	bcf	3,6	;RP1=0, select bank0
  1205  0207  1B86               	btfsc	6,7	;volatile
  1206  0208  2A0A               	goto	u1441
  1207  0209  2A0B               	goto	u1440
  1208  020A                     u1441:
  1209  020A  2A40               	goto	l73
  1210  020B                     u1440:
  1211  020B                     l1466:
  1212  020B  1F06               	btfss	6,6	;volatile
  1213  020C  2A0E               	goto	u1451
  1214  020D  2A0F               	goto	u1450
  1215  020E                     u1451:
  1216  020E  2A40               	goto	l73
  1217  020F                     u1450:
  1218  020F                     l1468:
  1219                           
  1220                           ;C:/Users/danie/OneDrive/Desktop/DIGITAL2/proyecto3/musica.X/musica.c: 139:             
      +                          for (int x = 0; x < 100; x++){
  1221  020F  01A8               	clrf	main@x_159
  1222  0210  01A9               	clrf	main@x_159+1
  1223  0211                     l1470:
  1224  0211  0829               	movf	main@x_159+1,w
  1225  0212  3A80               	xorlw	128
  1226  0213  00FF               	movwf	btemp+1
  1227  0214  3080               	movlw	128
  1228  0215  027F               	subwf	btemp+1,w
  1229  0216  1D03               	skipz
  1230  0217  2A1A               	goto	u1465
  1231  0218  3064               	movlw	100
  1232  0219  0228               	subwf	main@x_159,w
  1233  021A                     u1465:
  1234  021A  1C03               	skipc
  1235  021B  2A1D               	goto	u1461
  1236  021C  2A1E               	goto	u1460
  1237  021D                     u1461:
  1238  021D  2A1F               	goto	l74
  1239  021E                     u1460:
  1240  021E  2A40               	goto	l73
  1241  021F                     l74:
  1242                           
  1243                           ;C:/Users/danie/OneDrive/Desktop/DIGITAL2/proyecto3/musica.X/musica.c: 140:             
      +                              PORTCbits.RC4 = 1;
  1244  021F  1283               	bcf	3,5	;RP0=0, select bank0
  1245  0220  1303               	bcf	3,6	;RP1=0, select bank0
  1246  0221  1607               	bsf	7,4	;volatile
  1247  0222                     l1474:
  1248                           
  1249                           ;C:/Users/danie/OneDrive/Desktop/DIGITAL2/proyecto3/musica.X/musica.c: 141:             
      +                              _delay((unsigned long)((1015)*(8000000/4000000.0)));
  1250  0222  3003               	movlw	3
  1251  0223  00FC               	movwf	??_main+1
  1252  0224  30A1               	movlw	161
  1253  0225  00FB               	movwf	??_main
  1254  0226                     u2537:
  1255  0226  0BFB               	decfsz	??_main,f
  1256  0227  2A26               	goto	u2537
  1257  0228  0BFC               	decfsz	??_main+1,f
  1258  0229  2A26               	goto	u2537
  1259  022A  2A2B               	nop2
  1260  022B                     l1476:
  1261                           
  1262                           ;C:/Users/danie/OneDrive/Desktop/DIGITAL2/proyecto3/musica.X/musica.c: 142:             
      +                              PORTCbits.RC4 = 0;
  1263  022B  1283               	bcf	3,5	;RP0=0, select bank0
  1264  022C  1303               	bcf	3,6	;RP1=0, select bank0
  1265  022D  1207               	bcf	7,4	;volatile
  1266                           
  1267                           ;C:/Users/danie/OneDrive/Desktop/DIGITAL2/proyecto3/musica.X/musica.c: 143:             
      +                              _delay((unsigned long)((1015)*(8000000/4000000.0)));
  1268  022E  3003               	movlw	3
  1269  022F  00FC               	movwf	??_main+1
  1270  0230  30A1               	movlw	161
  1271  0231  00FB               	movwf	??_main
  1272  0232                     u2547:
  1273  0232  0BFB               	decfsz	??_main,f
  1274  0233  2A32               	goto	u2547
  1275  0234  0BFC               	decfsz	??_main+1,f
  1276  0235  2A32               	goto	u2547
  1277  0236  2A37               	nop2
  1278                           
  1279                           ;C:/Users/danie/OneDrive/Desktop/DIGITAL2/proyecto3/musica.X/musica.c: 144:             
      +                          }
  1280  0237  3001               	movlw	1
  1281  0238  1283               	bcf	3,5	;RP0=0, select bank0
  1282  0239  1303               	bcf	3,6	;RP1=0, select bank0
  1283  023A  07A8               	addwf	main@x_159,f
  1284  023B  1803               	skipnc
  1285  023C  0AA9               	incf	main@x_159+1,f
  1286  023D  3000               	movlw	0
  1287  023E  07A9               	addwf	main@x_159+1,f
  1288  023F  2A11               	goto	l1470
  1289  0240                     l73:	
  1290                           ;C:/Users/danie/OneDrive/Desktop/DIGITAL2/proyecto3/musica.X/musica.c: 145:         }
  1291                           
  1292                           
  1293                           ;C:/Users/danie/OneDrive/Desktop/DIGITAL2/proyecto3/musica.X/musica.c: 146:     if (RB7 
      +                          == 0 && RB6 == 1){
  1294  0240  1283               	bcf	3,5	;RP0=0, select bank0
  1295  0241  1303               	bcf	3,6	;RP1=0, select bank0
  1296  0242  1B86               	btfsc	6,7	;volatile
  1297  0243  2A45               	goto	u1471
  1298  0244  2A46               	goto	u1470
  1299  0245                     u1471:
  1300  0245  2A56               	goto	l1484
  1301  0246                     u1470:
  1302  0246                     l1480:
  1303  0246  1F06               	btfss	6,6	;volatile
  1304  0247  2A49               	goto	u1481
  1305  0248  2A4A               	goto	u1480
  1306  0249                     u1481:
  1307  0249  2A56               	goto	l1484
  1308  024A                     u1480:
  1309  024A                     l1482:
  1310                           
  1311                           ;C:/Users/danie/OneDrive/Desktop/DIGITAL2/proyecto3/musica.X/musica.c: 147:             
      +                          _delay((unsigned long)((200)*(8000000/4000.0)));
  1312  024A  3003               	movlw	3
  1313  024B  00FD               	movwf	??_main+2
  1314  024C  3008               	movlw	8
  1315  024D  00FC               	movwf	??_main+1
  1316  024E  3077               	movlw	119
  1317  024F  00FB               	movwf	??_main
  1318  0250                     u2557:
  1319  0250  0BFB               	decfsz	??_main,f
  1320  0251  2A50               	goto	u2557
  1321  0252  0BFC               	decfsz	??_main+1,f
  1322  0253  2A50               	goto	u2557
  1323  0254  0BFD               	decfsz	??_main+2,f
  1324  0255  2A50               	goto	u2557
  1325  0256                     l1484:
  1326                           
  1327                           ;C:/Users/danie/OneDrive/Desktop/DIGITAL2/proyecto3/musica.X/musica.c: 149:     if (RB7 
      +                          == 0 && RB6 == 1){
  1328  0256  1283               	bcf	3,5	;RP0=0, select bank0
  1329  0257  1303               	bcf	3,6	;RP1=0, select bank0
  1330  0258  1B86               	btfsc	6,7	;volatile
  1331  0259  2A5B               	goto	u1491
  1332  025A  2A5C               	goto	u1490
  1333  025B                     u1491:
  1334  025B  2A91               	goto	l77
  1335  025C                     u1490:
  1336  025C                     l1486:
  1337  025C  1F06               	btfss	6,6	;volatile
  1338  025D  2A5F               	goto	u1501
  1339  025E  2A60               	goto	u1500
  1340  025F                     u1501:
  1341  025F  2A91               	goto	l77
  1342  0260                     u1500:
  1343  0260                     l1488:
  1344                           
  1345                           ;C:/Users/danie/OneDrive/Desktop/DIGITAL2/proyecto3/musica.X/musica.c: 150:             
      +                          for (int x = 0; x < 50; x++){
  1346  0260  01AA               	clrf	main@x_160
  1347  0261  01AB               	clrf	main@x_160+1
  1348  0262                     l1490:
  1349  0262  082B               	movf	main@x_160+1,w
  1350  0263  3A80               	xorlw	128
  1351  0264  00FF               	movwf	btemp+1
  1352  0265  3080               	movlw	128
  1353  0266  027F               	subwf	btemp+1,w
  1354  0267  1D03               	skipz
  1355  0268  2A6B               	goto	u1515
  1356  0269  3032               	movlw	50
  1357  026A  022A               	subwf	main@x_160,w
  1358  026B                     u1515:
  1359  026B  1C03               	skipc
  1360  026C  2A6E               	goto	u1511
  1361  026D  2A6F               	goto	u1510
  1362  026E                     u1511:
  1363  026E  2A70               	goto	l78
  1364  026F                     u1510:
  1365  026F  2A91               	goto	l77
  1366  0270                     l78:
  1367                           
  1368                           ;C:/Users/danie/OneDrive/Desktop/DIGITAL2/proyecto3/musica.X/musica.c: 151:             
      +                              PORTCbits.RC4 = 1;
  1369  0270  1283               	bcf	3,5	;RP0=0, select bank0
  1370  0271  1303               	bcf	3,6	;RP1=0, select bank0
  1371  0272  1607               	bsf	7,4	;volatile
  1372  0273                     l1494:
  1373                           
  1374                           ;C:/Users/danie/OneDrive/Desktop/DIGITAL2/proyecto3/musica.X/musica.c: 152:             
      +                              _delay((unsigned long)((1075)*(8000000/4000000.0)));
  1375  0273  3003               	movlw	3
  1376  0274  00FC               	movwf	??_main+1
  1377  0275  30C9               	movlw	201
  1378  0276  00FB               	movwf	??_main
  1379  0277                     u2567:
  1380  0277  0BFB               	decfsz	??_main,f
  1381  0278  2A77               	goto	u2567
  1382  0279  0BFC               	decfsz	??_main+1,f
  1383  027A  2A77               	goto	u2567
  1384  027B  2A7C               	nop2
  1385  027C                     l1496:
  1386                           
  1387                           ;C:/Users/danie/OneDrive/Desktop/DIGITAL2/proyecto3/musica.X/musica.c: 153:             
      +                              PORTCbits.RC4 = 0;
  1388  027C  1283               	bcf	3,5	;RP0=0, select bank0
  1389  027D  1303               	bcf	3,6	;RP1=0, select bank0
  1390  027E  1207               	bcf	7,4	;volatile
  1391                           
  1392                           ;C:/Users/danie/OneDrive/Desktop/DIGITAL2/proyecto3/musica.X/musica.c: 154:             
      +                              _delay((unsigned long)((1075)*(8000000/4000000.0)));
  1393  027F  3003               	movlw	3
  1394  0280  00FC               	movwf	??_main+1
  1395  0281  30C9               	movlw	201
  1396  0282  00FB               	movwf	??_main
  1397  0283                     u2577:
  1398  0283  0BFB               	decfsz	??_main,f
  1399  0284  2A83               	goto	u2577
  1400  0285  0BFC               	decfsz	??_main+1,f
  1401  0286  2A83               	goto	u2577
  1402  0287  2A88               	nop2
  1403                           
  1404                           ;C:/Users/danie/OneDrive/Desktop/DIGITAL2/proyecto3/musica.X/musica.c: 155:             
      +                          }
  1405  0288  3001               	movlw	1
  1406  0289  1283               	bcf	3,5	;RP0=0, select bank0
  1407  028A  1303               	bcf	3,6	;RP1=0, select bank0
  1408  028B  07AA               	addwf	main@x_160,f
  1409  028C  1803               	skipnc
  1410  028D  0AAB               	incf	main@x_160+1,f
  1411  028E  3000               	movlw	0
  1412  028F  07AB               	addwf	main@x_160+1,f
  1413  0290  2A62               	goto	l1490
  1414  0291                     l77:	
  1415                           ;C:/Users/danie/OneDrive/Desktop/DIGITAL2/proyecto3/musica.X/musica.c: 156:         }
  1416                           
  1417                           
  1418                           ;C:/Users/danie/OneDrive/Desktop/DIGITAL2/proyecto3/musica.X/musica.c: 157:     if (RB7 
      +                          == 0 && RB6 == 1){
  1419  0291  1283               	bcf	3,5	;RP0=0, select bank0
  1420  0292  1303               	bcf	3,6	;RP1=0, select bank0
  1421  0293  1B86               	btfsc	6,7	;volatile
  1422  0294  2A96               	goto	u1521
  1423  0295  2A97               	goto	u1520
  1424  0296                     u1521:
  1425  0296  2AA7               	goto	l1504
  1426  0297                     u1520:
  1427  0297                     l1500:
  1428  0297  1F06               	btfss	6,6	;volatile
  1429  0298  2A9A               	goto	u1531
  1430  0299  2A9B               	goto	u1530
  1431  029A                     u1531:
  1432  029A  2AA7               	goto	l1504
  1433  029B                     u1530:
  1434  029B                     l1502:
  1435                           
  1436                           ;C:/Users/danie/OneDrive/Desktop/DIGITAL2/proyecto3/musica.X/musica.c: 158:             
      +                          _delay((unsigned long)((200)*(8000000/4000.0)));
  1437  029B  3003               	movlw	3
  1438  029C  00FD               	movwf	??_main+2
  1439  029D  3008               	movlw	8
  1440  029E  00FC               	movwf	??_main+1
  1441  029F  3077               	movlw	119
  1442  02A0  00FB               	movwf	??_main
  1443  02A1                     u2587:
  1444  02A1  0BFB               	decfsz	??_main,f
  1445  02A2  2AA1               	goto	u2587
  1446  02A3  0BFC               	decfsz	??_main+1,f
  1447  02A4  2AA1               	goto	u2587
  1448  02A5  0BFD               	decfsz	??_main+2,f
  1449  02A6  2AA1               	goto	u2587
  1450  02A7                     l1504:
  1451                           
  1452                           ;C:/Users/danie/OneDrive/Desktop/DIGITAL2/proyecto3/musica.X/musica.c: 160:     if (RB7 
      +                          == 0 && RB6 == 1){
  1453  02A7  1283               	bcf	3,5	;RP0=0, select bank0
  1454  02A8  1303               	bcf	3,6	;RP1=0, select bank0
  1455  02A9  1B86               	btfsc	6,7	;volatile
  1456  02AA  2AAC               	goto	u1541
  1457  02AB  2AAD               	goto	u1540
  1458  02AC                     u1541:
  1459  02AC  2AE2               	goto	l81
  1460  02AD                     u1540:
  1461  02AD                     l1506:
  1462  02AD  1F06               	btfss	6,6	;volatile
  1463  02AE  2AB0               	goto	u1551
  1464  02AF  2AB1               	goto	u1550
  1465  02B0                     u1551:
  1466  02B0  2AE2               	goto	l81
  1467  02B1                     u1550:
  1468  02B1                     l1508:
  1469                           
  1470                           ;C:/Users/danie/OneDrive/Desktop/DIGITAL2/proyecto3/musica.X/musica.c: 161:             
      +                          for (int x = 0; x < 100; x++){
  1471  02B1  01AC               	clrf	main@x_161
  1472  02B2  01AD               	clrf	main@x_161+1
  1473  02B3                     l1510:
  1474  02B3  082D               	movf	main@x_161+1,w
  1475  02B4  3A80               	xorlw	128
  1476  02B5  00FF               	movwf	btemp+1
  1477  02B6  3080               	movlw	128
  1478  02B7  027F               	subwf	btemp+1,w
  1479  02B8  1D03               	skipz
  1480  02B9  2ABC               	goto	u1565
  1481  02BA  3064               	movlw	100
  1482  02BB  022C               	subwf	main@x_161,w
  1483  02BC                     u1565:
  1484  02BC  1C03               	skipc
  1485  02BD  2ABF               	goto	u1561
  1486  02BE  2AC0               	goto	u1560
  1487  02BF                     u1561:
  1488  02BF  2AC1               	goto	l82
  1489  02C0                     u1560:
  1490  02C0  2AE2               	goto	l81
  1491  02C1                     l82:
  1492                           
  1493                           ;C:/Users/danie/OneDrive/Desktop/DIGITAL2/proyecto3/musica.X/musica.c: 162:             
      +                              PORTCbits.RC4 = 1;
  1494  02C1  1283               	bcf	3,5	;RP0=0, select bank0
  1495  02C2  1303               	bcf	3,6	;RP1=0, select bank0
  1496  02C3  1607               	bsf	7,4	;volatile
  1497  02C4                     l1514:
  1498                           
  1499                           ;C:/Users/danie/OneDrive/Desktop/DIGITAL2/proyecto3/musica.X/musica.c: 163:             
      +                              _delay((unsigned long)((1135)*(8000000/4000000.0)));
  1500  02C4  3003               	movlw	3
  1501  02C5  00FC               	movwf	??_main+1
  1502  02C6  30F1               	movlw	241
  1503  02C7  00FB               	movwf	??_main
  1504  02C8                     u2597:
  1505  02C8  0BFB               	decfsz	??_main,f
  1506  02C9  2AC8               	goto	u2597
  1507  02CA  0BFC               	decfsz	??_main+1,f
  1508  02CB  2AC8               	goto	u2597
  1509  02CC  2ACD               	nop2
  1510  02CD                     l1516:
  1511                           
  1512                           ;C:/Users/danie/OneDrive/Desktop/DIGITAL2/proyecto3/musica.X/musica.c: 164:             
      +                              PORTCbits.RC4 = 0;
  1513  02CD  1283               	bcf	3,5	;RP0=0, select bank0
  1514  02CE  1303               	bcf	3,6	;RP1=0, select bank0
  1515  02CF  1207               	bcf	7,4	;volatile
  1516                           
  1517                           ;C:/Users/danie/OneDrive/Desktop/DIGITAL2/proyecto3/musica.X/musica.c: 165:             
      +                              _delay((unsigned long)((1135)*(8000000/4000000.0)));
  1518  02D0  3003               	movlw	3
  1519  02D1  00FC               	movwf	??_main+1
  1520  02D2  30F1               	movlw	241
  1521  02D3  00FB               	movwf	??_main
  1522  02D4                     u2607:
  1523  02D4  0BFB               	decfsz	??_main,f
  1524  02D5  2AD4               	goto	u2607
  1525  02D6  0BFC               	decfsz	??_main+1,f
  1526  02D7  2AD4               	goto	u2607
  1527  02D8  2AD9               	nop2
  1528                           
  1529                           ;C:/Users/danie/OneDrive/Desktop/DIGITAL2/proyecto3/musica.X/musica.c: 166:             
      +                          }
  1530  02D9  3001               	movlw	1
  1531  02DA  1283               	bcf	3,5	;RP0=0, select bank0
  1532  02DB  1303               	bcf	3,6	;RP1=0, select bank0
  1533  02DC  07AC               	addwf	main@x_161,f
  1534  02DD  1803               	skipnc
  1535  02DE  0AAD               	incf	main@x_161+1,f
  1536  02DF  3000               	movlw	0
  1537  02E0  07AD               	addwf	main@x_161+1,f
  1538  02E1  2AB3               	goto	l1510
  1539  02E2                     l81:	
  1540                           ;C:/Users/danie/OneDrive/Desktop/DIGITAL2/proyecto3/musica.X/musica.c: 167:         }
  1541                           
  1542                           
  1543                           ;C:/Users/danie/OneDrive/Desktop/DIGITAL2/proyecto3/musica.X/musica.c: 168:     if (RB7 
      +                          == 0 && RB6 == 1){
  1544  02E2  1283               	bcf	3,5	;RP0=0, select bank0
  1545  02E3  1303               	bcf	3,6	;RP1=0, select bank0
  1546  02E4  1B86               	btfsc	6,7	;volatile
  1547  02E5  2AE7               	goto	u1571
  1548  02E6  2AE8               	goto	u1570
  1549  02E7                     u1571:
  1550  02E7  2AF8               	goto	l1524
  1551  02E8                     u1570:
  1552  02E8                     l1520:
  1553  02E8  1F06               	btfss	6,6	;volatile
  1554  02E9  2AEB               	goto	u1581
  1555  02EA  2AEC               	goto	u1580
  1556  02EB                     u1581:
  1557  02EB  2AF8               	goto	l1524
  1558  02EC                     u1580:
  1559  02EC                     l1522:
  1560                           
  1561                           ;C:/Users/danie/OneDrive/Desktop/DIGITAL2/proyecto3/musica.X/musica.c: 169:             
      +                          _delay((unsigned long)((200)*(8000000/4000.0)));
  1562  02EC  3003               	movlw	3
  1563  02ED  00FD               	movwf	??_main+2
  1564  02EE  3008               	movlw	8
  1565  02EF  00FC               	movwf	??_main+1
  1566  02F0  3077               	movlw	119
  1567  02F1  00FB               	movwf	??_main
  1568  02F2                     u2617:
  1569  02F2  0BFB               	decfsz	??_main,f
  1570  02F3  2AF2               	goto	u2617
  1571  02F4  0BFC               	decfsz	??_main+1,f
  1572  02F5  2AF2               	goto	u2617
  1573  02F6  0BFD               	decfsz	??_main+2,f
  1574  02F7  2AF2               	goto	u2617
  1575  02F8                     l1524:
  1576                           
  1577                           ;C:/Users/danie/OneDrive/Desktop/DIGITAL2/proyecto3/musica.X/musica.c: 172:     if (RB7 
      +                          == 0 && RB6 == 1){
  1578  02F8  1283               	bcf	3,5	;RP0=0, select bank0
  1579  02F9  1303               	bcf	3,6	;RP1=0, select bank0
  1580  02FA  1B86               	btfsc	6,7	;volatile
  1581  02FB  2AFD               	goto	u1591
  1582  02FC  2AFE               	goto	u1590
  1583  02FD                     u1591:
  1584  02FD  2B33               	goto	l85
  1585  02FE                     u1590:
  1586  02FE                     l1526:
  1587  02FE  1F06               	btfss	6,6	;volatile
  1588  02FF  2B01               	goto	u1601
  1589  0300  2B02               	goto	u1600
  1590  0301                     u1601:
  1591  0301  2B33               	goto	l85
  1592  0302                     u1600:
  1593  0302                     l1528:
  1594                           
  1595                           ;C:/Users/danie/OneDrive/Desktop/DIGITAL2/proyecto3/musica.X/musica.c: 173:             
      +                          for (int x = 0; x < 67; x++){
  1596  0302  01AE               	clrf	main@x_162
  1597  0303  01AF               	clrf	main@x_162+1
  1598  0304                     l1530:
  1599  0304  082F               	movf	main@x_162+1,w
  1600  0305  3A80               	xorlw	128
  1601  0306  00FF               	movwf	btemp+1
  1602  0307  3080               	movlw	128
  1603  0308  027F               	subwf	btemp+1,w
  1604  0309  1D03               	skipz
  1605  030A  2B0D               	goto	u1615
  1606  030B  3043               	movlw	67
  1607  030C  022E               	subwf	main@x_162,w
  1608  030D                     u1615:
  1609  030D  1C03               	skipc
  1610  030E  2B10               	goto	u1611
  1611  030F  2B11               	goto	u1610
  1612  0310                     u1611:
  1613  0310  2B12               	goto	l86
  1614  0311                     u1610:
  1615  0311  2B33               	goto	l85
  1616  0312                     l86:
  1617                           
  1618                           ;C:/Users/danie/OneDrive/Desktop/DIGITAL2/proyecto3/musica.X/musica.c: 174:             
      +                              PORTCbits.RC4 = 1;
  1619  0312  1283               	bcf	3,5	;RP0=0, select bank0
  1620  0313  1303               	bcf	3,6	;RP1=0, select bank0
  1621  0314  1607               	bsf	7,4	;volatile
  1622  0315                     l1534:
  1623                           
  1624                           ;C:/Users/danie/OneDrive/Desktop/DIGITAL2/proyecto3/musica.X/musica.c: 175:             
      +                              _delay((unsigned long)((1275)*(8000000/4000000.0)));
  1625  0315  3004               	movlw	4
  1626  0316  00FC               	movwf	??_main+1
  1627  0317  304E               	movlw	78
  1628  0318  00FB               	movwf	??_main
  1629  0319                     u2627:
  1630  0319  0BFB               	decfsz	??_main,f
  1631  031A  2B19               	goto	u2627
  1632  031B  0BFC               	decfsz	??_main+1,f
  1633  031C  2B19               	goto	u2627
  1634  031D  0000               	nop
  1635  031E                     l1536:
  1636                           
  1637                           ;C:/Users/danie/OneDrive/Desktop/DIGITAL2/proyecto3/musica.X/musica.c: 176:             
      +                              PORTCbits.RC4 = 0;
  1638  031E  1283               	bcf	3,5	;RP0=0, select bank0
  1639  031F  1303               	bcf	3,6	;RP1=0, select bank0
  1640  0320  1207               	bcf	7,4	;volatile
  1641                           
  1642                           ;C:/Users/danie/OneDrive/Desktop/DIGITAL2/proyecto3/musica.X/musica.c: 177:             
      +                              _delay((unsigned long)((1275)*(8000000/4000000.0)));
  1643  0321  3004               	movlw	4
  1644  0322  00FC               	movwf	??_main+1
  1645  0323  304E               	movlw	78
  1646  0324  00FB               	movwf	??_main
  1647  0325                     u2637:
  1648  0325  0BFB               	decfsz	??_main,f
  1649  0326  2B25               	goto	u2637
  1650  0327  0BFC               	decfsz	??_main+1,f
  1651  0328  2B25               	goto	u2637
  1652  0329  0000               	nop
  1653                           
  1654                           ;C:/Users/danie/OneDrive/Desktop/DIGITAL2/proyecto3/musica.X/musica.c: 178:             
      +                          }
  1655  032A  3001               	movlw	1
  1656  032B  1283               	bcf	3,5	;RP0=0, select bank0
  1657  032C  1303               	bcf	3,6	;RP1=0, select bank0
  1658  032D  07AE               	addwf	main@x_162,f
  1659  032E  1803               	skipnc
  1660  032F  0AAF               	incf	main@x_162+1,f
  1661  0330  3000               	movlw	0
  1662  0331  07AF               	addwf	main@x_162+1,f
  1663  0332  2B04               	goto	l1530
  1664  0333                     l85:	
  1665                           ;C:/Users/danie/OneDrive/Desktop/DIGITAL2/proyecto3/musica.X/musica.c: 179:         }
  1666                           
  1667                           
  1668                           ;C:/Users/danie/OneDrive/Desktop/DIGITAL2/proyecto3/musica.X/musica.c: 180:     if (RB7 
      +                          == 0 && RB6 == 1){
  1669  0333  1283               	bcf	3,5	;RP0=0, select bank0
  1670  0334  1303               	bcf	3,6	;RP1=0, select bank0
  1671  0335  1B86               	btfsc	6,7	;volatile
  1672  0336  2B38               	goto	u1621
  1673  0337  2B39               	goto	u1620
  1674  0338                     u1621:
  1675  0338  2B49               	goto	l1544
  1676  0339                     u1620:
  1677  0339                     l1540:
  1678  0339  1F06               	btfss	6,6	;volatile
  1679  033A  2B3C               	goto	u1631
  1680  033B  2B3D               	goto	u1630
  1681  033C                     u1631:
  1682  033C  2B49               	goto	l1544
  1683  033D                     u1630:
  1684  033D                     l1542:
  1685                           
  1686                           ;C:/Users/danie/OneDrive/Desktop/DIGITAL2/proyecto3/musica.X/musica.c: 181:             
      +                          _delay((unsigned long)((200)*(8000000/4000.0)));
  1687  033D  3003               	movlw	3
  1688  033E  00FD               	movwf	??_main+2
  1689  033F  3008               	movlw	8
  1690  0340  00FC               	movwf	??_main+1
  1691  0341  3077               	movlw	119
  1692  0342  00FB               	movwf	??_main
  1693  0343                     u2647:
  1694  0343  0BFB               	decfsz	??_main,f
  1695  0344  2B43               	goto	u2647
  1696  0345  0BFC               	decfsz	??_main+1,f
  1697  0346  2B43               	goto	u2647
  1698  0347  0BFD               	decfsz	??_main+2,f
  1699  0348  2B43               	goto	u2647
  1700  0349                     l1544:
  1701                           
  1702                           ;C:/Users/danie/OneDrive/Desktop/DIGITAL2/proyecto3/musica.X/musica.c: 184:     if (RB7 
      +                          == 0 && RB6 == 1){
  1703  0349  1283               	bcf	3,5	;RP0=0, select bank0
  1704  034A  1303               	bcf	3,6	;RP1=0, select bank0
  1705  034B  1B86               	btfsc	6,7	;volatile
  1706  034C  2B4E               	goto	u1641
  1707  034D  2B4F               	goto	u1640
  1708  034E                     u1641:
  1709  034E  2B82               	goto	l89
  1710  034F                     u1640:
  1711  034F                     l1546:
  1712  034F  1F06               	btfss	6,6	;volatile
  1713  0350  2B52               	goto	u1651
  1714  0351  2B53               	goto	u1650
  1715  0352                     u1651:
  1716  0352  2B82               	goto	l89
  1717  0353                     u1650:
  1718  0353                     l1548:
  1719                           
  1720                           ;C:/Users/danie/OneDrive/Desktop/DIGITAL2/proyecto3/musica.X/musica.c: 185:             
      +                          for (int x = 0; x < 67; x++){
  1721  0353  01B0               	clrf	main@x_163
  1722  0354  01B1               	clrf	main@x_163+1
  1723  0355                     l1550:
  1724  0355  0831               	movf	main@x_163+1,w
  1725  0356  3A80               	xorlw	128
  1726  0357  00FF               	movwf	btemp+1
  1727  0358  3080               	movlw	128
  1728  0359  027F               	subwf	btemp+1,w
  1729  035A  1D03               	skipz
  1730  035B  2B5E               	goto	u1665
  1731  035C  3043               	movlw	67
  1732  035D  0230               	subwf	main@x_163,w
  1733  035E                     u1665:
  1734  035E  1C03               	skipc
  1735  035F  2B61               	goto	u1661
  1736  0360  2B62               	goto	u1660
  1737  0361                     u1661:
  1738  0361  2B63               	goto	l90
  1739  0362                     u1660:
  1740  0362  2B82               	goto	l89
  1741  0363                     l90:
  1742                           
  1743                           ;C:/Users/danie/OneDrive/Desktop/DIGITAL2/proyecto3/musica.X/musica.c: 186:             
      +                              PORTCbits.RC4 = 1;
  1744  0363  1283               	bcf	3,5	;RP0=0, select bank0
  1745  0364  1303               	bcf	3,6	;RP1=0, select bank0
  1746  0365  1607               	bsf	7,4	;volatile
  1747  0366                     l1554:
  1748                           
  1749                           ;C:/Users/danie/OneDrive/Desktop/DIGITAL2/proyecto3/musica.X/musica.c: 187:             
      +                              _delay((unsigned long)((758)*(8000000/4000000.0)));
  1750  0366  30D8               	movlw	216
  1751  0367  00FB               	movwf	??_main
  1752  0368                     u2657:
  1753  0368  2B69               	nop2
  1754  0369  2B6A               	nop2
  1755  036A  0BFB               	decfsz	??_main,f
  1756  036B  2B68               	goto	u2657
  1757  036C  2B6D               	nop2
  1758  036D  0000               	nop
  1759  036E                     l1556:
  1760                           
  1761                           ;C:/Users/danie/OneDrive/Desktop/DIGITAL2/proyecto3/musica.X/musica.c: 188:             
      +                              PORTCbits.RC4 = 0;
  1762  036E  1283               	bcf	3,5	;RP0=0, select bank0
  1763  036F  1303               	bcf	3,6	;RP1=0, select bank0
  1764  0370  1207               	bcf	7,4	;volatile
  1765                           
  1766                           ;C:/Users/danie/OneDrive/Desktop/DIGITAL2/proyecto3/musica.X/musica.c: 189:             
      +                              _delay((unsigned long)((758)*(8000000/4000000.0)));
  1767  0371  30D8               	movlw	216
  1768  0372  00FB               	movwf	??_main
  1769  0373                     u2667:
  1770  0373  2B74               	nop2
  1771  0374  2B75               	nop2
  1772  0375  0BFB               	decfsz	??_main,f
  1773  0376  2B73               	goto	u2667
  1774  0377  2B78               	nop2
  1775  0378  0000               	nop
  1776                           
  1777                           ;C:/Users/danie/OneDrive/Desktop/DIGITAL2/proyecto3/musica.X/musica.c: 190:             
      +                          }
  1778  0379  3001               	movlw	1
  1779  037A  1283               	bcf	3,5	;RP0=0, select bank0
  1780  037B  1303               	bcf	3,6	;RP1=0, select bank0
  1781  037C  07B0               	addwf	main@x_163,f
  1782  037D  1803               	skipnc
  1783  037E  0AB1               	incf	main@x_163+1,f
  1784  037F  3000               	movlw	0
  1785  0380  07B1               	addwf	main@x_163+1,f
  1786  0381  2B55               	goto	l1550
  1787  0382                     l89:	
  1788                           ;C:/Users/danie/OneDrive/Desktop/DIGITAL2/proyecto3/musica.X/musica.c: 191:         }
  1789                           
  1790                           
  1791                           ;C:/Users/danie/OneDrive/Desktop/DIGITAL2/proyecto3/musica.X/musica.c: 192:     if (RB7 
      +                          == 0 && RB6 == 1){
  1792  0382  1283               	bcf	3,5	;RP0=0, select bank0
  1793  0383  1303               	bcf	3,6	;RP1=0, select bank0
  1794  0384  1B86               	btfsc	6,7	;volatile
  1795  0385  2B87               	goto	u1671
  1796  0386  2B88               	goto	u1670
  1797  0387                     u1671:
  1798  0387  2B98               	goto	l1564
  1799  0388                     u1670:
  1800  0388                     l1560:
  1801  0388  1F06               	btfss	6,6	;volatile
  1802  0389  2B8B               	goto	u1681
  1803  038A  2B8C               	goto	u1680
  1804  038B                     u1681:
  1805  038B  2B98               	goto	l1564
  1806  038C                     u1680:
  1807  038C                     l1562:
  1808                           
  1809                           ;C:/Users/danie/OneDrive/Desktop/DIGITAL2/proyecto3/musica.X/musica.c: 193:             
      +                          _delay((unsigned long)((200)*(8000000/4000.0)));
  1810  038C  3003               	movlw	3
  1811  038D  00FD               	movwf	??_main+2
  1812  038E  3008               	movlw	8
  1813  038F  00FC               	movwf	??_main+1
  1814  0390  3077               	movlw	119
  1815  0391  00FB               	movwf	??_main
  1816  0392                     u2677:
  1817  0392  0BFB               	decfsz	??_main,f
  1818  0393  2B92               	goto	u2677
  1819  0394  0BFC               	decfsz	??_main+1,f
  1820  0395  2B92               	goto	u2677
  1821  0396  0BFD               	decfsz	??_main+2,f
  1822  0397  2B92               	goto	u2677
  1823  0398                     l1564:
  1824                           
  1825                           ;C:/Users/danie/OneDrive/Desktop/DIGITAL2/proyecto3/musica.X/musica.c: 195:     if (RB7 
      +                          == 0 && RB6 == 1){
  1826  0398  1283               	bcf	3,5	;RP0=0, select bank0
  1827  0399  1303               	bcf	3,6	;RP1=0, select bank0
  1828  039A  1B86               	btfsc	6,7	;volatile
  1829  039B  2B9D               	goto	u1691
  1830  039C  2B9E               	goto	u1690
  1831  039D                     u1691:
  1832  039D  2BCB               	goto	l93
  1833  039E                     u1690:
  1834  039E                     l1566:
  1835  039E  1F06               	btfss	6,6	;volatile
  1836  039F  2BA1               	goto	u1701
  1837  03A0  2BA2               	goto	u1700
  1838  03A1                     u1701:
  1839  03A1  2BCB               	goto	l93
  1840  03A2                     u1700:
  1841  03A2                     l1568:
  1842                           
  1843                           ;C:/Users/danie/OneDrive/Desktop/DIGITAL2/proyecto3/musica.X/musica.c: 196:             
      +                          for (int x = 0; x < 67; x++){
  1844  03A2  01B2               	clrf	main@x_164
  1845  03A3  01B3               	clrf	main@x_164+1
  1846  03A4                     l1570:
  1847  03A4  0833               	movf	main@x_164+1,w
  1848  03A5  3A80               	xorlw	128
  1849  03A6  00FF               	movwf	btemp+1
  1850  03A7  3080               	movlw	128
  1851  03A8  027F               	subwf	btemp+1,w
  1852  03A9  1D03               	skipz
  1853  03AA  2BAD               	goto	u1715
  1854  03AB  3043               	movlw	67
  1855  03AC  0232               	subwf	main@x_164,w
  1856  03AD                     u1715:
  1857  03AD  1C03               	skipc
  1858  03AE  2BB0               	goto	u1711
  1859  03AF  2BB1               	goto	u1710
  1860  03B0                     u1711:
  1861  03B0  2BB2               	goto	l94
  1862  03B1                     u1710:
  1863  03B1  2BCB               	goto	l93
  1864  03B2                     l94:
  1865                           
  1866                           ;C:/Users/danie/OneDrive/Desktop/DIGITAL2/proyecto3/musica.X/musica.c: 197:             
      +                              PORTCbits.RC4 = 1;
  1867  03B2  1283               	bcf	3,5	;RP0=0, select bank0
  1868  03B3  1303               	bcf	3,6	;RP1=0, select bank0
  1869  03B4  1607               	bsf	7,4	;volatile
  1870  03B5                     l1574:
  1871                           
  1872                           ;C:/Users/danie/OneDrive/Desktop/DIGITAL2/proyecto3/musica.X/musica.c: 198:             
      +                              _delay((unsigned long)((638)*(8000000/4000000.0)));
  1873  03B5  30FF               	movlw	255
  1874  03B6  00FB               	movwf	??_main
  1875  03B7                     u2687:
  1876  03B7  2BB8               	nop2
  1877  03B8  0BFB               	decfsz	??_main,f
  1878  03B9  2BB7               	goto	u2687
  1879  03BA                     l1576:
  1880                           
  1881                           ;C:/Users/danie/OneDrive/Desktop/DIGITAL2/proyecto3/musica.X/musica.c: 199:             
      +                              PORTCbits.RC4 = 0;
  1882  03BA  1283               	bcf	3,5	;RP0=0, select bank0
  1883  03BB  1303               	bcf	3,6	;RP1=0, select bank0
  1884  03BC  1207               	bcf	7,4	;volatile
  1885                           
  1886                           ;C:/Users/danie/OneDrive/Desktop/DIGITAL2/proyecto3/musica.X/musica.c: 200:             
      +                              _delay((unsigned long)((638)*(8000000/4000000.0)));
  1887  03BD  30FF               	movlw	255
  1888  03BE  00FB               	movwf	??_main
  1889  03BF                     u2697:
  1890  03BF  2BC0               	nop2
  1891  03C0  0BFB               	decfsz	??_main,f
  1892  03C1  2BBF               	goto	u2697
  1893                           
  1894                           ;C:/Users/danie/OneDrive/Desktop/DIGITAL2/proyecto3/musica.X/musica.c: 201:             
      +                          }
  1895  03C2  3001               	movlw	1
  1896  03C3  1283               	bcf	3,5	;RP0=0, select bank0
  1897  03C4  1303               	bcf	3,6	;RP1=0, select bank0
  1898  03C5  07B2               	addwf	main@x_164,f
  1899  03C6  1803               	skipnc
  1900  03C7  0AB3               	incf	main@x_164+1,f
  1901  03C8  3000               	movlw	0
  1902  03C9  07B3               	addwf	main@x_164+1,f
  1903  03CA  2BA4               	goto	l1570
  1904  03CB                     l93:	
  1905                           ;C:/Users/danie/OneDrive/Desktop/DIGITAL2/proyecto3/musica.X/musica.c: 202:         }
  1906                           
  1907                           
  1908                           ;C:/Users/danie/OneDrive/Desktop/DIGITAL2/proyecto3/musica.X/musica.c: 203:     if (RB7 
      +                          == 0 && RB6 == 1){
  1909  03CB  1283               	bcf	3,5	;RP0=0, select bank0
  1910  03CC  1303               	bcf	3,6	;RP1=0, select bank0
  1911  03CD  1B86               	btfsc	6,7	;volatile
  1912  03CE  2BD0               	goto	u1721
  1913  03CF  2BD1               	goto	u1720
  1914  03D0                     u1721:
  1915  03D0  2BE1               	goto	l1584
  1916  03D1                     u1720:
  1917  03D1                     l1580:
  1918  03D1  1F06               	btfss	6,6	;volatile
  1919  03D2  2BD4               	goto	u1731
  1920  03D3  2BD5               	goto	u1730
  1921  03D4                     u1731:
  1922  03D4  2BE1               	goto	l1584
  1923  03D5                     u1730:
  1924  03D5                     l1582:
  1925                           
  1926                           ;C:/Users/danie/OneDrive/Desktop/DIGITAL2/proyecto3/musica.X/musica.c: 204:             
      +                          _delay((unsigned long)((200)*(8000000/4000.0)));
  1927  03D5  3003               	movlw	3
  1928  03D6  00FD               	movwf	??_main+2
  1929  03D7  3008               	movlw	8
  1930  03D8  00FC               	movwf	??_main+1
  1931  03D9  3077               	movlw	119
  1932  03DA  00FB               	movwf	??_main
  1933  03DB                     u2707:
  1934  03DB  0BFB               	decfsz	??_main,f
  1935  03DC  2BDB               	goto	u2707
  1936  03DD  0BFC               	decfsz	??_main+1,f
  1937  03DE  2BDB               	goto	u2707
  1938  03DF  0BFD               	decfsz	??_main+2,f
  1939  03E0  2BDB               	goto	u2707
  1940  03E1                     l1584:
  1941                           
  1942                           ;C:/Users/danie/OneDrive/Desktop/DIGITAL2/proyecto3/musica.X/musica.c: 206:     if (RB7 
      +                          == 0 && RB6 == 1){
  1943  03E1  1283               	bcf	3,5	;RP0=0, select bank0
  1944  03E2  1303               	bcf	3,6	;RP1=0, select bank0
  1945  03E3  1B86               	btfsc	6,7	;volatile
  1946  03E4  2BE6               	goto	u1741
  1947  03E5  2BE7               	goto	u1740
  1948  03E6                     u1741:
  1949  03E6  2C14               	goto	l97
  1950  03E7                     u1740:
  1951  03E7                     l1586:
  1952  03E7  1F06               	btfss	6,6	;volatile
  1953  03E8  2BEA               	goto	u1751
  1954  03E9  2BEB               	goto	u1750
  1955  03EA                     u1751:
  1956  03EA  2C14               	goto	l97
  1957  03EB                     u1750:
  1958  03EB                     l1588:
  1959                           
  1960                           ;C:/Users/danie/OneDrive/Desktop/DIGITAL2/proyecto3/musica.X/musica.c: 207:             
      +                          for (int x = 0; x < 100; x++){
  1961  03EB  01B4               	clrf	main@x_165
  1962  03EC  01B5               	clrf	main@x_165+1
  1963  03ED                     l1590:
  1964  03ED  0835               	movf	main@x_165+1,w
  1965  03EE  3A80               	xorlw	128
  1966  03EF  00FF               	movwf	btemp+1
  1967  03F0  3080               	movlw	128
  1968  03F1  027F               	subwf	btemp+1,w
  1969  03F2  1D03               	skipz
  1970  03F3  2BF6               	goto	u1765
  1971  03F4  3064               	movlw	100
  1972  03F5  0234               	subwf	main@x_165,w
  1973  03F6                     u1765:
  1974  03F6  1C03               	skipc
  1975  03F7  2BF9               	goto	u1761
  1976  03F8  2BFA               	goto	u1760
  1977  03F9                     u1761:
  1978  03F9  2BFB               	goto	l98
  1979  03FA                     u1760:
  1980  03FA  2C14               	goto	l97
  1981  03FB                     l98:
  1982                           
  1983                           ;C:/Users/danie/OneDrive/Desktop/DIGITAL2/proyecto3/musica.X/musica.c: 208:             
      +                              PORTCbits.RC4 = 1;
  1984  03FB  1283               	bcf	3,5	;RP0=0, select bank0
  1985  03FC  1303               	bcf	3,6	;RP1=0, select bank0
  1986  03FD  1607               	bsf	7,4	;volatile
  1987  03FE                     l1594:
  1988                           
  1989                           ;C:/Users/danie/OneDrive/Desktop/DIGITAL2/proyecto3/musica.X/musica.c: 209:             
      +                              _delay((unsigned long)((568)*(8000000/4000000.0)));
  1990  03FE  30E3               	movlw	227
  1991  03FF  00FB               	movwf	??_main
  1992  0400                     u2717:
  1993  0400  2C01               	nop2
  1994  0401  0BFB               	decfsz	??_main,f
  1995  0402  2C00               	goto	u2717
  1996  0403                     l1596:
  1997                           
  1998                           ;C:/Users/danie/OneDrive/Desktop/DIGITAL2/proyecto3/musica.X/musica.c: 210:             
      +                              PORTCbits.RC4 = 0;
  1999  0403  1283               	bcf	3,5	;RP0=0, select bank0
  2000  0404  1303               	bcf	3,6	;RP1=0, select bank0
  2001  0405  1207               	bcf	7,4	;volatile
  2002                           
  2003                           ;C:/Users/danie/OneDrive/Desktop/DIGITAL2/proyecto3/musica.X/musica.c: 211:             
      +                              _delay((unsigned long)((568)*(8000000/4000000.0)));
  2004  0406  30E3               	movlw	227
  2005  0407  00FB               	movwf	??_main
  2006  0408                     u2727:
  2007  0408  2C09               	nop2
  2008  0409  0BFB               	decfsz	??_main,f
  2009  040A  2C08               	goto	u2727
  2010                           
  2011                           ;C:/Users/danie/OneDrive/Desktop/DIGITAL2/proyecto3/musica.X/musica.c: 212:             
      +                          }
  2012  040B  3001               	movlw	1
  2013  040C  1283               	bcf	3,5	;RP0=0, select bank0
  2014  040D  1303               	bcf	3,6	;RP1=0, select bank0
  2015  040E  07B4               	addwf	main@x_165,f
  2016  040F  1803               	skipnc
  2017  0410  0AB5               	incf	main@x_165+1,f
  2018  0411  3000               	movlw	0
  2019  0412  07B5               	addwf	main@x_165+1,f
  2020  0413  2BED               	goto	l1590
  2021  0414                     l97:	
  2022                           ;C:/Users/danie/OneDrive/Desktop/DIGITAL2/proyecto3/musica.X/musica.c: 213:         }
  2023                           
  2024                           
  2025                           ;C:/Users/danie/OneDrive/Desktop/DIGITAL2/proyecto3/musica.X/musica.c: 214:     if (RB7 
      +                          == 0 && RB6 == 1){
  2026  0414  1283               	bcf	3,5	;RP0=0, select bank0
  2027  0415  1303               	bcf	3,6	;RP1=0, select bank0
  2028  0416  1B86               	btfsc	6,7	;volatile
  2029  0417  2C19               	goto	u1771
  2030  0418  2C1A               	goto	u1770
  2031  0419                     u1771:
  2032  0419  2C2A               	goto	l1604
  2033  041A                     u1770:
  2034  041A                     l1600:
  2035  041A  1F06               	btfss	6,6	;volatile
  2036  041B  2C1D               	goto	u1781
  2037  041C  2C1E               	goto	u1780
  2038  041D                     u1781:
  2039  041D  2C2A               	goto	l1604
  2040  041E                     u1780:
  2041  041E                     l1602:
  2042                           
  2043                           ;C:/Users/danie/OneDrive/Desktop/DIGITAL2/proyecto3/musica.X/musica.c: 215:             
      +                          _delay((unsigned long)((200)*(8000000/4000.0)));
  2044  041E  3003               	movlw	3
  2045  041F  00FD               	movwf	??_main+2
  2046  0420  3008               	movlw	8
  2047  0421  00FC               	movwf	??_main+1
  2048  0422  3077               	movlw	119
  2049  0423  00FB               	movwf	??_main
  2050  0424                     u2737:
  2051  0424  0BFB               	decfsz	??_main,f
  2052  0425  2C24               	goto	u2737
  2053  0426  0BFC               	decfsz	??_main+1,f
  2054  0427  2C24               	goto	u2737
  2055  0428  0BFD               	decfsz	??_main+2,f
  2056  0429  2C24               	goto	u2737
  2057  042A                     l1604:
  2058                           
  2059                           ;C:/Users/danie/OneDrive/Desktop/DIGITAL2/proyecto3/musica.X/musica.c: 217:     if (RB7 
      +                          == 0 && RB6 == 1){
  2060  042A  1283               	bcf	3,5	;RP0=0, select bank0
  2061  042B  1303               	bcf	3,6	;RP1=0, select bank0
  2062  042C  1B86               	btfsc	6,7	;volatile
  2063  042D  2C2F               	goto	u1791
  2064  042E  2C30               	goto	u1790
  2065  042F                     u1791:
  2066  042F  2C63               	goto	l101
  2067  0430                     u1790:
  2068  0430                     l1606:
  2069  0430  1F06               	btfss	6,6	;volatile
  2070  0431  2C33               	goto	u1801
  2071  0432  2C34               	goto	u1800
  2072  0433                     u1801:
  2073  0433  2C63               	goto	l101
  2074  0434                     u1800:
  2075  0434                     l1608:
  2076                           
  2077                           ;C:/Users/danie/OneDrive/Desktop/DIGITAL2/proyecto3/musica.X/musica.c: 218:             
      +                          for (int x = 0; x < 50; x++){
  2078  0434  01B6               	clrf	main@x_166
  2079  0435  01B7               	clrf	main@x_166+1
  2080  0436                     l1610:
  2081  0436  0837               	movf	main@x_166+1,w
  2082  0437  3A80               	xorlw	128
  2083  0438  00FF               	movwf	btemp+1
  2084  0439  3080               	movlw	128
  2085  043A  027F               	subwf	btemp+1,w
  2086  043B  1D03               	skipz
  2087  043C  2C3F               	goto	u1815
  2088  043D  3032               	movlw	50
  2089  043E  0236               	subwf	main@x_166,w
  2090  043F                     u1815:
  2091  043F  1C03               	skipc
  2092  0440  2C42               	goto	u1811
  2093  0441  2C43               	goto	u1810
  2094  0442                     u1811:
  2095  0442  2C44               	goto	l102
  2096  0443                     u1810:
  2097  0443  2C63               	goto	l101
  2098  0444                     l102:
  2099                           
  2100                           ;C:/Users/danie/OneDrive/Desktop/DIGITAL2/proyecto3/musica.X/musica.c: 219:             
      +                              PORTCbits.RC4 = 1;
  2101  0444  1283               	bcf	3,5	;RP0=0, select bank0
  2102  0445  1303               	bcf	3,6	;RP1=0, select bank0
  2103  0446  1607               	bsf	7,4	;volatile
  2104  0447                     l1614:
  2105                           
  2106                           ;C:/Users/danie/OneDrive/Desktop/DIGITAL2/proyecto3/musica.X/musica.c: 220:             
      +                              _delay((unsigned long)((716)*(8000000/4000000.0)));
  2107  0447  30CC               	movlw	204
  2108  0448  00FB               	movwf	??_main
  2109  0449                     u2747:
  2110  0449  2C4A               	nop2
  2111  044A  2C4B               	nop2
  2112  044B  0BFB               	decfsz	??_main,f
  2113  044C  2C49               	goto	u2747
  2114  044D  2C4E               	nop2
  2115  044E  0000               	nop
  2116  044F                     l1616:
  2117                           
  2118                           ;C:/Users/danie/OneDrive/Desktop/DIGITAL2/proyecto3/musica.X/musica.c: 221:             
      +                              PORTCbits.RC4 = 0;
  2119  044F  1283               	bcf	3,5	;RP0=0, select bank0
  2120  0450  1303               	bcf	3,6	;RP1=0, select bank0
  2121  0451  1207               	bcf	7,4	;volatile
  2122                           
  2123                           ;C:/Users/danie/OneDrive/Desktop/DIGITAL2/proyecto3/musica.X/musica.c: 222:             
      +                              _delay((unsigned long)((716)*(8000000/4000000.0)));
  2124  0452  30CC               	movlw	204
  2125  0453  00FB               	movwf	??_main
  2126  0454                     u2757:
  2127  0454  2C55               	nop2
  2128  0455  2C56               	nop2
  2129  0456  0BFB               	decfsz	??_main,f
  2130  0457  2C54               	goto	u2757
  2131  0458  2C59               	nop2
  2132  0459  0000               	nop
  2133                           
  2134                           ;C:/Users/danie/OneDrive/Desktop/DIGITAL2/proyecto3/musica.X/musica.c: 223:             
      +                          }
  2135  045A  3001               	movlw	1
  2136  045B  1283               	bcf	3,5	;RP0=0, select bank0
  2137  045C  1303               	bcf	3,6	;RP1=0, select bank0
  2138  045D  07B6               	addwf	main@x_166,f
  2139  045E  1803               	skipnc
  2140  045F  0AB7               	incf	main@x_166+1,f
  2141  0460  3000               	movlw	0
  2142  0461  07B7               	addwf	main@x_166+1,f
  2143  0462  2C36               	goto	l1610
  2144  0463                     l101:	
  2145                           ;C:/Users/danie/OneDrive/Desktop/DIGITAL2/proyecto3/musica.X/musica.c: 224:         }
  2146                           
  2147                           
  2148                           ;C:/Users/danie/OneDrive/Desktop/DIGITAL2/proyecto3/musica.X/musica.c: 225:     if (RB7 
      +                          == 0 && RB6 == 1){
  2149  0463  1283               	bcf	3,5	;RP0=0, select bank0
  2150  0464  1303               	bcf	3,6	;RP1=0, select bank0
  2151  0465  1B86               	btfsc	6,7	;volatile
  2152  0466  2C68               	goto	u1821
  2153  0467  2C69               	goto	u1820
  2154  0468                     u1821:
  2155  0468  2C79               	goto	l1624
  2156  0469                     u1820:
  2157  0469                     l1620:
  2158  0469  1F06               	btfss	6,6	;volatile
  2159  046A  2C6C               	goto	u1831
  2160  046B  2C6D               	goto	u1830
  2161  046C                     u1831:
  2162  046C  2C79               	goto	l1624
  2163  046D                     u1830:
  2164  046D                     l1622:
  2165                           
  2166                           ;C:/Users/danie/OneDrive/Desktop/DIGITAL2/proyecto3/musica.X/musica.c: 226:             
      +                          _delay((unsigned long)((200)*(8000000/4000.0)));
  2167  046D  3003               	movlw	3
  2168  046E  00FD               	movwf	??_main+2
  2169  046F  3008               	movlw	8
  2170  0470  00FC               	movwf	??_main+1
  2171  0471  3077               	movlw	119
  2172  0472  00FB               	movwf	??_main
  2173  0473                     u2767:
  2174  0473  0BFB               	decfsz	??_main,f
  2175  0474  2C73               	goto	u2767
  2176  0475  0BFC               	decfsz	??_main+1,f
  2177  0476  2C73               	goto	u2767
  2178  0477  0BFD               	decfsz	??_main+2,f
  2179  0478  2C73               	goto	u2767
  2180  0479                     l1624:
  2181                           
  2182                           ;C:/Users/danie/OneDrive/Desktop/DIGITAL2/proyecto3/musica.X/musica.c: 228:     if (RB7 
      +                          == 0 && RB6 == 1){
  2183  0479  1283               	bcf	3,5	;RP0=0, select bank0
  2184  047A  1303               	bcf	3,6	;RP1=0, select bank0
  2185  047B  1B86               	btfsc	6,7	;volatile
  2186  047C  2C7E               	goto	u1841
  2187  047D  2C7F               	goto	u1840
  2188  047E                     u1841:
  2189  047E  2CAC               	goto	l105
  2190  047F                     u1840:
  2191  047F                     l1626:
  2192  047F  1F06               	btfss	6,6	;volatile
  2193  0480  2C82               	goto	u1851
  2194  0481  2C83               	goto	u1850
  2195  0482                     u1851:
  2196  0482  2CAC               	goto	l105
  2197  0483                     u1850:
  2198  0483                     l1628:
  2199                           
  2200                           ;C:/Users/danie/OneDrive/Desktop/DIGITAL2/proyecto3/musica.X/musica.c: 229:             
      +                          for (int x = 0; x < 50; x++){
  2201  0483  01B8               	clrf	main@x_167
  2202  0484  01B9               	clrf	main@x_167+1
  2203  0485                     l1630:
  2204  0485  0839               	movf	main@x_167+1,w
  2205  0486  3A80               	xorlw	128
  2206  0487  00FF               	movwf	btemp+1
  2207  0488  3080               	movlw	128
  2208  0489  027F               	subwf	btemp+1,w
  2209  048A  1D03               	skipz
  2210  048B  2C8E               	goto	u1865
  2211  048C  3032               	movlw	50
  2212  048D  0238               	subwf	main@x_167,w
  2213  048E                     u1865:
  2214  048E  1C03               	skipc
  2215  048F  2C91               	goto	u1861
  2216  0490  2C92               	goto	u1860
  2217  0491                     u1861:
  2218  0491  2C93               	goto	l106
  2219  0492                     u1860:
  2220  0492  2CAC               	goto	l105
  2221  0493                     l106:
  2222                           
  2223                           ;C:/Users/danie/OneDrive/Desktop/DIGITAL2/proyecto3/musica.X/musica.c: 230:             
      +                              PORTCbits.RC4 = 1;
  2224  0493  1283               	bcf	3,5	;RP0=0, select bank0
  2225  0494  1303               	bcf	3,6	;RP1=0, select bank0
  2226  0495  1607               	bsf	7,4	;volatile
  2227  0496                     l1634:
  2228                           
  2229                           ;C:/Users/danie/OneDrive/Desktop/DIGITAL2/proyecto3/musica.X/musica.c: 231:             
      +                              _delay((unsigned long)((638)*(8000000/4000000.0)));
  2230  0496  30FF               	movlw	255
  2231  0497  00FB               	movwf	??_main
  2232  0498                     u2777:
  2233  0498  2C99               	nop2
  2234  0499  0BFB               	decfsz	??_main,f
  2235  049A  2C98               	goto	u2777
  2236  049B                     l1636:
  2237                           
  2238                           ;C:/Users/danie/OneDrive/Desktop/DIGITAL2/proyecto3/musica.X/musica.c: 232:             
      +                              PORTCbits.RC4 = 0;
  2239  049B  1283               	bcf	3,5	;RP0=0, select bank0
  2240  049C  1303               	bcf	3,6	;RP1=0, select bank0
  2241  049D  1207               	bcf	7,4	;volatile
  2242                           
  2243                           ;C:/Users/danie/OneDrive/Desktop/DIGITAL2/proyecto3/musica.X/musica.c: 233:             
      +                              _delay((unsigned long)((638)*(8000000/4000000.0)));
  2244  049E  30FF               	movlw	255
  2245  049F  00FB               	movwf	??_main
  2246  04A0                     u2787:
  2247  04A0  2CA1               	nop2
  2248  04A1  0BFB               	decfsz	??_main,f
  2249  04A2  2CA0               	goto	u2787
  2250                           
  2251                           ;C:/Users/danie/OneDrive/Desktop/DIGITAL2/proyecto3/musica.X/musica.c: 234:             
      +                          }
  2252  04A3  3001               	movlw	1
  2253  04A4  1283               	bcf	3,5	;RP0=0, select bank0
  2254  04A5  1303               	bcf	3,6	;RP1=0, select bank0
  2255  04A6  07B8               	addwf	main@x_167,f
  2256  04A7  1803               	skipnc
  2257  04A8  0AB9               	incf	main@x_167+1,f
  2258  04A9  3000               	movlw	0
  2259  04AA  07B9               	addwf	main@x_167+1,f
  2260  04AB  2C85               	goto	l1630
  2261  04AC                     l105:	
  2262                           ;C:/Users/danie/OneDrive/Desktop/DIGITAL2/proyecto3/musica.X/musica.c: 235:         }
  2263                           
  2264                           
  2265                           ;C:/Users/danie/OneDrive/Desktop/DIGITAL2/proyecto3/musica.X/musica.c: 236:     if (RB7 
      +                          == 0 && RB6 == 1){
  2266  04AC  1283               	bcf	3,5	;RP0=0, select bank0
  2267  04AD  1303               	bcf	3,6	;RP1=0, select bank0
  2268  04AE  1B86               	btfsc	6,7	;volatile
  2269  04AF  2CB1               	goto	u1871
  2270  04B0  2CB2               	goto	u1870
  2271  04B1                     u1871:
  2272  04B1  2CC2               	goto	l1644
  2273  04B2                     u1870:
  2274  04B2                     l1640:
  2275  04B2  1F06               	btfss	6,6	;volatile
  2276  04B3  2CB5               	goto	u1881
  2277  04B4  2CB6               	goto	u1880
  2278  04B5                     u1881:
  2279  04B5  2CC2               	goto	l1644
  2280  04B6                     u1880:
  2281  04B6                     l1642:
  2282                           
  2283                           ;C:/Users/danie/OneDrive/Desktop/DIGITAL2/proyecto3/musica.X/musica.c: 237:             
      +                          _delay((unsigned long)((200)*(8000000/4000.0)));
  2284  04B6  3003               	movlw	3
  2285  04B7  00FD               	movwf	??_main+2
  2286  04B8  3008               	movlw	8
  2287  04B9  00FC               	movwf	??_main+1
  2288  04BA  3077               	movlw	119
  2289  04BB  00FB               	movwf	??_main
  2290  04BC                     u2797:
  2291  04BC  0BFB               	decfsz	??_main,f
  2292  04BD  2CBC               	goto	u2797
  2293  04BE  0BFC               	decfsz	??_main+1,f
  2294  04BF  2CBC               	goto	u2797
  2295  04C0  0BFD               	decfsz	??_main+2,f
  2296  04C1  2CBC               	goto	u2797
  2297  04C2                     l1644:
  2298                           
  2299                           ;C:/Users/danie/OneDrive/Desktop/DIGITAL2/proyecto3/musica.X/musica.c: 240:     if (RB7 
      +                          == 0 && RB6 == 1){
  2300  04C2  1283               	bcf	3,5	;RP0=0, select bank0
  2301  04C3  1303               	bcf	3,6	;RP1=0, select bank0
  2302  04C4  1B86               	btfsc	6,7	;volatile
  2303  04C5  2CC7               	goto	u1891
  2304  04C6  2CC8               	goto	u1890
  2305  04C7                     u1891:
  2306  04C7  2CFB               	goto	l109
  2307  04C8                     u1890:
  2308  04C8                     l1646:
  2309  04C8  1F06               	btfss	6,6	;volatile
  2310  04C9  2CCB               	goto	u1901
  2311  04CA  2CCC               	goto	u1900
  2312  04CB                     u1901:
  2313  04CB  2CFB               	goto	l109
  2314  04CC                     u1900:
  2315  04CC                     l1648:
  2316                           
  2317                           ;C:/Users/danie/OneDrive/Desktop/DIGITAL2/proyecto3/musica.X/musica.c: 241:             
      +                          for (int x = 0; x < 100; x++){
  2318  04CC  01BA               	clrf	main@x_168
  2319  04CD  01BB               	clrf	main@x_168+1
  2320  04CE                     l1650:
  2321  04CE  083B               	movf	main@x_168+1,w
  2322  04CF  3A80               	xorlw	128
  2323  04D0  00FF               	movwf	btemp+1
  2324  04D1  3080               	movlw	128
  2325  04D2  027F               	subwf	btemp+1,w
  2326  04D3  1D03               	skipz
  2327  04D4  2CD7               	goto	u1915
  2328  04D5  3064               	movlw	100
  2329  04D6  023A               	subwf	main@x_168,w
  2330  04D7                     u1915:
  2331  04D7  1C03               	skipc
  2332  04D8  2CDA               	goto	u1911
  2333  04D9  2CDB               	goto	u1910
  2334  04DA                     u1911:
  2335  04DA  2CDC               	goto	l110
  2336  04DB                     u1910:
  2337  04DB  2CFB               	goto	l109
  2338  04DC                     l110:
  2339                           
  2340                           ;C:/Users/danie/OneDrive/Desktop/DIGITAL2/proyecto3/musica.X/musica.c: 242:             
      +                              PORTCbits.RC4 = 1;
  2341  04DC  1283               	bcf	3,5	;RP0=0, select bank0
  2342  04DD  1303               	bcf	3,6	;RP1=0, select bank0
  2343  04DE  1607               	bsf	7,4	;volatile
  2344  04DF                     l1654:
  2345                           
  2346                           ;C:/Users/danie/OneDrive/Desktop/DIGITAL2/proyecto3/musica.X/musica.c: 243:             
      +                              _delay((unsigned long)((758)*(8000000/4000000.0)));
  2347  04DF  30D8               	movlw	216
  2348  04E0  00FB               	movwf	??_main
  2349  04E1                     u2807:
  2350  04E1  2CE2               	nop2
  2351  04E2  2CE3               	nop2
  2352  04E3  0BFB               	decfsz	??_main,f
  2353  04E4  2CE1               	goto	u2807
  2354  04E5  2CE6               	nop2
  2355  04E6  0000               	nop
  2356  04E7                     l1656:
  2357                           
  2358                           ;C:/Users/danie/OneDrive/Desktop/DIGITAL2/proyecto3/musica.X/musica.c: 244:             
      +                              PORTCbits.RC4 = 0;
  2359  04E7  1283               	bcf	3,5	;RP0=0, select bank0
  2360  04E8  1303               	bcf	3,6	;RP1=0, select bank0
  2361  04E9  1207               	bcf	7,4	;volatile
  2362                           
  2363                           ;C:/Users/danie/OneDrive/Desktop/DIGITAL2/proyecto3/musica.X/musica.c: 245:             
      +                              _delay((unsigned long)((758)*(8000000/4000000.0)));
  2364  04EA  30D8               	movlw	216
  2365  04EB  00FB               	movwf	??_main
  2366  04EC                     u2817:
  2367  04EC  2CED               	nop2
  2368  04ED  2CEE               	nop2
  2369  04EE  0BFB               	decfsz	??_main,f
  2370  04EF  2CEC               	goto	u2817
  2371  04F0  2CF1               	nop2
  2372  04F1  0000               	nop
  2373                           
  2374                           ;C:/Users/danie/OneDrive/Desktop/DIGITAL2/proyecto3/musica.X/musica.c: 246:             
      +                          }
  2375  04F2  3001               	movlw	1
  2376  04F3  1283               	bcf	3,5	;RP0=0, select bank0
  2377  04F4  1303               	bcf	3,6	;RP1=0, select bank0
  2378  04F5  07BA               	addwf	main@x_168,f
  2379  04F6  1803               	skipnc
  2380  04F7  0ABB               	incf	main@x_168+1,f
  2381  04F8  3000               	movlw	0
  2382  04F9  07BB               	addwf	main@x_168+1,f
  2383  04FA  2CCE               	goto	l1650
  2384  04FB                     l109:	
  2385                           ;C:/Users/danie/OneDrive/Desktop/DIGITAL2/proyecto3/musica.X/musica.c: 247:         }
  2386                           
  2387                           
  2388                           ;C:/Users/danie/OneDrive/Desktop/DIGITAL2/proyecto3/musica.X/musica.c: 248:     if (RB7 
      +                          == 0 && RB6 == 1){
  2389  04FB  1283               	bcf	3,5	;RP0=0, select bank0
  2390  04FC  1303               	bcf	3,6	;RP1=0, select bank0
  2391  04FD  1B86               	btfsc	6,7	;volatile
  2392  04FE  2D00               	goto	u1921
  2393  04FF  2D01               	goto	u1920
  2394  0500                     u1921:
  2395  0500  2D11               	goto	l1664
  2396  0501                     u1920:
  2397  0501                     l1660:
  2398  0501  1F06               	btfss	6,6	;volatile
  2399  0502  2D04               	goto	u1931
  2400  0503  2D05               	goto	u1930
  2401  0504                     u1931:
  2402  0504  2D11               	goto	l1664
  2403  0505                     u1930:
  2404  0505                     l1662:
  2405                           
  2406                           ;C:/Users/danie/OneDrive/Desktop/DIGITAL2/proyecto3/musica.X/musica.c: 249:             
      +                          _delay((unsigned long)((200)*(8000000/4000.0)));
  2407  0505  3003               	movlw	3
  2408  0506  00FD               	movwf	??_main+2
  2409  0507  3008               	movlw	8
  2410  0508  00FC               	movwf	??_main+1
  2411  0509  3077               	movlw	119
  2412  050A  00FB               	movwf	??_main
  2413  050B                     u2827:
  2414  050B  0BFB               	decfsz	??_main,f
  2415  050C  2D0B               	goto	u2827
  2416  050D  0BFC               	decfsz	??_main+1,f
  2417  050E  2D0B               	goto	u2827
  2418  050F  0BFD               	decfsz	??_main+2,f
  2419  0510  2D0B               	goto	u2827
  2420  0511                     l1664:
  2421                           
  2422                           ;C:/Users/danie/OneDrive/Desktop/DIGITAL2/proyecto3/musica.X/musica.c: 251:     if (RB7 
      +                          == 0 && RB6 == 1){
  2423  0511  1283               	bcf	3,5	;RP0=0, select bank0
  2424  0512  1303               	bcf	3,6	;RP1=0, select bank0
  2425  0513  1B86               	btfsc	6,7	;volatile
  2426  0514  2D16               	goto	u1941
  2427  0515  2D17               	goto	u1940
  2428  0516                     u1941:
  2429  0516  2D4C               	goto	l113
  2430  0517                     u1940:
  2431  0517                     l1666:
  2432  0517  1F06               	btfss	6,6	;volatile
  2433  0518  2D1A               	goto	u1951
  2434  0519  2D1B               	goto	u1950
  2435  051A                     u1951:
  2436  051A  2D4C               	goto	l113
  2437  051B                     u1950:
  2438  051B                     l1668:
  2439                           
  2440                           ;C:/Users/danie/OneDrive/Desktop/DIGITAL2/proyecto3/musica.X/musica.c: 252:             
      +                          for (int x = 0; x < 50; x++){
  2441  051B  01BC               	clrf	main@x_169
  2442  051C  01BD               	clrf	main@x_169+1
  2443  051D                     l1670:
  2444  051D  083D               	movf	main@x_169+1,w
  2445  051E  3A80               	xorlw	128
  2446  051F  00FF               	movwf	btemp+1
  2447  0520  3080               	movlw	128
  2448  0521  027F               	subwf	btemp+1,w
  2449  0522  1D03               	skipz
  2450  0523  2D26               	goto	u1965
  2451  0524  3032               	movlw	50
  2452  0525  023C               	subwf	main@x_169,w
  2453  0526                     u1965:
  2454  0526  1C03               	skipc
  2455  0527  2D29               	goto	u1961
  2456  0528  2D2A               	goto	u1960
  2457  0529                     u1961:
  2458  0529  2D2B               	goto	l114
  2459  052A                     u1960:
  2460  052A  2D4C               	goto	l113
  2461  052B                     l114:
  2462                           
  2463                           ;C:/Users/danie/OneDrive/Desktop/DIGITAL2/proyecto3/musica.X/musica.c: 253:             
      +                              PORTCbits.RC4 = 1;
  2464  052B  1283               	bcf	3,5	;RP0=0, select bank0
  2465  052C  1303               	bcf	3,6	;RP1=0, select bank0
  2466  052D  1607               	bsf	7,4	;volatile
  2467  052E                     l1674:
  2468                           
  2469                           ;C:/Users/danie/OneDrive/Desktop/DIGITAL2/proyecto3/musica.X/musica.c: 254:             
      +                              _delay((unsigned long)((956)*(8000000/4000000.0)));
  2470  052E  3003               	movlw	3
  2471  052F  00FC               	movwf	??_main+1
  2472  0530  307A               	movlw	122
  2473  0531  00FB               	movwf	??_main
  2474  0532                     u2837:
  2475  0532  0BFB               	decfsz	??_main,f
  2476  0533  2D32               	goto	u2837
  2477  0534  0BFC               	decfsz	??_main+1,f
  2478  0535  2D32               	goto	u2837
  2479  0536  0000               	nop
  2480  0537                     l1676:
  2481                           
  2482                           ;C:/Users/danie/OneDrive/Desktop/DIGITAL2/proyecto3/musica.X/musica.c: 255:             
      +                              PORTCbits.RC4 = 0;
  2483  0537  1283               	bcf	3,5	;RP0=0, select bank0
  2484  0538  1303               	bcf	3,6	;RP1=0, select bank0
  2485  0539  1207               	bcf	7,4	;volatile
  2486                           
  2487                           ;C:/Users/danie/OneDrive/Desktop/DIGITAL2/proyecto3/musica.X/musica.c: 256:             
      +                              _delay((unsigned long)((956)*(8000000/4000000.0)));
  2488  053A  3003               	movlw	3
  2489  053B  00FC               	movwf	??_main+1
  2490  053C  307A               	movlw	122
  2491  053D  00FB               	movwf	??_main
  2492  053E                     u2847:
  2493  053E  0BFB               	decfsz	??_main,f
  2494  053F  2D3E               	goto	u2847
  2495  0540  0BFC               	decfsz	??_main+1,f
  2496  0541  2D3E               	goto	u2847
  2497  0542  0000               	nop
  2498                           
  2499                           ;C:/Users/danie/OneDrive/Desktop/DIGITAL2/proyecto3/musica.X/musica.c: 257:             
      +                          }
  2500  0543  3001               	movlw	1
  2501  0544  1283               	bcf	3,5	;RP0=0, select bank0
  2502  0545  1303               	bcf	3,6	;RP1=0, select bank0
  2503  0546  07BC               	addwf	main@x_169,f
  2504  0547  1803               	skipnc
  2505  0548  0ABD               	incf	main@x_169+1,f
  2506  0549  3000               	movlw	0
  2507  054A  07BD               	addwf	main@x_169+1,f
  2508  054B  2D1D               	goto	l1670
  2509  054C                     l113:	
  2510                           ;C:/Users/danie/OneDrive/Desktop/DIGITAL2/proyecto3/musica.X/musica.c: 258:         }
  2511                           
  2512                           
  2513                           ;C:/Users/danie/OneDrive/Desktop/DIGITAL2/proyecto3/musica.X/musica.c: 259:     if (RB7 
      +                          == 0 && RB6 == 1){
  2514  054C  1283               	bcf	3,5	;RP0=0, select bank0
  2515  054D  1303               	bcf	3,6	;RP1=0, select bank0
  2516  054E  1B86               	btfsc	6,7	;volatile
  2517  054F  2D51               	goto	u1971
  2518  0550  2D52               	goto	u1970
  2519  0551                     u1971:
  2520  0551  2D62               	goto	l1684
  2521  0552                     u1970:
  2522  0552                     l1680:
  2523  0552  1F06               	btfss	6,6	;volatile
  2524  0553  2D55               	goto	u1981
  2525  0554  2D56               	goto	u1980
  2526  0555                     u1981:
  2527  0555  2D62               	goto	l1684
  2528  0556                     u1980:
  2529  0556                     l1682:
  2530                           
  2531                           ;C:/Users/danie/OneDrive/Desktop/DIGITAL2/proyecto3/musica.X/musica.c: 260:             
      +                          _delay((unsigned long)((200)*(8000000/4000.0)));
  2532  0556  3003               	movlw	3
  2533  0557  00FD               	movwf	??_main+2
  2534  0558  3008               	movlw	8
  2535  0559  00FC               	movwf	??_main+1
  2536  055A  3077               	movlw	119
  2537  055B  00FB               	movwf	??_main
  2538  055C                     u2857:
  2539  055C  0BFB               	decfsz	??_main,f
  2540  055D  2D5C               	goto	u2857
  2541  055E  0BFC               	decfsz	??_main+1,f
  2542  055F  2D5C               	goto	u2857
  2543  0560  0BFD               	decfsz	??_main+2,f
  2544  0561  2D5C               	goto	u2857
  2545  0562                     l1684:
  2546                           
  2547                           ;C:/Users/danie/OneDrive/Desktop/DIGITAL2/proyecto3/musica.X/musica.c: 262:     if (RB7 
      +                          == 0 && RB6 == 1){
  2548  0562  1283               	bcf	3,5	;RP0=0, select bank0
  2549  0563  1303               	bcf	3,6	;RP1=0, select bank0
  2550  0564  1B86               	btfsc	6,7	;volatile
  2551  0565  2D67               	goto	u1991
  2552  0566  2D68               	goto	u1990
  2553  0567                     u1991:
  2554  0567  2D97               	goto	l117
  2555  0568                     u1990:
  2556  0568                     l1686:
  2557  0568  1F06               	btfss	6,6	;volatile
  2558  0569  2D6B               	goto	u2001
  2559  056A  2D6C               	goto	u2000
  2560  056B                     u2001:
  2561  056B  2D97               	goto	l117
  2562  056C                     u2000:
  2563  056C                     l1688:
  2564                           
  2565                           ;C:/Users/danie/OneDrive/Desktop/DIGITAL2/proyecto3/musica.X/musica.c: 263:             
      +                          for (int x = 0; x < 50; x++){
  2566  056C  01BE               	clrf	main@x_170
  2567  056D  01BF               	clrf	main@x_170+1
  2568  056E                     l1690:
  2569  056E  083F               	movf	main@x_170+1,w
  2570  056F  3A80               	xorlw	128
  2571  0570  00FF               	movwf	btemp+1
  2572  0571  3080               	movlw	128
  2573  0572  027F               	subwf	btemp+1,w
  2574  0573  1D03               	skipz
  2575  0574  2D77               	goto	u2015
  2576  0575  3032               	movlw	50
  2577  0576  023E               	subwf	main@x_170,w
  2578  0577                     u2015:
  2579  0577  1C03               	skipc
  2580  0578  2D7A               	goto	u2011
  2581  0579  2D7B               	goto	u2010
  2582  057A                     u2011:
  2583  057A  2D7C               	goto	l118
  2584  057B                     u2010:
  2585  057B  2D97               	goto	l117
  2586  057C                     l118:
  2587                           
  2588                           ;C:/Users/danie/OneDrive/Desktop/DIGITAL2/proyecto3/musica.X/musica.c: 264:             
      +                              PORTCbits.RC4 = 1;
  2589  057C  1283               	bcf	3,5	;RP0=0, select bank0
  2590  057D  1303               	bcf	3,6	;RP1=0, select bank0
  2591  057E  1607               	bsf	7,4	;volatile
  2592  057F                     l1694:
  2593                           
  2594                           ;C:/Users/danie/OneDrive/Desktop/DIGITAL2/proyecto3/musica.X/musica.c: 265:             
      +                              _delay((unsigned long)((851)*(8000000/4000000.0)));
  2595  057F  30F3               	movlw	243
  2596  0580  00FB               	movwf	??_main
  2597  0581                     u2867:
  2598  0581  2D82               	nop2
  2599  0582  2D83               	nop2
  2600  0583  0BFB               	decfsz	??_main,f
  2601  0584  2D81               	goto	u2867
  2602  0585                     l1696:
  2603                           
  2604                           ;C:/Users/danie/OneDrive/Desktop/DIGITAL2/proyecto3/musica.X/musica.c: 266:             
      +                              PORTCbits.RC4 = 0;
  2605  0585  1283               	bcf	3,5	;RP0=0, select bank0
  2606  0586  1303               	bcf	3,6	;RP1=0, select bank0
  2607  0587  1207               	bcf	7,4	;volatile
  2608                           
  2609                           ;C:/Users/danie/OneDrive/Desktop/DIGITAL2/proyecto3/musica.X/musica.c: 267:             
      +                              _delay((unsigned long)((851)*(8000000/4000000.0)));
  2610  0588  30F3               	movlw	243
  2611  0589  00FB               	movwf	??_main
  2612  058A                     u2877:
  2613  058A  2D8B               	nop2
  2614  058B  2D8C               	nop2
  2615  058C  0BFB               	decfsz	??_main,f
  2616  058D  2D8A               	goto	u2877
  2617                           
  2618                           ;C:/Users/danie/OneDrive/Desktop/DIGITAL2/proyecto3/musica.X/musica.c: 268:             
      +                          }
  2619  058E  3001               	movlw	1
  2620  058F  1283               	bcf	3,5	;RP0=0, select bank0
  2621  0590  1303               	bcf	3,6	;RP1=0, select bank0
  2622  0591  07BE               	addwf	main@x_170,f
  2623  0592  1803               	skipnc
  2624  0593  0ABF               	incf	main@x_170+1,f
  2625  0594  3000               	movlw	0
  2626  0595  07BF               	addwf	main@x_170+1,f
  2627  0596  2D6E               	goto	l1690
  2628  0597                     l117:	
  2629                           ;C:/Users/danie/OneDrive/Desktop/DIGITAL2/proyecto3/musica.X/musica.c: 269:         }
  2630                           
  2631                           
  2632                           ;C:/Users/danie/OneDrive/Desktop/DIGITAL2/proyecto3/musica.X/musica.c: 270:     if (RB7 
      +                          == 0 && RB6 == 1){
  2633  0597  1283               	bcf	3,5	;RP0=0, select bank0
  2634  0598  1303               	bcf	3,6	;RP1=0, select bank0
  2635  0599  1B86               	btfsc	6,7	;volatile
  2636  059A  2D9C               	goto	u2021
  2637  059B  2D9D               	goto	u2020
  2638  059C                     u2021:
  2639  059C  2DAD               	goto	l1704
  2640  059D                     u2020:
  2641  059D                     l1700:
  2642  059D  1F06               	btfss	6,6	;volatile
  2643  059E  2DA0               	goto	u2031
  2644  059F  2DA1               	goto	u2030
  2645  05A0                     u2031:
  2646  05A0  2DAD               	goto	l1704
  2647  05A1                     u2030:
  2648  05A1                     l1702:
  2649                           
  2650                           ;C:/Users/danie/OneDrive/Desktop/DIGITAL2/proyecto3/musica.X/musica.c: 271:             
      +                          _delay((unsigned long)((200)*(8000000/4000.0)));
  2651  05A1  3003               	movlw	3
  2652  05A2  00FD               	movwf	??_main+2
  2653  05A3  3008               	movlw	8
  2654  05A4  00FC               	movwf	??_main+1
  2655  05A5  3077               	movlw	119
  2656  05A6  00FB               	movwf	??_main
  2657  05A7                     u2887:
  2658  05A7  0BFB               	decfsz	??_main,f
  2659  05A8  2DA7               	goto	u2887
  2660  05A9  0BFC               	decfsz	??_main+1,f
  2661  05AA  2DA7               	goto	u2887
  2662  05AB  0BFD               	decfsz	??_main+2,f
  2663  05AC  2DA7               	goto	u2887
  2664  05AD                     l1704:
  2665                           
  2666                           ;C:/Users/danie/OneDrive/Desktop/DIGITAL2/proyecto3/musica.X/musica.c: 273:     if (RB7 
      +                          == 0 && RB6 == 1){
  2667  05AD  1283               	bcf	3,5	;RP0=0, select bank0
  2668  05AE  1303               	bcf	3,6	;RP1=0, select bank0
  2669  05AF  1B86               	btfsc	6,7	;volatile
  2670  05B0  2DB2               	goto	u2041
  2671  05B1  2DB3               	goto	u2040
  2672  05B2                     u2041:
  2673  05B2  2DE8               	goto	l121
  2674  05B3                     u2040:
  2675  05B3                     l1706:
  2676  05B3  1F06               	btfss	6,6	;volatile
  2677  05B4  2DB6               	goto	u2051
  2678  05B5  2DB7               	goto	u2050
  2679  05B6                     u2051:
  2680  05B6  2DE8               	goto	l121
  2681  05B7                     u2050:
  2682  05B7                     l1708:
  2683                           
  2684                           ;C:/Users/danie/OneDrive/Desktop/DIGITAL2/proyecto3/musica.X/musica.c: 274:             
      +                          for (int x = 0; x < 100; x++){
  2685  05B7  01C0               	clrf	main@x_171
  2686  05B8  01C1               	clrf	main@x_171+1
  2687  05B9                     l1710:
  2688  05B9  0841               	movf	main@x_171+1,w
  2689  05BA  3A80               	xorlw	128
  2690  05BB  00FF               	movwf	btemp+1
  2691  05BC  3080               	movlw	128
  2692  05BD  027F               	subwf	btemp+1,w
  2693  05BE  1D03               	skipz
  2694  05BF  2DC2               	goto	u2065
  2695  05C0  3064               	movlw	100
  2696  05C1  0240               	subwf	main@x_171,w
  2697  05C2                     u2065:
  2698  05C2  1C03               	skipc
  2699  05C3  2DC5               	goto	u2061
  2700  05C4  2DC6               	goto	u2060
  2701  05C5                     u2061:
  2702  05C5  2DC7               	goto	l122
  2703  05C6                     u2060:
  2704  05C6  2DE8               	goto	l121
  2705  05C7                     l122:
  2706                           
  2707                           ;C:/Users/danie/OneDrive/Desktop/DIGITAL2/proyecto3/musica.X/musica.c: 275:             
      +                              PORTCbits.RC4 = 1;
  2708  05C7  1283               	bcf	3,5	;RP0=0, select bank0
  2709  05C8  1303               	bcf	3,6	;RP1=0, select bank0
  2710  05C9  1607               	bsf	7,4	;volatile
  2711  05CA                     l1714:
  2712                           
  2713                           ;C:/Users/danie/OneDrive/Desktop/DIGITAL2/proyecto3/musica.X/musica.c: 276:             
      +                              _delay((unsigned long)((1012)*(8000000/4000000.0)));
  2714  05CA  3003               	movlw	3
  2715  05CB  00FC               	movwf	??_main+1
  2716  05CC  309F               	movlw	159
  2717  05CD  00FB               	movwf	??_main
  2718  05CE                     u2897:
  2719  05CE  0BFB               	decfsz	??_main,f
  2720  05CF  2DCE               	goto	u2897
  2721  05D0  0BFC               	decfsz	??_main+1,f
  2722  05D1  2DCE               	goto	u2897
  2723  05D2  2DD3               	nop2
  2724  05D3                     l1716:
  2725                           
  2726                           ;C:/Users/danie/OneDrive/Desktop/DIGITAL2/proyecto3/musica.X/musica.c: 277:             
      +                              PORTCbits.RC4 = 0;
  2727  05D3  1283               	bcf	3,5	;RP0=0, select bank0
  2728  05D4  1303               	bcf	3,6	;RP1=0, select bank0
  2729  05D5  1207               	bcf	7,4	;volatile
  2730                           
  2731                           ;C:/Users/danie/OneDrive/Desktop/DIGITAL2/proyecto3/musica.X/musica.c: 278:             
      +                              _delay((unsigned long)((1012)*(8000000/4000000.0)));
  2732  05D6  3003               	movlw	3
  2733  05D7  00FC               	movwf	??_main+1
  2734  05D8  309F               	movlw	159
  2735  05D9  00FB               	movwf	??_main
  2736  05DA                     u2907:
  2737  05DA  0BFB               	decfsz	??_main,f
  2738  05DB  2DDA               	goto	u2907
  2739  05DC  0BFC               	decfsz	??_main+1,f
  2740  05DD  2DDA               	goto	u2907
  2741  05DE  2DDF               	nop2
  2742                           
  2743                           ;C:/Users/danie/OneDrive/Desktop/DIGITAL2/proyecto3/musica.X/musica.c: 279:             
      +                          }
  2744  05DF  3001               	movlw	1
  2745  05E0  1283               	bcf	3,5	;RP0=0, select bank0
  2746  05E1  1303               	bcf	3,6	;RP1=0, select bank0
  2747  05E2  07C0               	addwf	main@x_171,f
  2748  05E3  1803               	skipnc
  2749  05E4  0AC1               	incf	main@x_171+1,f
  2750  05E5  3000               	movlw	0
  2751  05E6  07C1               	addwf	main@x_171+1,f
  2752  05E7  2DB9               	goto	l1710
  2753  05E8                     l121:	
  2754                           ;C:/Users/danie/OneDrive/Desktop/DIGITAL2/proyecto3/musica.X/musica.c: 280:         }
  2755                           
  2756                           
  2757                           ;C:/Users/danie/OneDrive/Desktop/DIGITAL2/proyecto3/musica.X/musica.c: 281:     if (RB7 
      +                          == 0 && RB6 == 1){
  2758  05E8  1283               	bcf	3,5	;RP0=0, select bank0
  2759  05E9  1303               	bcf	3,6	;RP1=0, select bank0
  2760  05EA  1B86               	btfsc	6,7	;volatile
  2761  05EB  2DED               	goto	u2071
  2762  05EC  2DEE               	goto	u2070
  2763  05ED                     u2071:
  2764  05ED  2DFE               	goto	l1724
  2765  05EE                     u2070:
  2766  05EE                     l1720:
  2767  05EE  1F06               	btfss	6,6	;volatile
  2768  05EF  2DF1               	goto	u2081
  2769  05F0  2DF2               	goto	u2080
  2770  05F1                     u2081:
  2771  05F1  2DFE               	goto	l1724
  2772  05F2                     u2080:
  2773  05F2                     l1722:
  2774                           
  2775                           ;C:/Users/danie/OneDrive/Desktop/DIGITAL2/proyecto3/musica.X/musica.c: 282:             
      +                          _delay((unsigned long)((200)*(8000000/4000.0)));
  2776  05F2  3003               	movlw	3
  2777  05F3  00FD               	movwf	??_main+2
  2778  05F4  3008               	movlw	8
  2779  05F5  00FC               	movwf	??_main+1
  2780  05F6  3077               	movlw	119
  2781  05F7  00FB               	movwf	??_main
  2782  05F8                     u2917:
  2783  05F8  0BFB               	decfsz	??_main,f
  2784  05F9  2DF8               	goto	u2917
  2785  05FA  0BFC               	decfsz	??_main+1,f
  2786  05FB  2DF8               	goto	u2917
  2787  05FC  0BFD               	decfsz	??_main+2,f
  2788  05FD  2DF8               	goto	u2917
  2789  05FE                     l1724:
  2790                           
  2791                           ;C:/Users/danie/OneDrive/Desktop/DIGITAL2/proyecto3/musica.X/musica.c: 295:     if (RB7 
      +                          == 1 && RB6 == 0){
  2792  05FE  1283               	bcf	3,5	;RP0=0, select bank0
  2793  05FF  1303               	bcf	3,6	;RP1=0, select bank0
  2794  0600  1F86               	btfss	6,7	;volatile
  2795  0601  2E03               	goto	u2091
  2796  0602  2E04               	goto	u2090
  2797  0603                     u2091:
  2798  0603  2E31               	goto	l125
  2799  0604                     u2090:
  2800  0604                     l1726:
  2801  0604  1B06               	btfsc	6,6	;volatile
  2802  0605  2E07               	goto	u2101
  2803  0606  2E08               	goto	u2100
  2804  0607                     u2101:
  2805  0607  2E31               	goto	l125
  2806  0608                     u2100:
  2807  0608                     l1728:
  2808                           
  2809                           ;C:/Users/danie/OneDrive/Desktop/DIGITAL2/proyecto3/musica.X/musica.c: 296:             
      +                          for (int x = 0; x < 50; x++){
  2810  0608  01C2               	clrf	main@x_172
  2811  0609  01C3               	clrf	main@x_172+1
  2812  060A                     l1730:
  2813  060A  0843               	movf	main@x_172+1,w
  2814  060B  3A80               	xorlw	128
  2815  060C  00FF               	movwf	btemp+1
  2816  060D  3080               	movlw	128
  2817  060E  027F               	subwf	btemp+1,w
  2818  060F  1D03               	skipz
  2819  0610  2E13               	goto	u2115
  2820  0611  3032               	movlw	50
  2821  0612  0242               	subwf	main@x_172,w
  2822  0613                     u2115:
  2823  0613  1C03               	skipc
  2824  0614  2E16               	goto	u2111
  2825  0615  2E17               	goto	u2110
  2826  0616                     u2111:
  2827  0616  2E18               	goto	l126
  2828  0617                     u2110:
  2829  0617  2E31               	goto	l125
  2830  0618                     l126:
  2831                           
  2832                           ;C:/Users/danie/OneDrive/Desktop/DIGITAL2/proyecto3/musica.X/musica.c: 297:             
      +                              PORTCbits.RC4 = 1;
  2833  0618  1283               	bcf	3,5	;RP0=0, select bank0
  2834  0619  1303               	bcf	3,6	;RP1=0, select bank0
  2835  061A  1607               	bsf	7,4	;volatile
  2836  061B                     l1734:
  2837                           
  2838                           ;C:/Users/danie/OneDrive/Desktop/DIGITAL2/proyecto3/musica.X/musica.c: 298:             
      +                              _delay((unsigned long)((382)*(8000000/4000000.0)));
  2839  061B  30FE               	movlw	254
  2840  061C  00FB               	movwf	??_main
  2841  061D                     u2927:
  2842  061D  0BFB               	decfsz	??_main,f
  2843  061E  2E1D               	goto	u2927
  2844  061F  0000               	nop
  2845  0620                     l1736:
  2846                           
  2847                           ;C:/Users/danie/OneDrive/Desktop/DIGITAL2/proyecto3/musica.X/musica.c: 299:             
      +                              PORTCbits.RC4 = 0;
  2848  0620  1283               	bcf	3,5	;RP0=0, select bank0
  2849  0621  1303               	bcf	3,6	;RP1=0, select bank0
  2850  0622  1207               	bcf	7,4	;volatile
  2851                           
  2852                           ;C:/Users/danie/OneDrive/Desktop/DIGITAL2/proyecto3/musica.X/musica.c: 300:             
      +                              _delay((unsigned long)((382)*(8000000/4000000.0)));
  2853  0623  30FE               	movlw	254
  2854  0624  00FB               	movwf	??_main
  2855  0625                     u2937:
  2856  0625  0BFB               	decfsz	??_main,f
  2857  0626  2E25               	goto	u2937
  2858  0627  0000               	nop
  2859                           
  2860                           ;C:/Users/danie/OneDrive/Desktop/DIGITAL2/proyecto3/musica.X/musica.c: 301:             
      +                          }
  2861  0628  3001               	movlw	1
  2862  0629  1283               	bcf	3,5	;RP0=0, select bank0
  2863  062A  1303               	bcf	3,6	;RP1=0, select bank0
  2864  062B  07C2               	addwf	main@x_172,f
  2865  062C  1803               	skipnc
  2866  062D  0AC3               	incf	main@x_172+1,f
  2867  062E  3000               	movlw	0
  2868  062F  07C3               	addwf	main@x_172+1,f
  2869  0630  2E0A               	goto	l1730
  2870  0631                     l125:	
  2871                           ;C:/Users/danie/OneDrive/Desktop/DIGITAL2/proyecto3/musica.X/musica.c: 302:         }
  2872                           
  2873                           
  2874                           ;C:/Users/danie/OneDrive/Desktop/DIGITAL2/proyecto3/musica.X/musica.c: 303:     if (RB7 
      +                          == 1 && RB6 == 0){
  2875  0631  1283               	bcf	3,5	;RP0=0, select bank0
  2876  0632  1303               	bcf	3,6	;RP1=0, select bank0
  2877  0633  1F86               	btfss	6,7	;volatile
  2878  0634  2E36               	goto	u2121
  2879  0635  2E37               	goto	u2120
  2880  0636                     u2121:
  2881  0636  2E47               	goto	l1744
  2882  0637                     u2120:
  2883  0637                     l1740:
  2884  0637  1B06               	btfsc	6,6	;volatile
  2885  0638  2E3A               	goto	u2131
  2886  0639  2E3B               	goto	u2130
  2887  063A                     u2131:
  2888  063A  2E47               	goto	l1744
  2889  063B                     u2130:
  2890  063B                     l1742:
  2891                           
  2892                           ;C:/Users/danie/OneDrive/Desktop/DIGITAL2/proyecto3/musica.X/musica.c: 304:             
      +                          _delay((unsigned long)((200)*(8000000/4000.0)));
  2893  063B  3003               	movlw	3
  2894  063C  00FD               	movwf	??_main+2
  2895  063D  3008               	movlw	8
  2896  063E  00FC               	movwf	??_main+1
  2897  063F  3077               	movlw	119
  2898  0640  00FB               	movwf	??_main
  2899  0641                     u2947:
  2900  0641  0BFB               	decfsz	??_main,f
  2901  0642  2E41               	goto	u2947
  2902  0643  0BFC               	decfsz	??_main+1,f
  2903  0644  2E41               	goto	u2947
  2904  0645  0BFD               	decfsz	??_main+2,f
  2905  0646  2E41               	goto	u2947
  2906  0647                     l1744:
  2907                           
  2908                           ;C:/Users/danie/OneDrive/Desktop/DIGITAL2/proyecto3/musica.X/musica.c: 306:     if (RB7 
      +                          == 1 && RB6 == 0){
  2909  0647  1283               	bcf	3,5	;RP0=0, select bank0
  2910  0648  1303               	bcf	3,6	;RP1=0, select bank0
  2911  0649  1F86               	btfss	6,7	;volatile
  2912  064A  2E4C               	goto	u2141
  2913  064B  2E4D               	goto	u2140
  2914  064C                     u2141:
  2915  064C  2E78               	goto	l129
  2916  064D                     u2140:
  2917  064D                     l1746:
  2918  064D  1B06               	btfsc	6,6	;volatile
  2919  064E  2E50               	goto	u2151
  2920  064F  2E51               	goto	u2150
  2921  0650                     u2151:
  2922  0650  2E78               	goto	l129
  2923  0651                     u2150:
  2924  0651                     l1748:
  2925                           
  2926                           ;C:/Users/danie/OneDrive/Desktop/DIGITAL2/proyecto3/musica.X/musica.c: 307:             
      +                          for (int x = 0; x < 50; x++){
  2927  0651  01C4               	clrf	main@x_173
  2928  0652  01C5               	clrf	main@x_173+1
  2929  0653                     l1750:
  2930  0653  0845               	movf	main@x_173+1,w
  2931  0654  3A80               	xorlw	128
  2932  0655  00FF               	movwf	btemp+1
  2933  0656  3080               	movlw	128
  2934  0657  027F               	subwf	btemp+1,w
  2935  0658  1D03               	skipz
  2936  0659  2E5C               	goto	u2165
  2937  065A  3032               	movlw	50
  2938  065B  0244               	subwf	main@x_173,w
  2939  065C                     u2165:
  2940  065C  1C03               	skipc
  2941  065D  2E5F               	goto	u2161
  2942  065E  2E60               	goto	u2160
  2943  065F                     u2161:
  2944  065F  2E61               	goto	l130
  2945  0660                     u2160:
  2946  0660  2E78               	goto	l129
  2947  0661                     l130:
  2948                           
  2949                           ;C:/Users/danie/OneDrive/Desktop/DIGITAL2/proyecto3/musica.X/musica.c: 308:             
      +                              PORTCbits.RC4 = 1;
  2950  0661  1283               	bcf	3,5	;RP0=0, select bank0
  2951  0662  1303               	bcf	3,6	;RP1=0, select bank0
  2952  0663  1607               	bsf	7,4	;volatile
  2953  0664                     l1754:
  2954                           
  2955                           ;C:/Users/danie/OneDrive/Desktop/DIGITAL2/proyecto3/musica.X/musica.c: 309:             
      +                              _delay((unsigned long)((191)*(8000000/4000000.0)));
  2956  0664  307F               	movlw	127
  2957  0665  00FB               	movwf	??_main
  2958  0666                     u2957:
  2959  0666  0BFB               	decfsz	??_main,f
  2960  0667  2E66               	goto	u2957
  2961  0668                     l1756:
  2962                           
  2963                           ;C:/Users/danie/OneDrive/Desktop/DIGITAL2/proyecto3/musica.X/musica.c: 310:             
      +                              PORTCbits.RC4 = 0;
  2964  0668  1283               	bcf	3,5	;RP0=0, select bank0
  2965  0669  1303               	bcf	3,6	;RP1=0, select bank0
  2966  066A  1207               	bcf	7,4	;volatile
  2967                           
  2968                           ;C:/Users/danie/OneDrive/Desktop/DIGITAL2/proyecto3/musica.X/musica.c: 311:             
      +                              _delay((unsigned long)((191)*(8000000/4000000.0)));
  2969  066B  307F               	movlw	127
  2970  066C  00FB               	movwf	??_main
  2971  066D                     u2967:
  2972  066D  0BFB               	decfsz	??_main,f
  2973  066E  2E6D               	goto	u2967
  2974                           
  2975                           ;C:/Users/danie/OneDrive/Desktop/DIGITAL2/proyecto3/musica.X/musica.c: 312:             
      +                          }
  2976  066F  3001               	movlw	1
  2977  0670  1283               	bcf	3,5	;RP0=0, select bank0
  2978  0671  1303               	bcf	3,6	;RP1=0, select bank0
  2979  0672  07C4               	addwf	main@x_173,f
  2980  0673  1803               	skipnc
  2981  0674  0AC5               	incf	main@x_173+1,f
  2982  0675  3000               	movlw	0
  2983  0676  07C5               	addwf	main@x_173+1,f
  2984  0677  2E53               	goto	l1750
  2985  0678                     l129:	
  2986                           ;C:/Users/danie/OneDrive/Desktop/DIGITAL2/proyecto3/musica.X/musica.c: 313:         }
  2987                           
  2988                           
  2989                           ;C:/Users/danie/OneDrive/Desktop/DIGITAL2/proyecto3/musica.X/musica.c: 314:     if (RB7 
      +                          == 1 && RB6 == 0){
  2990  0678  1283               	bcf	3,5	;RP0=0, select bank0
  2991  0679  1303               	bcf	3,6	;RP1=0, select bank0
  2992  067A  1F86               	btfss	6,7	;volatile
  2993  067B  2E7D               	goto	u2171
  2994  067C  2E7E               	goto	u2170
  2995  067D                     u2171:
  2996  067D  2E8F               	goto	l1764
  2997  067E                     u2170:
  2998  067E                     l1760:
  2999  067E  1B06               	btfsc	6,6	;volatile
  3000  067F  2E81               	goto	u2181
  3001  0680  2E82               	goto	u2180
  3002  0681                     u2181:
  3003  0681  2E8F               	goto	l1764
  3004  0682                     u2180:
  3005  0682                     l1762:
  3006                           
  3007                           ;C:/Users/danie/OneDrive/Desktop/DIGITAL2/proyecto3/musica.X/musica.c: 315:             
      +                          _delay((unsigned long)((250)*(8000000/4000.0)));
  3008  0682  3003               	movlw	3
  3009  0683  00FD               	movwf	??_main+2
  3010  0684  308A               	movlw	138
  3011  0685  00FC               	movwf	??_main+1
  3012  0686  3055               	movlw	85
  3013  0687  00FB               	movwf	??_main
  3014  0688                     u2977:
  3015  0688  0BFB               	decfsz	??_main,f
  3016  0689  2E88               	goto	u2977
  3017  068A  0BFC               	decfsz	??_main+1,f
  3018  068B  2E88               	goto	u2977
  3019  068C  0BFD               	decfsz	??_main+2,f
  3020  068D  2E88               	goto	u2977
  3021  068E  2E8F               	nop2
  3022  068F                     l1764:
  3023                           
  3024                           ;C:/Users/danie/OneDrive/Desktop/DIGITAL2/proyecto3/musica.X/musica.c: 317:     if (RB7 
      +                          == 1 && RB6 == 0){
  3025  068F  1283               	bcf	3,5	;RP0=0, select bank0
  3026  0690  1303               	bcf	3,6	;RP1=0, select bank0
  3027  0691  1F86               	btfss	6,7	;volatile
  3028  0692  2E94               	goto	u2191
  3029  0693  2E95               	goto	u2190
  3030  0694                     u2191:
  3031  0694  2EC4               	goto	l133
  3032  0695                     u2190:
  3033  0695                     l1766:
  3034  0695  1B06               	btfsc	6,6	;volatile
  3035  0696  2E98               	goto	u2201
  3036  0697  2E99               	goto	u2200
  3037  0698                     u2201:
  3038  0698  2EC4               	goto	l133
  3039  0699                     u2200:
  3040  0699                     l1768:
  3041                           
  3042                           ;C:/Users/danie/OneDrive/Desktop/DIGITAL2/proyecto3/musica.X/musica.c: 318:             
      +                          for (int x = 0; x < 50; x++){
  3043  0699  01C6               	clrf	main@x_174
  3044  069A  01C7               	clrf	main@x_174+1
  3045  069B                     l1770:
  3046  069B  0847               	movf	main@x_174+1,w
  3047  069C  3A80               	xorlw	128
  3048  069D  00FF               	movwf	btemp+1
  3049  069E  3080               	movlw	128
  3050  069F  027F               	subwf	btemp+1,w
  3051  06A0  1D03               	skipz
  3052  06A1  2EA4               	goto	u2215
  3053  06A2  3032               	movlw	50
  3054  06A3  0246               	subwf	main@x_174,w
  3055  06A4                     u2215:
  3056  06A4  1C03               	skipc
  3057  06A5  2EA7               	goto	u2211
  3058  06A6  2EA8               	goto	u2210
  3059  06A7                     u2211:
  3060  06A7  2EA9               	goto	l134
  3061  06A8                     u2210:
  3062  06A8  2EC4               	goto	l133
  3063  06A9                     l134:
  3064                           
  3065                           ;C:/Users/danie/OneDrive/Desktop/DIGITAL2/proyecto3/musica.X/musica.c: 319:             
      +                              PORTCbits.RC4 = 1;
  3066  06A9  1283               	bcf	3,5	;RP0=0, select bank0
  3067  06AA  1303               	bcf	3,6	;RP1=0, select bank0
  3068  06AB  1607               	bsf	7,4	;volatile
  3069  06AC                     l1774:
  3070                           
  3071                           ;C:/Users/danie/OneDrive/Desktop/DIGITAL2/proyecto3/musica.X/musica.c: 320:             
      +                              _delay((unsigned long)((454)*(8000000/4000000.0)));
  3072  06AC  30B5               	movlw	181
  3073  06AD  00FB               	movwf	??_main
  3074  06AE                     u2987:
  3075  06AE  2EAF               	nop2
  3076  06AF  0BFB               	decfsz	??_main,f
  3077  06B0  2EAE               	goto	u2987
  3078  06B1  2EB2               	nop2
  3079  06B2                     l1776:
  3080                           
  3081                           ;C:/Users/danie/OneDrive/Desktop/DIGITAL2/proyecto3/musica.X/musica.c: 321:             
      +                              PORTCbits.RC4 = 0;
  3082  06B2  1283               	bcf	3,5	;RP0=0, select bank0
  3083  06B3  1303               	bcf	3,6	;RP1=0, select bank0
  3084  06B4  1207               	bcf	7,4	;volatile
  3085                           
  3086                           ;C:/Users/danie/OneDrive/Desktop/DIGITAL2/proyecto3/musica.X/musica.c: 322:             
      +                              _delay((unsigned long)((454)*(8000000/4000000.0)));
  3087  06B5  30B5               	movlw	181
  3088  06B6  00FB               	movwf	??_main
  3089  06B7                     u2997:
  3090  06B7  2EB8               	nop2
  3091  06B8  0BFB               	decfsz	??_main,f
  3092  06B9  2EB7               	goto	u2997
  3093  06BA  2EBB               	nop2
  3094                           
  3095                           ;C:/Users/danie/OneDrive/Desktop/DIGITAL2/proyecto3/musica.X/musica.c: 323:             
      +                          }
  3096  06BB  3001               	movlw	1
  3097  06BC  1283               	bcf	3,5	;RP0=0, select bank0
  3098  06BD  1303               	bcf	3,6	;RP1=0, select bank0
  3099  06BE  07C6               	addwf	main@x_174,f
  3100  06BF  1803               	skipnc
  3101  06C0  0AC7               	incf	main@x_174+1,f
  3102  06C1  3000               	movlw	0
  3103  06C2  07C7               	addwf	main@x_174+1,f
  3104  06C3  2E9B               	goto	l1770
  3105  06C4                     l133:	
  3106                           ;C:/Users/danie/OneDrive/Desktop/DIGITAL2/proyecto3/musica.X/musica.c: 324:         }
  3107                           
  3108                           
  3109                           ;C:/Users/danie/OneDrive/Desktop/DIGITAL2/proyecto3/musica.X/musica.c: 325:     if (RB7 
      +                          == 1 && RB6 == 0){
  3110  06C4  1283               	bcf	3,5	;RP0=0, select bank0
  3111  06C5  1303               	bcf	3,6	;RP1=0, select bank0
  3112  06C6  1F86               	btfss	6,7	;volatile
  3113  06C7  2EC9               	goto	u2221
  3114  06C8  2ECA               	goto	u2220
  3115  06C9                     u2221:
  3116  06C9  2EDB               	goto	l1784
  3117  06CA                     u2220:
  3118  06CA                     l1780:
  3119  06CA  1B06               	btfsc	6,6	;volatile
  3120  06CB  2ECD               	goto	u2231
  3121  06CC  2ECE               	goto	u2230
  3122  06CD                     u2231:
  3123  06CD  2EDB               	goto	l1784
  3124  06CE                     u2230:
  3125  06CE                     l1782:
  3126                           
  3127                           ;C:/Users/danie/OneDrive/Desktop/DIGITAL2/proyecto3/musica.X/musica.c: 326:             
      +                          _delay((unsigned long)((250)*(8000000/4000.0)));
  3128  06CE  3003               	movlw	3
  3129  06CF  00FD               	movwf	??_main+2
  3130  06D0  308A               	movlw	138
  3131  06D1  00FC               	movwf	??_main+1
  3132  06D2  3055               	movlw	85
  3133  06D3  00FB               	movwf	??_main
  3134  06D4                     u3007:
  3135  06D4  0BFB               	decfsz	??_main,f
  3136  06D5  2ED4               	goto	u3007
  3137  06D6  0BFC               	decfsz	??_main+1,f
  3138  06D7  2ED4               	goto	u3007
  3139  06D8  0BFD               	decfsz	??_main+2,f
  3140  06D9  2ED4               	goto	u3007
  3141  06DA  2EDB               	nop2
  3142  06DB                     l1784:
  3143                           
  3144                           ;C:/Users/danie/OneDrive/Desktop/DIGITAL2/proyecto3/musica.X/musica.c: 328:     if (RB7 
      +                          == 1 && RB6 == 0){
  3145  06DB  1283               	bcf	3,5	;RP0=0, select bank0
  3146  06DC  1303               	bcf	3,6	;RP1=0, select bank0
  3147  06DD  1F86               	btfss	6,7	;volatile
  3148  06DE  2EE0               	goto	u2241
  3149  06DF  2EE1               	goto	u2240
  3150  06E0                     u2241:
  3151  06E0  2F0C               	goto	l137
  3152  06E1                     u2240:
  3153  06E1                     l1786:
  3154  06E1  1B06               	btfsc	6,6	;volatile
  3155  06E2  2EE4               	goto	u2251
  3156  06E3  2EE5               	goto	u2250
  3157  06E4                     u2251:
  3158  06E4  2F0C               	goto	l137
  3159  06E5                     u2250:
  3160  06E5                     l1788:
  3161                           
  3162                           ;C:/Users/danie/OneDrive/Desktop/DIGITAL2/proyecto3/musica.X/musica.c: 329:             
      +                          for (int x = 0; x < 50; x++){
  3163  06E5  01C8               	clrf	main@x_175
  3164  06E6  01C9               	clrf	main@x_175+1
  3165  06E7                     l1790:
  3166  06E7  0849               	movf	main@x_175+1,w
  3167  06E8  3A80               	xorlw	128
  3168  06E9  00FF               	movwf	btemp+1
  3169  06EA  3080               	movlw	128
  3170  06EB  027F               	subwf	btemp+1,w
  3171  06EC  1D03               	skipz
  3172  06ED  2EF0               	goto	u2265
  3173  06EE  3032               	movlw	50
  3174  06EF  0248               	subwf	main@x_175,w
  3175  06F0                     u2265:
  3176  06F0  1C03               	skipc
  3177  06F1  2EF3               	goto	u2261
  3178  06F2  2EF4               	goto	u2260
  3179  06F3                     u2261:
  3180  06F3  2EF5               	goto	l138
  3181  06F4                     u2260:
  3182  06F4  2F0C               	goto	l137
  3183  06F5                     l138:
  3184                           
  3185                           ;C:/Users/danie/OneDrive/Desktop/DIGITAL2/proyecto3/musica.X/musica.c: 330:             
      +                              PORTCbits.RC4 = 1;
  3186  06F5  1283               	bcf	3,5	;RP0=0, select bank0
  3187  06F6  1303               	bcf	3,6	;RP1=0, select bank0
  3188  06F7  1607               	bsf	7,4	;volatile
  3189  06F8                     l1794:
  3190                           
  3191                           ;C:/Users/danie/OneDrive/Desktop/DIGITAL2/proyecto3/musica.X/musica.c: 331:             
      +                              _delay((unsigned long)((227)*(8000000/4000000.0)));
  3192  06F8  3097               	movlw	151
  3193  06F9  00FB               	movwf	??_main
  3194  06FA                     u3017:
  3195  06FA  0BFB               	decfsz	??_main,f
  3196  06FB  2EFA               	goto	u3017
  3197  06FC                     l1796:
  3198                           
  3199                           ;C:/Users/danie/OneDrive/Desktop/DIGITAL2/proyecto3/musica.X/musica.c: 332:             
      +                              PORTCbits.RC4 = 0;
  3200  06FC  1283               	bcf	3,5	;RP0=0, select bank0
  3201  06FD  1303               	bcf	3,6	;RP1=0, select bank0
  3202  06FE  1207               	bcf	7,4	;volatile
  3203                           
  3204                           ;C:/Users/danie/OneDrive/Desktop/DIGITAL2/proyecto3/musica.X/musica.c: 333:             
      +                              _delay((unsigned long)((227)*(8000000/4000000.0)));
  3205  06FF  3097               	movlw	151
  3206  0700  00FB               	movwf	??_main
  3207  0701                     u3027:
  3208  0701  0BFB               	decfsz	??_main,f
  3209  0702  2F01               	goto	u3027
  3210                           
  3211                           ;C:/Users/danie/OneDrive/Desktop/DIGITAL2/proyecto3/musica.X/musica.c: 334:             
      +                          }
  3212  0703  3001               	movlw	1
  3213  0704  1283               	bcf	3,5	;RP0=0, select bank0
  3214  0705  1303               	bcf	3,6	;RP1=0, select bank0
  3215  0706  07C8               	addwf	main@x_175,f
  3216  0707  1803               	skipnc
  3217  0708  0AC9               	incf	main@x_175+1,f
  3218  0709  3000               	movlw	0
  3219  070A  07C9               	addwf	main@x_175+1,f
  3220  070B  2EE7               	goto	l1790
  3221  070C                     l137:	
  3222                           ;C:/Users/danie/OneDrive/Desktop/DIGITAL2/proyecto3/musica.X/musica.c: 335:         }
  3223                           
  3224                           
  3225                           ;C:/Users/danie/OneDrive/Desktop/DIGITAL2/proyecto3/musica.X/musica.c: 336:     if (RB7 
      +                          == 1 && RB6 == 0){
  3226  070C  1283               	bcf	3,5	;RP0=0, select bank0
  3227  070D  1303               	bcf	3,6	;RP1=0, select bank0
  3228  070E  1F86               	btfss	6,7	;volatile
  3229  070F  2F11               	goto	u2271
  3230  0710  2F12               	goto	u2270
  3231  0711                     u2271:
  3232  0711  2F23               	goto	l1804
  3233  0712                     u2270:
  3234  0712                     l1800:
  3235  0712  1B06               	btfsc	6,6	;volatile
  3236  0713  2F15               	goto	u2281
  3237  0714  2F16               	goto	u2280
  3238  0715                     u2281:
  3239  0715  2F23               	goto	l1804
  3240  0716                     u2280:
  3241  0716                     l1802:
  3242                           
  3243                           ;C:/Users/danie/OneDrive/Desktop/DIGITAL2/proyecto3/musica.X/musica.c: 337:             
      +                          _delay((unsigned long)((250)*(8000000/4000.0)));
  3244  0716  3003               	movlw	3
  3245  0717  00FD               	movwf	??_main+2
  3246  0718  308A               	movlw	138
  3247  0719  00FC               	movwf	??_main+1
  3248  071A  3055               	movlw	85
  3249  071B  00FB               	movwf	??_main
  3250  071C                     u3037:
  3251  071C  0BFB               	decfsz	??_main,f
  3252  071D  2F1C               	goto	u3037
  3253  071E  0BFC               	decfsz	??_main+1,f
  3254  071F  2F1C               	goto	u3037
  3255  0720  0BFD               	decfsz	??_main+2,f
  3256  0721  2F1C               	goto	u3037
  3257  0722  2F23               	nop2
  3258  0723                     l1804:
  3259                           
  3260                           ;C:/Users/danie/OneDrive/Desktop/DIGITAL2/proyecto3/musica.X/musica.c: 339:     if (RB7 
      +                          == 1 && RB6 == 0){
  3261  0723  1283               	bcf	3,5	;RP0=0, select bank0
  3262  0724  1303               	bcf	3,6	;RP1=0, select bank0
  3263  0725  1F86               	btfss	6,7	;volatile
  3264  0726  2F28               	goto	u2291
  3265  0727  2F29               	goto	u2290
  3266  0728                     u2291:
  3267  0728  2F5A               	goto	l141
  3268  0729                     u2290:
  3269  0729                     l1806:
  3270  0729  1B06               	btfsc	6,6	;volatile
  3271  072A  2F2C               	goto	u2301
  3272  072B  2F2D               	goto	u2300
  3273  072C                     u2301:
  3274  072C  2F5A               	goto	l141
  3275  072D                     u2300:
  3276  072D                     l1808:
  3277                           
  3278                           ;C:/Users/danie/OneDrive/Desktop/DIGITAL2/proyecto3/musica.X/musica.c: 340:             
      +                          for (int x = 0; x < 50; x++){
  3279  072D  01CA               	clrf	main@x_176
  3280  072E  01CB               	clrf	main@x_176+1
  3281  072F                     l1810:
  3282  072F  084B               	movf	main@x_176+1,w
  3283  0730  3A80               	xorlw	128
  3284  0731  00FF               	movwf	btemp+1
  3285  0732  3080               	movlw	128
  3286  0733  027F               	subwf	btemp+1,w
  3287  0734  1D03               	skipz
  3288  0735  2F38               	goto	u2315
  3289  0736  3032               	movlw	50
  3290  0737  024A               	subwf	main@x_176,w
  3291  0738                     u2315:
  3292  0738  1C03               	skipc
  3293  0739  2F3B               	goto	u2311
  3294  073A  2F3C               	goto	u2310
  3295  073B                     u2311:
  3296  073B  2F3D               	goto	l142
  3297  073C                     u2310:
  3298  073C  2F5A               	goto	l141
  3299  073D                     l142:
  3300                           
  3301                           ;C:/Users/danie/OneDrive/Desktop/DIGITAL2/proyecto3/musica.X/musica.c: 341:             
      +                              PORTCbits.RC4 = 1;
  3302  073D  1283               	bcf	3,5	;RP0=0, select bank0
  3303  073E  1303               	bcf	3,6	;RP1=0, select bank0
  3304  073F  1607               	bsf	7,4	;volatile
  3305  0740                     l1814:
  3306                           
  3307                           ;C:/Users/danie/OneDrive/Desktop/DIGITAL2/proyecto3/musica.X/musica.c: 342:             
      +                              _delay((unsigned long)((405)*(8000000/4000000.0)));
  3308  0740  30A1               	movlw	161
  3309  0741  00FB               	movwf	??_main
  3310  0742                     u3047:
  3311  0742  2F43               	nop2
  3312  0743  0BFB               	decfsz	??_main,f
  3313  0744  2F42               	goto	u3047
  3314  0745  2F46               	nop2
  3315  0746  2F47               	nop2
  3316  0747                     l1816:
  3317                           
  3318                           ;C:/Users/danie/OneDrive/Desktop/DIGITAL2/proyecto3/musica.X/musica.c: 343:             
      +                              PORTCbits.RC4 = 0;
  3319  0747  1283               	bcf	3,5	;RP0=0, select bank0
  3320  0748  1303               	bcf	3,6	;RP1=0, select bank0
  3321  0749  1207               	bcf	7,4	;volatile
  3322                           
  3323                           ;C:/Users/danie/OneDrive/Desktop/DIGITAL2/proyecto3/musica.X/musica.c: 344:             
      +                              _delay((unsigned long)((405)*(8000000/4000000.0)));
  3324  074A  30A1               	movlw	161
  3325  074B  00FB               	movwf	??_main
  3326  074C                     u3057:
  3327  074C  2F4D               	nop2
  3328  074D  0BFB               	decfsz	??_main,f
  3329  074E  2F4C               	goto	u3057
  3330  074F  2F50               	nop2
  3331  0750  2F51               	nop2
  3332                           
  3333                           ;C:/Users/danie/OneDrive/Desktop/DIGITAL2/proyecto3/musica.X/musica.c: 345:             
      +                          }
  3334  0751  3001               	movlw	1
  3335  0752  1283               	bcf	3,5	;RP0=0, select bank0
  3336  0753  1303               	bcf	3,6	;RP1=0, select bank0
  3337  0754  07CA               	addwf	main@x_176,f
  3338  0755  1803               	skipnc
  3339  0756  0ACB               	incf	main@x_176+1,f
  3340  0757  3000               	movlw	0
  3341  0758  07CB               	addwf	main@x_176+1,f
  3342  0759  2F2F               	goto	l1810
  3343  075A                     l141:	
  3344                           ;C:/Users/danie/OneDrive/Desktop/DIGITAL2/proyecto3/musica.X/musica.c: 346:         }
  3345                           
  3346                           
  3347                           ;C:/Users/danie/OneDrive/Desktop/DIGITAL2/proyecto3/musica.X/musica.c: 347:     if (RB7 
      +                          == 1 && RB6 == 0){
  3348  075A  1283               	bcf	3,5	;RP0=0, select bank0
  3349  075B  1303               	bcf	3,6	;RP1=0, select bank0
  3350  075C  1F86               	btfss	6,7	;volatile
  3351  075D  2F5F               	goto	u2321
  3352  075E  2F60               	goto	u2320
  3353  075F                     u2321:
  3354  075F  2F71               	goto	l1824
  3355  0760                     u2320:
  3356  0760                     l1820:
  3357  0760  1B06               	btfsc	6,6	;volatile
  3358  0761  2F63               	goto	u2331
  3359  0762  2F64               	goto	u2330
  3360  0763                     u2331:
  3361  0763  2F71               	goto	l1824
  3362  0764                     u2330:
  3363  0764                     l1822:
  3364                           
  3365                           ;C:/Users/danie/OneDrive/Desktop/DIGITAL2/proyecto3/musica.X/musica.c: 348:             
      +                          _delay((unsigned long)((250)*(8000000/4000.0)));
  3366  0764  3003               	movlw	3
  3367  0765  00FD               	movwf	??_main+2
  3368  0766  308A               	movlw	138
  3369  0767  00FC               	movwf	??_main+1
  3370  0768  3055               	movlw	85
  3371  0769  00FB               	movwf	??_main
  3372  076A                     u3067:
  3373  076A  0BFB               	decfsz	??_main,f
  3374  076B  2F6A               	goto	u3067
  3375  076C  0BFC               	decfsz	??_main+1,f
  3376  076D  2F6A               	goto	u3067
  3377  076E  0BFD               	decfsz	??_main+2,f
  3378  076F  2F6A               	goto	u3067
  3379  0770  2F71               	nop2
  3380  0771                     l1824:
  3381                           
  3382                           ;C:/Users/danie/OneDrive/Desktop/DIGITAL2/proyecto3/musica.X/musica.c: 350:     if (RB7 
      +                          == 1 && RB6 == 0){
  3383  0771  1283               	bcf	3,5	;RP0=0, select bank0
  3384  0772  1303               	bcf	3,6	;RP1=0, select bank0
  3385  0773  1F86               	btfss	6,7	;volatile
  3386  0774  2F76               	goto	u2341
  3387  0775  2F77               	goto	u2340
  3388  0776                     u2341:
  3389  0776  2FA4               	goto	l145
  3390  0777                     u2340:
  3391  0777                     l1826:
  3392  0777  1B06               	btfsc	6,6	;volatile
  3393  0778  2F7A               	goto	u2351
  3394  0779  2F7B               	goto	u2350
  3395  077A                     u2351:
  3396  077A  2FA4               	goto	l145
  3397  077B                     u2350:
  3398  077B                     l1828:
  3399                           
  3400                           ;C:/Users/danie/OneDrive/Desktop/DIGITAL2/proyecto3/musica.X/musica.c: 351:             
      +                          for (int x = 0; x < 50; x++){
  3401  077B  01CC               	clrf	main@x_177
  3402  077C  01CD               	clrf	main@x_177+1
  3403  077D                     l1830:
  3404  077D  084D               	movf	main@x_177+1,w
  3405  077E  3A80               	xorlw	128
  3406  077F  00FF               	movwf	btemp+1
  3407  0780  3080               	movlw	128
  3408  0781  027F               	subwf	btemp+1,w
  3409  0782  1D03               	skipz
  3410  0783  2F86               	goto	u2365
  3411  0784  3032               	movlw	50
  3412  0785  024C               	subwf	main@x_177,w
  3413  0786                     u2365:
  3414  0786  1C03               	skipc
  3415  0787  2F89               	goto	u2361
  3416  0788  2F8A               	goto	u2360
  3417  0789                     u2361:
  3418  0789  2F8B               	goto	l146
  3419  078A                     u2360:
  3420  078A  2FA4               	goto	l145
  3421  078B                     l146:
  3422                           
  3423                           ;C:/Users/danie/OneDrive/Desktop/DIGITAL2/proyecto3/musica.X/musica.c: 352:             
      +                              PORTCbits.RC4 = 1;
  3424  078B  1283               	bcf	3,5	;RP0=0, select bank0
  3425  078C  1303               	bcf	3,6	;RP1=0, select bank0
  3426  078D  1607               	bsf	7,4	;volatile
  3427  078E                     l1834:
  3428                           
  3429                           ;C:/Users/danie/OneDrive/Desktop/DIGITAL2/proyecto3/musica.X/musica.c: 353:             
      +                              _delay((unsigned long)((202)*(8000000/4000000.0)));
  3430  078E  3086               	movlw	134
  3431  078F  00FB               	movwf	??_main
  3432  0790                     u3077:
  3433  0790  0BFB               	decfsz	??_main,f
  3434  0791  2F90               	goto	u3077
  3435  0792  0000               	nop
  3436  0793                     l1836:
  3437                           
  3438                           ;C:/Users/danie/OneDrive/Desktop/DIGITAL2/proyecto3/musica.X/musica.c: 354:             
      +                              PORTCbits.RC4 = 0;
  3439  0793  1283               	bcf	3,5	;RP0=0, select bank0
  3440  0794  1303               	bcf	3,6	;RP1=0, select bank0
  3441  0795  1207               	bcf	7,4	;volatile
  3442                           
  3443                           ;C:/Users/danie/OneDrive/Desktop/DIGITAL2/proyecto3/musica.X/musica.c: 355:             
      +                              _delay((unsigned long)((202)*(8000000/4000000.0)));
  3444  0796  3086               	movlw	134
  3445  0797  00FB               	movwf	??_main
  3446  0798                     u3087:
  3447  0798  0BFB               	decfsz	??_main,f
  3448  0799  2F98               	goto	u3087
  3449  079A  0000               	nop
  3450                           
  3451                           ;C:/Users/danie/OneDrive/Desktop/DIGITAL2/proyecto3/musica.X/musica.c: 356:             
      +                          }
  3452  079B  3001               	movlw	1
  3453  079C  1283               	bcf	3,5	;RP0=0, select bank0
  3454  079D  1303               	bcf	3,6	;RP1=0, select bank0
  3455  079E  07CC               	addwf	main@x_177,f
  3456  079F  1803               	skipnc
  3457  07A0  0ACD               	incf	main@x_177+1,f
  3458  07A1  3000               	movlw	0
  3459  07A2  07CD               	addwf	main@x_177+1,f
  3460  07A3  2F7D               	goto	l1830
  3461  07A4                     l145:	
  3462                           ;C:/Users/danie/OneDrive/Desktop/DIGITAL2/proyecto3/musica.X/musica.c: 357:         }
  3463                           
  3464                           
  3465                           ;C:/Users/danie/OneDrive/Desktop/DIGITAL2/proyecto3/musica.X/musica.c: 358:     if (RB7 
      +                          == 1 && RB6 == 0){
  3466  07A4  1283               	bcf	3,5	;RP0=0, select bank0
  3467  07A5  1303               	bcf	3,6	;RP1=0, select bank0
  3468  07A6  1F86               	btfss	6,7	;volatile
  3469  07A7  2FA9               	goto	u2371
  3470  07A8  2FAA               	goto	u2370
  3471  07A9                     u2371:
  3472  07A9  2FBB               	goto	l149
  3473  07AA                     u2370:
  3474  07AA                     l1840:
  3475  07AA  1B06               	btfsc	6,6	;volatile
  3476  07AB  2FAD               	goto	u2381
  3477  07AC  2FAE               	goto	u2380
  3478  07AD                     u2381:
  3479  07AD  2FBB               	goto	l149
  3480  07AE                     u2380:
  3481  07AE                     l1842:
  3482                           
  3483                           ;C:/Users/danie/OneDrive/Desktop/DIGITAL2/proyecto3/musica.X/musica.c: 359:             
      +                          _delay((unsigned long)((500)*(8000000/4000.0)));
  3484  07AE  3006               	movlw	6
  3485  07AF  00FD               	movwf	??_main+2
  3486  07B0  3013               	movlw	19
  3487  07B1  00FC               	movwf	??_main+1
  3488  07B2  30AD               	movlw	173
  3489  07B3  00FB               	movwf	??_main
  3490  07B4                     u3097:
  3491  07B4  0BFB               	decfsz	??_main,f
  3492  07B5  2FB4               	goto	u3097
  3493  07B6  0BFC               	decfsz	??_main+1,f
  3494  07B7  2FB4               	goto	u3097
  3495  07B8  0BFD               	decfsz	??_main+2,f
  3496  07B9  2FB4               	goto	u3097
  3497  07BA  2FBB               	nop2
  3498  07BB                     l149:
  3499  07BB  120A  118A  2800   	ljmp	start
  3500  07BE                     __end_of_main:
  3501                           
  3502                           	psect	text1
  3503  001E                     __ptext1:	
  3504 ;; *************** function _Setup *****************
  3505 ;; Defined at:
  3506 ;;		line 367 in file "C:/Users/danie/OneDrive/Desktop/DIGITAL2/proyecto3/musica.X/musica.c"
  3507 ;; Parameters:    Size  Location     Type
  3508 ;;		None
  3509 ;; Auto vars:     Size  Location     Type
  3510 ;;		None
  3511 ;; Return value:  Size  Location     Type
  3512 ;;                  1    wreg      void 
  3513 ;; Registers used:
  3514 ;;		wreg, fsr0l, fsr0h, status,2, status,0, pclath, cstack
  3515 ;; Tracked objects:
  3516 ;;		On entry : 0/0
  3517 ;;		On exit  : 0/0
  3518 ;;		Unchanged: 0/0
  3519 ;; Data sizes:     COMMON   BANK0   BANK1   BANK3   BANK2
  3520 ;;      Params:         0       0       0       0       0
  3521 ;;      Locals:         0       0       0       0       0
  3522 ;;      Temps:          0       0       0       0       0
  3523 ;;      Totals:         0       0       0       0       0
  3524 ;;Total ram usage:        0 bytes
  3525 ;; Hardware stack levels used:    1
  3526 ;; Hardware stack levels required when called:    1
  3527 ;; This function calls:
  3528 ;;		_initOsc
  3529 ;; This function is called by:
  3530 ;;		_main
  3531 ;; This function uses a non-reentrant model
  3532 ;;
  3533                           
  3534                           
  3535                           ;psect for function _Setup
  3536  001E                     _Setup:
  3537  001E                     l1338:	
  3538                           ;incstack = 0
  3539                           ; Regs used in _Setup: [wreg-fsr0h+status,2+status,0+pclath+cstack]
  3540                           
  3541                           
  3542                           ;C:/Users/danie/OneDrive/Desktop/DIGITAL2/proyecto3/musica.X/musica.c: 368:     initOsc(
      +                          7);
  3543  001E  3007               	movlw	7
  3544  001F  120A  118A  2041  120A  118A  	fcall	_initOsc
  3545  0024                     l1340:
  3546                           
  3547                           ;C:/Users/danie/OneDrive/Desktop/DIGITAL2/proyecto3/musica.X/musica.c: 369:     TRISC = 
      +                          0;
  3548  0024  1683               	bsf	3,5	;RP0=1, select bank1
  3549  0025  1303               	bcf	3,6	;RP1=0, select bank1
  3550  0026  0187               	clrf	7	;volatile
  3551  0027                     l1342:
  3552                           
  3553                           ;C:/Users/danie/OneDrive/Desktop/DIGITAL2/proyecto3/musica.X/musica.c: 370:     PORTC = 
      +                          0;
  3554  0027  1283               	bcf	3,5	;RP0=0, select bank0
  3555  0028  1303               	bcf	3,6	;RP1=0, select bank0
  3556  0029  0187               	clrf	7	;volatile
  3557  002A                     l1344:
  3558                           
  3559                           ;C:/Users/danie/OneDrive/Desktop/DIGITAL2/proyecto3/musica.X/musica.c: 371:     TRISD = 
      +                          0;
  3560  002A  1683               	bsf	3,5	;RP0=1, select bank1
  3561  002B  1303               	bcf	3,6	;RP1=0, select bank1
  3562  002C  0188               	clrf	8	;volatile
  3563  002D                     l1346:
  3564                           
  3565                           ;C:/Users/danie/OneDrive/Desktop/DIGITAL2/proyecto3/musica.X/musica.c: 372:     PORTD = 
      +                          0;
  3566  002D  1283               	bcf	3,5	;RP0=0, select bank0
  3567  002E  1303               	bcf	3,6	;RP1=0, select bank0
  3568  002F  0188               	clrf	8	;volatile
  3569  0030                     l1348:
  3570                           
  3571                           ;C:/Users/danie/OneDrive/Desktop/DIGITAL2/proyecto3/musica.X/musica.c: 373:     ANSEL = 
      +                          0;
  3572  0030  1683               	bsf	3,5	;RP0=1, select bank3
  3573  0031  1703               	bsf	3,6	;RP1=1, select bank3
  3574  0032  0188               	clrf	8	;volatile
  3575  0033                     l1350:
  3576                           
  3577                           ;C:/Users/danie/OneDrive/Desktop/DIGITAL2/proyecto3/musica.X/musica.c: 374:     ANSELH =
      +                           0;
  3578  0033  0189               	clrf	9	;volatile
  3579  0034                     l1352:
  3580                           
  3581                           ;C:/Users/danie/OneDrive/Desktop/DIGITAL2/proyecto3/musica.X/musica.c: 375:     TRISBbit
      +                          s.TRISB7 = 1;
  3582  0034  1683               	bsf	3,5	;RP0=1, select bank1
  3583  0035  1303               	bcf	3,6	;RP1=0, select bank1
  3584  0036  1786               	bsf	6,7	;volatile
  3585  0037                     l1354:
  3586                           
  3587                           ;C:/Users/danie/OneDrive/Desktop/DIGITAL2/proyecto3/musica.X/musica.c: 376:     TRISBbit
      +                          s.TRISB6 = 1;
  3588  0037  1706               	bsf	6,6	;volatile
  3589  0038                     l1356:
  3590                           
  3591                           ;C:/Users/danie/OneDrive/Desktop/DIGITAL2/proyecto3/musica.X/musica.c: 377:     TRISBbit
      +                          s.TRISB5 = 1;
  3592  0038  1686               	bsf	6,5	;volatile
  3593  0039                     l1358:
  3594                           
  3595                           ;C:/Users/danie/OneDrive/Desktop/DIGITAL2/proyecto3/musica.X/musica.c: 378:     TRISBbit
      +                          s.TRISB4 = 1;
  3596  0039  1606               	bsf	6,4	;volatile
  3597  003A                     l1360:
  3598                           
  3599                           ;C:/Users/danie/OneDrive/Desktop/DIGITAL2/proyecto3/musica.X/musica.c: 379:     TRISBbit
      +                          s.TRISB3 = 1;
  3600  003A  1586               	bsf	6,3	;volatile
  3601  003B                     l1362:
  3602                           
  3603                           ;C:/Users/danie/OneDrive/Desktop/DIGITAL2/proyecto3/musica.X/musica.c: 380:     TRISBbit
      +                          s.TRISB2 = 1;
  3604  003B  1506               	bsf	6,2	;volatile
  3605  003C                     l1364:
  3606                           
  3607                           ;C:/Users/danie/OneDrive/Desktop/DIGITAL2/proyecto3/musica.X/musica.c: 381:     TRISBbit
      +                          s.TRISB1 = 1;
  3608  003C  1486               	bsf	6,1	;volatile
  3609  003D                     l1366:
  3610                           
  3611                           ;C:/Users/danie/OneDrive/Desktop/DIGITAL2/proyecto3/musica.X/musica.c: 383:     TRISAbit
      +                          s.TRISA7 = 0;
  3612  003D  1385               	bcf	5,7	;volatile
  3613  003E                     l1368:
  3614                           
  3615                           ;C:/Users/danie/OneDrive/Desktop/DIGITAL2/proyecto3/musica.X/musica.c: 384:     TRISAbit
      +                          s.TRISA6 = 0;
  3616  003E  1305               	bcf	5,6	;volatile
  3617  003F                     l1370:
  3618                           
  3619                           ;C:/Users/danie/OneDrive/Desktop/DIGITAL2/proyecto3/musica.X/musica.c: 385:     OPTION_R
      +                          EGbits.nRBPU=0;
  3620  003F  1381               	bcf	1,7	;volatile
  3621  0040                     l152:
  3622  0040  0008               	return
  3623  0041                     __end_of_Setup:
  3624                           
  3625                           	psect	text2
  3626  0041                     __ptext2:	
  3627 ;; *************** function _initOsc *****************
  3628 ;; Defined at:
  3629 ;;		line 4 in file "Osc.c"
  3630 ;; Parameters:    Size  Location     Type
  3631 ;;  IRCF            1    wreg     unsigned char 
  3632 ;; Auto vars:     Size  Location     Type
  3633 ;;  IRCF            1    2[COMMON] unsigned char 
  3634 ;; Return value:  Size  Location     Type
  3635 ;;                  1    wreg      void 
  3636 ;; Registers used:
  3637 ;;		wreg, fsr0l, fsr0h, status,2, status,0
  3638 ;; Tracked objects:
  3639 ;;		On entry : 0/0
  3640 ;;		On exit  : 0/0
  3641 ;;		Unchanged: 0/0
  3642 ;; Data sizes:     COMMON   BANK0   BANK1   BANK3   BANK2
  3643 ;;      Params:         0       0       0       0       0
  3644 ;;      Locals:         1       0       0       0       0
  3645 ;;      Temps:          2       0       0       0       0
  3646 ;;      Totals:         3       0       0       0       0
  3647 ;;Total ram usage:        3 bytes
  3648 ;; Hardware stack levels used:    1
  3649 ;; This function calls:
  3650 ;;		Nothing
  3651 ;; This function is called by:
  3652 ;;		_Setup
  3653 ;; This function uses a non-reentrant model
  3654 ;;
  3655                           
  3656                           
  3657                           ;psect for function _initOsc
  3658  0041                     _initOsc:
  3659                           
  3660                           ;incstack = 0
  3661                           ; Regs used in _initOsc: [wreg-fsr0h+status,2+status,0]
  3662                           ;initOsc@IRCF stored from wreg
  3663  0041  00FA               	movwf	initOsc@IRCF
  3664  0042                     l1312:
  3665                           
  3666                           ;Osc.c: 5:     switch(IRCF){
  3667  0042  2879               	goto	l1332
  3668  0043                     l1314:
  3669                           
  3670                           ;Osc.c: 8:             OSCCONbits.IRCF = 000;
  3671  0043  308F               	movlw	-113
  3672  0044  1683               	bsf	3,5	;RP0=1, select bank1
  3673  0045  1303               	bcf	3,6	;RP1=0, select bank1
  3674  0046  058F               	andwf	15,f	;volatile
  3675                           
  3676                           ;Osc.c: 9:             break;
  3677  0047  289B               	goto	l159
  3678  0048                     l160:	
  3679                           ;Osc.c: 10:         case 1:
  3680                           
  3681                           
  3682                           ;Osc.c: 11:             OSCCONbits.IRCF2 = 0;
  3683  0048  1683               	bsf	3,5	;RP0=1, select bank1
  3684  0049  1303               	bcf	3,6	;RP1=0, select bank1
  3685  004A  130F               	bcf	15,6	;volatile
  3686                           
  3687                           ;Osc.c: 12:             OSCCONbits.IRCF1 = 0;
  3688  004B  128F               	bcf	15,5	;volatile
  3689                           
  3690                           ;Osc.c: 13:             OSCCONbits.IRCF0 = 1;
  3691  004C  160F               	bsf	15,4	;volatile
  3692                           
  3693                           ;Osc.c: 14:             break;
  3694  004D  289B               	goto	l159
  3695  004E                     l1316:
  3696                           
  3697                           ;Osc.c: 16:             OSCCONbits.IRCF = 010;
  3698  004E  308F               	movlw	-113
  3699  004F  1683               	bsf	3,5	;RP0=1, select bank1
  3700  0050  1303               	bcf	3,6	;RP1=0, select bank1
  3701  0051  058F               	andwf	15,f	;volatile
  3702                           
  3703                           ;Osc.c: 17:             break;
  3704  0052  289B               	goto	l159
  3705  0053                     l1318:
  3706                           
  3707                           ;Osc.c: 19:             OSCCONbits.IRCF = 011;
  3708  0053  1683               	bsf	3,5	;RP0=1, select bank1
  3709  0054  1303               	bcf	3,6	;RP1=0, select bank1
  3710  0055  080F               	movf	15,w	;volatile
  3711  0056  398F               	andlw	-113
  3712  0057  3810               	iorlw	16
  3713  0058  008F               	movwf	15	;volatile
  3714                           
  3715                           ;Osc.c: 20:             break;
  3716  0059  289B               	goto	l159
  3717  005A                     l1320:
  3718                           
  3719                           ;Osc.c: 22:             OSCCONbits.IRCF = 100;
  3720  005A  1683               	bsf	3,5	;RP0=1, select bank1
  3721  005B  1303               	bcf	3,6	;RP1=0, select bank1
  3722  005C  080F               	movf	15,w	;volatile
  3723  005D  398F               	andlw	-113
  3724  005E  3840               	iorlw	64
  3725  005F  008F               	movwf	15	;volatile
  3726                           
  3727                           ;Osc.c: 23:             break;
  3728  0060  289B               	goto	l159
  3729  0061                     l1322:
  3730                           
  3731                           ;Osc.c: 25:             OSCCONbits.IRCF = 101;
  3732  0061  1683               	bsf	3,5	;RP0=1, select bank1
  3733  0062  1303               	bcf	3,6	;RP1=0, select bank1
  3734  0063  080F               	movf	15,w	;volatile
  3735  0064  398F               	andlw	-113
  3736  0065  3850               	iorlw	80
  3737  0066  008F               	movwf	15	;volatile
  3738                           
  3739                           ;Osc.c: 26:             break;
  3740  0067  289B               	goto	l159
  3741  0068                     l1324:
  3742                           
  3743                           ;Osc.c: 28:             OSCCONbits.IRCF = 110;
  3744  0068  1683               	bsf	3,5	;RP0=1, select bank1
  3745  0069  1303               	bcf	3,6	;RP1=0, select bank1
  3746  006A  080F               	movf	15,w	;volatile
  3747  006B  398F               	andlw	-113
  3748  006C  3860               	iorlw	96
  3749  006D  008F               	movwf	15	;volatile
  3750                           
  3751                           ;Osc.c: 29:             break;
  3752  006E  289B               	goto	l159
  3753  006F                     l1326:
  3754                           
  3755                           ;Osc.c: 31:             OSCCONbits.IRCF = 111;
  3756  006F  3070               	movlw	112
  3757  0070  1683               	bsf	3,5	;RP0=1, select bank1
  3758  0071  1303               	bcf	3,6	;RP1=0, select bank1
  3759  0072  048F               	iorwf	15,f	;volatile
  3760                           
  3761                           ;Osc.c: 32:             break;
  3762  0073  289B               	goto	l159
  3763  0074                     l1328:
  3764                           
  3765                           ;Osc.c: 34:             OSCCONbits.IRCF = 111;
  3766  0074  3070               	movlw	112
  3767  0075  1683               	bsf	3,5	;RP0=1, select bank1
  3768  0076  1303               	bcf	3,6	;RP1=0, select bank1
  3769  0077  048F               	iorwf	15,f	;volatile
  3770                           
  3771                           ;Osc.c: 35:             break;
  3772  0078  289B               	goto	l159
  3773  0079                     l1332:
  3774  0079  087A               	movf	initOsc@IRCF,w
  3775  007A  00F8               	movwf	??_initOsc
  3776  007B  01F9               	clrf	??_initOsc+1
  3777                           
  3778                           ; Switch on 2 bytes has been partitioned into a top level switch of size 1, and 1 sub-sw
      +                          itches
  3779                           ; Switch size 1, requested type "simple"
  3780                           ; Number of cases is 1, Range of values is 0 to 0
  3781                           ; switch strategies available:
  3782                           ; Name         Instructions Cycles
  3783                           ; simple_byte            4     3 (average)
  3784                           ; direct_byte           11     8 (fixed)
  3785                           ; jumptable            260     6 (fixed)
  3786                           ;	Chosen strategy is simple_byte
  3787  007C  0879               	movf	??_initOsc+1,w
  3788  007D  3A00               	xorlw	0	; case 0
  3789  007E  1903               	skipnz
  3790  007F  2881               	goto	l1864
  3791  0080  2874               	goto	l1328
  3792  0081                     l1864:
  3793                           
  3794                           ; Switch size 1, requested type "simple"
  3795                           ; Number of cases is 8, Range of values is 0 to 7
  3796                           ; switch strategies available:
  3797                           ; Name         Instructions Cycles
  3798                           ; simple_byte           25    13 (average)
  3799                           ; direct_byte           32     8 (fixed)
  3800                           ; jumptable            260     6 (fixed)
  3801                           ;	Chosen strategy is simple_byte
  3802  0081  0878               	movf	??_initOsc,w
  3803  0082  3A00               	xorlw	0	; case 0
  3804  0083  1903               	skipnz
  3805  0084  2843               	goto	l1314
  3806  0085  3A01               	xorlw	1	; case 1
  3807  0086  1903               	skipnz
  3808  0087  2848               	goto	l160
  3809  0088  3A03               	xorlw	3	; case 2
  3810  0089  1903               	skipnz
  3811  008A  284E               	goto	l1316
  3812  008B  3A01               	xorlw	1	; case 3
  3813  008C  1903               	skipnz
  3814  008D  2853               	goto	l1318
  3815  008E  3A07               	xorlw	7	; case 4
  3816  008F  1903               	skipnz
  3817  0090  285A               	goto	l1320
  3818  0091  3A01               	xorlw	1	; case 5
  3819  0092  1903               	skipnz
  3820  0093  2861               	goto	l1322
  3821  0094  3A03               	xorlw	3	; case 6
  3822  0095  1903               	skipnz
  3823  0096  2868               	goto	l1324
  3824  0097  3A01               	xorlw	1	; case 7
  3825  0098  1903               	skipnz
  3826  0099  286F               	goto	l1326
  3827  009A  2874               	goto	l1328
  3828  009B                     l159:
  3829                           
  3830                           ;Osc.c: 37:     OSCCONbits.SCS = 1;
  3831  009B  140F               	bsf	15,0	;volatile
  3832  009C                     l168:
  3833  009C  0008               	return
  3834  009D                     __end_of_initOsc:
  3835  007E                     btemp	set	126	;btemp
  3836  007E                     wtemp0	set	126
  3837                           
  3838                           	psect	config
  3839                           
  3840                           ;Config register CONFIG1 @ 0x2007
  3841                           ;	Oscillator Selection bits
  3842                           ;	FOSC = INTRC_NOCLKOUT, INTOSCIO oscillator: I/O function on RA6/OSC2/CLKOUT pin, I/O f
      +                          unction on RA7/OSC1/CLKIN
  3843                           ;	Watchdog Timer Enable bit
  3844                           ;	WDTE = OFF, WDT disabled and can be enabled by SWDTEN bit of the WDTCON register
  3845                           ;	Power-up Timer Enable bit
  3846                           ;	PWRTE = OFF, PWRT disabled
  3847                           ;	RE3/MCLR pin function select bit
  3848                           ;	MCLRE = OFF, RE3/MCLR pin function is digital input, MCLR internally tied to VDD
  3849                           ;	Code Protection bit
  3850                           ;	CP = OFF, Program memory code protection is disabled
  3851                           ;	Data Code Protection bit
  3852                           ;	CPD = OFF, Data memory code protection is disabled
  3853                           ;	Brown Out Reset Selection bits
  3854                           ;	BOREN = OFF, BOR disabled
  3855                           ;	Internal External Switchover bit
  3856                           ;	IESO = OFF, Internal/External Switchover mode is disabled
  3857                           ;	Fail-Safe Clock Monitor Enabled bit
  3858                           ;	FCMEN = OFF, Fail-Safe Clock Monitor is disabled
  3859                           ;	Low Voltage Programming Enable bit
  3860                           ;	LVP = OFF, RB3 pin has digital I/O, HV on MCLR must be used for programming
  3861                           ;	In-Circuit Debugger Mode bit
  3862                           ;	DEBUG = 0x1, unprogrammed default
  3863  2007                     	org	8199
  3864  2007  20D4               	dw	8404
  3865                           
  3866                           ;Config register CONFIG2 @ 0x2008
  3867                           ;	Brown-out Reset Selection bit
  3868                           ;	BOR4V = BOR40V, Brown-out Reset set to 4.0V
  3869                           ;	Flash Program Memory Self Write Enable bits
  3870                           ;	WRT = OFF, Write protection off
  3871  2008                     	org	8200
  3872  2008  3FFF               	dw	16383

Data Sizes:
    Strings     0
    Constant    0
    Data        32
    BSS         0
    Persistent  0
    Stack       0

Auto Spaces:
    Space          Size  Autos    Used
    COMMON           14      6      14
    BANK0            80     46      70
    BANK1            80      0       0
    BANK3            96      0       0
    BANK2            96      0       0

Pointer List with Targets:

    None.

Critical Paths under _main in COMMON

    _Setup->_initOsc

Critical Paths under _main in BANK0

    None.

Critical Paths under _main in BANK1

    None.

Critical Paths under _main in BANK3

    None.

Critical Paths under _main in BANK2

    None.

Call Graph Tables:

 ---------------------------------------------------------------------------------
 (Depth) Function   	        Calls       Base Space   Used Autos Params    Refs
 ---------------------------------------------------------------------------------
 (0) _main                                                49    49      0    1080
                                              3 COMMON     3     3      0
                                              0 BANK0     46    46      0
                              _Setup
 ---------------------------------------------------------------------------------
 (1) _Setup                                                0     0      0      22
                            _initOsc
 ---------------------------------------------------------------------------------
 (2) _initOsc                                              3     3      0      22
                                              0 COMMON     3     3      0
 ---------------------------------------------------------------------------------
 Estimated maximum stack depth 2
 ---------------------------------------------------------------------------------

 Call Graph Graphs:

 _main (ROOT)
   _Setup
     _initOsc

 Address spaces:
Name               Size   Autos  Total    Cost      Usage
BANK3               60      0       0       9        0.0%
BITBANK3            60      0       0       8        0.0%
SFR3                 0      0       0       4        0.0%
BITSFR3              0      0       0       4        0.0%
BANK2               60      0       0      11        0.0%
BITBANK2            60      0       0      10        0.0%
SFR2                 0      0       0       5        0.0%
BITSFR2              0      0       0       5        0.0%
BANK1               50      0       0       7        0.0%
BITBANK1            50      0       0       6        0.0%
SFR1                 0      0       0       2        0.0%
BITSFR1              0      0       0       2        0.0%
BANK0               50     2E      46       5       87.5%
BITBANK0            50      0       0       4        0.0%
SFR0                 0      0       0       1        0.0%
BITSFR0              0      0       0       1        0.0%
COMMON               E      6       E       1      100.0%
BITCOMMON            E      0       0       0        0.0%
CODE                 0      0       0       0        0.0%
DATA                 0      0      54      12        0.0%
ABS                  0      0      54       3        0.0%
NULL                 0      0       0       0        0.0%
STACK                0      0       0       2        0.0%
EEDATA             100      0       0       0        0.0%


Microchip Technology PIC Macro Assembler V2.31 build 20201012212115 
Symbol Table                                                                                   Thu Apr 22 21:35:40 2021

                      pc 0002                       _A4 0056                       _B4 0052  
                     _C4 0074                       _C5 004E                       _D4 0070  
                     _E4 0062                       _F4 005E                       _G4 005A  
                     l52 00A3                       l61 014F                       l70 01C2  
                     l62 0122                       l55 00BF                       l56 00C8  
                     l81 02E2                       l73 0240                       l65 019F  
                     l57 00FF                       l90 0363                       l82 02C1  
                     l74 021F                       l66 0172                       l58 00D2  
                     l93 03CB                       l85 0333                       l77 0291  
                     l69 01EF                       l94 03B2                       l86 0312  
                     l78 0270                       l97 0414                       l89 0382  
                     l98 03FB                       fsr 0004                      l101 0463  
                    l110 04DC                      l102 0444                      l121 05E8  
                    l113 054C                      l105 04AC                      l130 0661  
                    l122 05C7                      l114 052B                      l106 0493  
                    l141 075A                      l133 06C4                      l125 0631  
                    l117 0597                      l109 04FB                      l142 073D  
                    l134 06A9                      l126 0618                      l118 057C  
                    l160 0048                      l152 0040                      l145 07A4  
                    l137 070C                      l129 0678                      l146 078B  
                    l138 06F5                      l149 07BB                      l159 009B  
                    l168 009C                      _RB6 0036                      _RB7 0037  
                    indf 0000                     l1320 005A                     l1312 0042  
                   l1400 0105                     l1322 0061                     l1314 0043  
                   l1402 0109                     l1324 0068                     l1316 004E  
                   l1332 0079                     l1340 0024                     l1500 0297  
                   l1420 0155                     l1404 0116                     l1326 006F  
                   l1318 0053                     l1350 0033                     l1342 0027  
                   l1510 02B3                     l1502 029B                     l1422 0159  
                   l1414 0125                     l1406 011C                     l1328 0074  
                   l1360 003A                     l1352 0034                     l1344 002A  
                   l1600 041A                     l1520 02E8                     l1504 02A7  
                   l1440 01A5                     l1424 0166                     l1416 012E  
                   l1408 0120                     l1370 003F                     l1362 003B  
                   l1354 0037                     l1346 002D                     l1338 001E  
                   l1610 0436                     l1602 041E                     l1530 0304  
                   l1522 02EC                     l1514 02C4                     l1506 02AD  
                   l1442 01A9                     l1434 0175                     l1426 016C  
                   l1418 0142                     l1364 003C                     l1356 0038  
                   l1348 0030                     l1700 059D                     l1620 0469  
                   l1604 042A                     l1540 0339                     l1524 02F8  
                   l1516 02CD                     l1508 02B1                     l1460 01F5  
                   l1444 01B6                     l1436 017E                     l1428 0170  
                   l1380 00BB                     l1372 009D                     l1366 003D  
                   l1358 0039                     l1710 05B9                     l1702 05A1  
                   l1630 0485                     l1622 046D                     l1614 0447  
                   l1606 0430                     l1550 0355                     l1542 033D  
                   l1534 0315                     l1526 02FE                     l1470 0211  
                   l1462 01F9                     l1454 01C5                     l1446 01BC  
                   l1438 0192                     l1382 00C3                     l1374 00A4  
                   l1368 003E                     l1800 0712                     l1720 05EE  
                   l1704 05AD                     l1640 04B2                     l1624 0479  
                   l1616 044F                     l1608 0434                     l1560 0388  
                   l1544 0349                     l1536 031E                     l1528 0302  
                   l1480 0246                     l1464 0205                     l1456 01CE  
                   l1448 01C0                     l1384 00C7                     l1376 00AB  
                   l1810 072F                     l1802 0716                     l1730 060A  
                   l1722 05F2                     l1714 05CA                     l1706 05B3  
                   l1650 04CE                     l1642 04B6                     l1634 0496  
                   l1626 047F                     l1570 03A4                     l1562 038C  
                   l1554 0366                     l1546 034F                     l1490 0262  
                   l1482 024A                     l1474 0222                     l1466 020B  
                   l1458 01E2                     l1394 00D5                     l1386 00CC  
                   l1378 00B5                     l1820 0760                     l1804 0723  
                   l1740 0637                     l1724 05FE                     l1716 05D3  
                   l1708 05B7                     l1660 0501                     l1644 04C2  
                   l1636 049B                     l1628 0483                     l1580 03D1  
                   l1564 0398                     l1556 036E                     l1548 0353  
                   l1484 0256                     l1476 022B                     l1468 020F  
                   l1396 00DE                     l1388 00D0                     l1830 077D  
                   l1822 0764                     l1814 0740                     l1806 0729  
                   l1750 0653                     l1742 063B                     l1734 061B  
                   l1726 0604                     l1670 051D                     l1662 0505  
                   l1654 04DF                     l1646 04C8                     l1590 03ED  
                   l1582 03D5                     l1574 03B5                     l1566 039E  
                   l1494 0273                     l1486 025C                     l1398 00F2  
                   l1840 07AA                     l1824 0771                     l1816 0747  
                   l1808 072D                     l1760 067E                     l1744 0647  
                   l1736 0620                     l1728 0608                     l1680 0552  
                   l1664 0511                     l1656 04E7                     l1648 04CC  
                   l1584 03E1                     l1576 03BA                     l1568 03A2  
                   l1496 027C                     l1488 0260                     l1842 07AE  
                   l1834 078E                     l1826 0777                     l1770 069B  
                   l1762 0682                     l1754 0664                     l1746 064D  
                   l1690 056E                     l1682 0556                     l1674 052E  
                   l1666 0517                     l1594 03FE                     l1586 03E7  
                   l1836 0793                     l1828 077B                     l1780 06CA  
                   l1764 068F                     l1756 0668                     l1748 0651  
                   l1684 0562                     l1676 0537                     l1668 051B  
                   l1596 0403                     l1588 03EB                     l1790 06E7  
                   l1782 06CE                     l1774 06AC                     l1766 0695  
                   l1694 057F                     l1686 0568                     l1864 0081  
                   l1784 06DB                     l1776 06B2                     l1768 0699  
                   l1696 0585                     l1688 056C                     l1794 06F8  
                   l1786 06E1                     l1796 06FC                     l1788 06E5  
                   u2000 056C                     u1200 00BB                     u2001 056B  
                   u1201 00BA                     u2010 057B                     u1210 00BF  
                   u2011 057A                     u1211 00BE                     u2100 0608  
                   u2020 059D                     u1300 0120                     u1220 00C3  
                   u2101 0607                     u2021 059C                     u1301 011F  
                   u1221 00C2                     u2110 0617                     u2030 05A1  
                   u1310 014F                     u1230 00C7                     u2111 0616  
                   u2031 05A0                     u2015 0577                     u1311 014E  
                   u1231 00C6                     u2200 0699                     u2120 0637  
                   u2040 05B3                     u1400 01C0                     u1320 0155  
                   u1240 00CC                     u2201 0698                     u2121 0636  
                   u2041 05B2                     u1401 01BF                     u1321 0154  
                   u1241 00CB                     u2210 06A8                     u2130 063B  
                   u2050 05B7                     u1410 01EF                     u1330 0159  
                   u1250 00D0                     u2211 06A7                     u2131 063A  
                   u2115 0613                     u2051 05B6                     u1411 01EE  
                   u1331 0158                     u1315 014B                     u1251 00CF  
                   u2300 072D                     u2220 06CA                     u2140 064D  
                   u2060 05C6                     u1500 0260                     u1420 01F5  
                   u1340 016C                     u1260 00FF                     u2301 072C  
                   u2221 06C9                     u2141 064C                     u2061 05C5  
                   u1501 025F                     u1421 01F4                     u1341 016B  
                   u1261 00FE                     u2310 073C                     u2230 06CE  
                   u2150 0651                     u2070 05EE                     u1510 026F  
                   u1430 01F9                     u1350 0170                     u1270 0105  
                   u2311 073B                     u3007 06D4                     u2231 06CD  
                   u2215 06A4                     u2151 0650                     u2071 05ED  
                   u1511 026E                     u1431 01F8                     u1415 01EB  
                   u1351 016F                     u1271 0104                     u2320 0760  
                   u2240 06E1                     u2160 0660                     u2080 05F2  
                   u1600 0302                     u1520 0297                     u1440 020B  
                   u1360 019F                     u1280 0109                     u2321 075F  
                   u3017 06FA                     u2241 06E0                     u2161 065F  
                   u2081 05F1                     u2065 05C2                     u1601 0301  
                   u1521 0296                     u1441 020A                     u1361 019E  
                   u1281 0108                     u1265 00FB                     u2330 0764  
                   u2250 06E5                     u2170 067E                     u2090 0604  
                   u1610 0311                     u1530 029B                     u1450 020F  
                   u1370 01A5                     u1290 011C                     u2331 0763  
                   u2315 0738                     u3027 0701                     u2251 06E4  
                   u2171 067D                     u2091 0603                     u1611 0310  
                   u1531 029A                     u1515 026B                     u1451 020E  
                   u1371 01A4                     u1291 011B                     u2340 0777  
                   u2260 06F4                     u2180 0682                     u1700 03A2  
                   u1620 0339                     u1540 02AD                     u1460 021E  
                   u1380 01A9                     u2341 0776                     u3037 071C  
                   u2261 06F3                     u2181 0681                     u2165 065C  
                   u1701 03A1                     u1621 0338                     u1541 02AC  
                   u1461 021D                     u1381 01A8                     u1365 019B  
                   u2350 077B                     u2270 0712                     u2190 0695  
                   u1710 03B1                     u1630 033D                     u1550 02B1  
                   u1470 0246                     u1390 01BC                     u2351 077A  
                   u3047 0742                     u2271 0711                     u2191 0694  
                   u1711 03B0                     u1631 033C                     u1615 030D  
                   u1551 02B0                     u1471 0245                     u1391 01BB  
                   u2407 00B0                     u2360 078A                     u2280 0716  
                   u1800 0434                     u1720 03D1                     u1640 034F  
                   u1560 02C0                     u1480 024A                     u2361 0789  
                   u3057 074C                     u2281 0715                     u2265 06F0  
                   u1801 0433                     u1721 03D0                     u1641 034E  
                   u1561 02BF                     u1481 0249                     u1465 021A  
                   u2417 00D9                     u2370 07AA                     u2290 0729  
                   u1810 0443                     u1730 03D5                     u1650 0353  
                   u1570 02E8                     u1490 025C                     u2371 07A9  
                   u3067 076A                     u2291 0728                     u1811 0442  
                   u1731 03D4                     u1715 03AD                     u1651 0352  
                   u1571 02E7                     u1491 025B                     u2507 01C9  
                   u2427 00E5                     u2380 07AE                     u1900 04CC  
                   u1820 0469                     u1740 03E7                     u1660 0362  
                   u1580 02EC                     u2381 07AD                     u3077 0790  
                   u2365 0786                     u1901 04CB                     u1821 0468  
                   u1741 03E6                     u1661 0361                     u1581 02EB  
                   u1565 02BC                     u2517 01D5                     u2437 010F  
                   u1910 04DB                     u1830 046D                     u1750 03EB  
                   u1670 0388                     u1590 02FE                     u3087 0798  
                   u1911 04DA                     u1831 046C                     u1815 043F  
                   u1751 03EA                     u1671 0387                     u1591 02FD  
                   u2607 02D4                     u2527 01FF                     u2447 0129  
                   u1920 0501                     u1840 047F                     u1760 03FA  
                   u1680 038C                     u3097 07B4                     u1921 0500  
                   u1841 047E                     u1761 03F9                     u1681 038B  
                   u1665 035E                     u2617 02F2                     u2537 0226  
                   u2457 0135                     u1930 0505                     u1850 0483  
                   u1770 041A                     u1690 039E                     u1931 0504  
                   u1915 04D7                     u1851 0482                     u1771 0419  
                   u2707 03DB                     u1691 039D                     u2627 0319  
                   u2547 0232                     u2467 015F                     u1940 0517  
                   u1860 0492                     u1780 041E                     u1941 0516  
                   u1861 0491                     u1781 041D                     u2717 0400  
                   u1765 03F6                     u2637 0325                     u2557 0250  
                   u2477 0179                     u2397 00A6                     u1950 051B  
                   u1870 04B2                     u1790 0430                     u1951 051A  
                   u2807 04E1                     u1871 04B1                     u1791 042F  
                   u2727 0408                     u2647 0343                     u2567 0277  
                   u2487 0185                     u1960 052A                     u1880 04B6  
                   u1961 0529                     u2817 04EC                     u1881 04B5  
                   u1865 048E                     u2737 0424                     u2657 0368  
                   u2577 0283                     u2497 01AF                     u1970 0552  
                   u1890 04C8                     u2907 05DA                     u1971 0551  
                   u2827 050B                     u1891 04C7                     u2747 0449  
                   u2667 0373                     u2587 02A1                     u1980 0556  
                   u2917 05F8                     u1981 0555                     u2837 0532  
                   u1965 0526                     u2757 0454                     u2677 0392  
                   u2597 02C8                     u1990 0568                     u2927 061D  
                   u1991 0567                     u2847 053E                     u2767 0473  
                   u2687 03B7                     u2937 0625                     u2857 055C  
                   u2777 0498                     u2697 03BF                     u2947 0641  
                   u2867 0581                     u2787 04A0                     u2957 0666  
                   u2877 058A                     u2797 04BC                     u2967 066D  
                   u2887 05A7                     u2977 0688                     u2897 05CE  
                   u2987 06AE                     u2997 06B7                     _main 009D  
                   btemp 007E                     start 0000                    ?_main 0078  
                  _ANSEL 0188                    _PORTC 0007                    _PORTD 0008  
                  _TRISC 0087                    _TRISD 0088                    _Setup 001E  
        __end_of_initOsc 009D                    main@x 0020                    pclath 000A  
                  status 0003                    wtemp0 007E          __initialization 07BE  
           __end_of_main 07BE                   ??_main 007B                   ?_Setup 0078  
            initOsc@IRCF 007A                   _ANSELH 0189                ??_initOsc 0078  
           __pdataCOMMON 0070  __end_of__initialization 07FC           __pcstackCOMMON 0078  
          __end_of_Setup 0041             __pidataBANK0 0006           _OPTION_REGbits 0081  
                ??_Setup 007B               __pmaintext 009D                  __ptext1 001E  
                __ptext2 0041                  _initOsc 0041     end_of_initialization 07FC  
              _PORTCbits 0007                _TRISAbits 0085                _TRISBbits 0086  
          __pidataCOMMON 0FE5      start_initialization 07BE               init_fetch0 0FED  
            __pdataBANK0 004E                ___latbits 0002            __pcstackBANK0 0020  
               ?_initOsc 0078           __size_of_Setup 0023                main@x_160 002A  
              main@x_161 002C                main@x_170 003E                main@x_162 002E  
              main@x_171 0040                main@x_163 0030                main@x_172 0042  
              main@x_164 0032                main@x_156 0022                main@x_173 0044  
              main@x_165 0034                main@x_157 0024                main@x_174 0046  
              main@x_166 0036                main@x_158 0026                main@x_175 0048  
              main@x_167 0038                main@x_159 0028                main@x_176 004A  
              main@x_168 003A                main@x_177 004C                main@x_169 003C  
       __size_of_initOsc 005C            __size_of_main 0721                 init_ram0 0FF1  
             _OSCCONbits 008F  
