

Microchip MPLAB XC8 Assembler V2.31 build 20201012212115 
                                                                                               Fri Feb 12 12:57:31 2021

Microchip MPLAB XC8 C Compiler v2.31 (Free license) build 20201012212115 Og1 
     1                           	processor	16F887
     2                           	pagewidth 120
     3                           	opt	flic
     4                           	psect	strings,global,class=STRING,delta=2,noexec
     5                           	psect	cinit,global,class=CODE,merge=1,delta=2
     6                           	psect	bssCOMMON,global,class=COMMON,space=1,delta=1,noexec
     7                           	psect	bssBANK0,global,class=BANK0,space=1,delta=1,noexec
     8                           	psect	cstackCOMMON,global,class=COMMON,space=1,delta=1,noexec
     9                           	psect	cstackBANK0,global,class=BANK0,space=1,delta=1,noexec
    10                           	psect	maintext,global,class=CODE,split=1,delta=2
    11                           	psect	text1,local,class=CODE,merge=1,delta=2
    12                           	psect	text2,local,class=CODE,merge=1,delta=2
    13                           	psect	text3,local,class=CODE,merge=1,delta=2
    14                           	psect	text4,local,class=CODE,merge=1,delta=2
    15                           	psect	text5,local,class=CODE,merge=1,delta=2
    16                           	psect	text6,local,class=CODE,merge=1,delta=2
    17                           	psect	text7,local,class=CODE,merge=1,delta=2
    18                           	psect	text8,local,class=CODE,merge=1,delta=2
    19                           	psect	text9,local,class=CODE,merge=1,delta=2
    20                           	psect	text10,local,class=CODE,merge=1,delta=2
    21                           	psect	text11,local,class=CODE,merge=1,delta=2
    22                           	psect	text12,local,class=CODE,merge=1,delta=2
    23                           	psect	text13,local,class=CODE,merge=1,delta=2,group=1
    24                           	psect	text14,local,class=CODE,merge=1,delta=2,group=1
    25                           	psect	config,global,abs,ovrld,class=CONFIG,space=4,delta=2,noexec
    26                           	dabs	1,0x7E,2
    27  0000                     
    28                           ; Version 2.20
    29                           ; Generated 12/02/2020 GMT
    30                           ; 
    31                           ; Copyright © 2020, Microchip Technology Inc. and its subsidiaries ("Microchip")
    32                           ; All rights reserved.
    33                           ; 
    34                           ; This software is developed by Microchip Technology Inc. and its subsidiaries ("Microch
      +                          ip").
    35                           ; 
    36                           ; Redistribution and use in source and binary forms, with or without modification, are
    37                           ; permitted provided that the following conditions are met:
    38                           ; 
    39                           ;     1. Redistributions of source code must retain the above copyright notice, this lis
      +                          t of
    40                           ;        conditions and the following disclaimer.
    41                           ; 
    42                           ;     2. Redistributions in binary form must reproduce the above copyright notice, this 
      +                          list
    43                           ;        of conditions and the following disclaimer in the documentation and/or other
    44                           ;        materials provided with the distribution.
    45                           ; 
    46                           ;     3. Microchip's name may not be used to endorse or promote products derived from th
      +                          is
    47                           ;        software without specific prior written permission.
    48                           ; 
    49                           ; THIS SOFTWARE IS PROVIDED BY MICROCHIP "AS IS" AND ANY EXPRESS OR IMPLIED WARRANTIES,
    50                           ; INCLUDING, BUT NOT LIMITED TO, THE IMPLIED WARRANTIES OF MERCHANTABILITY AND FITNESS F
      +                          OR
    51                           ; PURPOSE ARE DISCLAIMED.  IN NO EVENT SHALL MICROCHIP BE LIABLE FOR ANY DIRECT, INDIREC
      +                          T,
    52                           ; INCIDENTAL, SPECIAL, EXEMPLARY, OR CONSEQUENTIAL DAMAGES (INCLUDING BUT NOT LIMITED TO
    53                           ; PROCUREMENT OF SUBSTITUTE GOODS OR SERVICES; LOSS OF USE, DATA OR PROFITS; OR BUSINESS
    54                           ; INTERRUPTION) HOWSOEVER CAUSED AND ON ANY THEORY OF LIABILITY, WHETHER IN CONTRACT, ST
      +                          RICT
    55                           ; LIABILITY, OR TORT (INCLUDING NEGLIGENCE OR OTHERWISE) ARISING IN ANY WAY OUT OF THE U
      +                          SE OF
    56                           ; THIS SOFTWARE, EVEN IF ADVISED OF THE POSSIBILITY OF SUCH DAMAGE.
    57                           ; 
    58                           ; 
    59                           ; Code-generator required, PIC16F887 Definitions
    60                           ; 
    61                           ; SFR Addresses
    62  0000                     	;# 
    63  0001                     	;# 
    64  0002                     	;# 
    65  0003                     	;# 
    66  0004                     	;# 
    67  0005                     	;# 
    68  0006                     	;# 
    69  0007                     	;# 
    70  0008                     	;# 
    71  0009                     	;# 
    72  000A                     	;# 
    73  000B                     	;# 
    74  000C                     	;# 
    75  000D                     	;# 
    76  000E                     	;# 
    77  000E                     	;# 
    78  000F                     	;# 
    79  0010                     	;# 
    80  0011                     	;# 
    81  0012                     	;# 
    82  0013                     	;# 
    83  0014                     	;# 
    84  0015                     	;# 
    85  0015                     	;# 
    86  0016                     	;# 
    87  0017                     	;# 
    88  0018                     	;# 
    89  0019                     	;# 
    90  001A                     	;# 
    91  001B                     	;# 
    92  001B                     	;# 
    93  001C                     	;# 
    94  001D                     	;# 
    95  001E                     	;# 
    96  001F                     	;# 
    97  0081                     	;# 
    98  0085                     	;# 
    99  0086                     	;# 
   100  0087                     	;# 
   101  0088                     	;# 
   102  0089                     	;# 
   103  008C                     	;# 
   104  008D                     	;# 
   105  008E                     	;# 
   106  008F                     	;# 
   107  0090                     	;# 
   108  0091                     	;# 
   109  0092                     	;# 
   110  0093                     	;# 
   111  0093                     	;# 
   112  0093                     	;# 
   113  0094                     	;# 
   114  0095                     	;# 
   115  0096                     	;# 
   116  0097                     	;# 
   117  0098                     	;# 
   118  0099                     	;# 
   119  009A                     	;# 
   120  009B                     	;# 
   121  009C                     	;# 
   122  009D                     	;# 
   123  009E                     	;# 
   124  009F                     	;# 
   125  0105                     	;# 
   126  0107                     	;# 
   127  0108                     	;# 
   128  0109                     	;# 
   129  010C                     	;# 
   130  010C                     	;# 
   131  010D                     	;# 
   132  010E                     	;# 
   133  010F                     	;# 
   134  0185                     	;# 
   135  0187                     	;# 
   136  0188                     	;# 
   137  0189                     	;# 
   138  018C                     	;# 
   139  018D                     	;# 
   140  0000                     	;# 
   141  0001                     	;# 
   142  0002                     	;# 
   143  0003                     	;# 
   144  0004                     	;# 
   145  0005                     	;# 
   146  0006                     	;# 
   147  0007                     	;# 
   148  0008                     	;# 
   149  0009                     	;# 
   150  000A                     	;# 
   151  000B                     	;# 
   152  000C                     	;# 
   153  000D                     	;# 
   154  000E                     	;# 
   155  000E                     	;# 
   156  000F                     	;# 
   157  0010                     	;# 
   158  0011                     	;# 
   159  0012                     	;# 
   160  0013                     	;# 
   161  0014                     	;# 
   162  0015                     	;# 
   163  0015                     	;# 
   164  0016                     	;# 
   165  0017                     	;# 
   166  0018                     	;# 
   167  0019                     	;# 
   168  001A                     	;# 
   169  001B                     	;# 
   170  001B                     	;# 
   171  001C                     	;# 
   172  001D                     	;# 
   173  001E                     	;# 
   174  001F                     	;# 
   175  0081                     	;# 
   176  0085                     	;# 
   177  0086                     	;# 
   178  0087                     	;# 
   179  0088                     	;# 
   180  0089                     	;# 
   181  008C                     	;# 
   182  008D                     	;# 
   183  008E                     	;# 
   184  008F                     	;# 
   185  0090                     	;# 
   186  0091                     	;# 
   187  0092                     	;# 
   188  0093                     	;# 
   189  0093                     	;# 
   190  0093                     	;# 
   191  0094                     	;# 
   192  0095                     	;# 
   193  0096                     	;# 
   194  0097                     	;# 
   195  0098                     	;# 
   196  0099                     	;# 
   197  009A                     	;# 
   198  009B                     	;# 
   199  009C                     	;# 
   200  009D                     	;# 
   201  009E                     	;# 
   202  009F                     	;# 
   203  0105                     	;# 
   204  0107                     	;# 
   205  0108                     	;# 
   206  0109                     	;# 
   207  010C                     	;# 
   208  010C                     	;# 
   209  010D                     	;# 
   210  010E                     	;# 
   211  010F                     	;# 
   212  0185                     	;# 
   213  0187                     	;# 
   214  0188                     	;# 
   215  0189                     	;# 
   216  018C                     	;# 
   217  018D                     	;# 
   218  0000                     	;# 
   219  0001                     	;# 
   220  0002                     	;# 
   221  0003                     	;# 
   222  0004                     	;# 
   223  0005                     	;# 
   224  0006                     	;# 
   225  0007                     	;# 
   226  0008                     	;# 
   227  0009                     	;# 
   228  000A                     	;# 
   229  000B                     	;# 
   230  000C                     	;# 
   231  000D                     	;# 
   232  000E                     	;# 
   233  000E                     	;# 
   234  000F                     	;# 
   235  0010                     	;# 
   236  0011                     	;# 
   237  0012                     	;# 
   238  0013                     	;# 
   239  0014                     	;# 
   240  0015                     	;# 
   241  0015                     	;# 
   242  0016                     	;# 
   243  0017                     	;# 
   244  0018                     	;# 
   245  0019                     	;# 
   246  001A                     	;# 
   247  001B                     	;# 
   248  001B                     	;# 
   249  001C                     	;# 
   250  001D                     	;# 
   251  001E                     	;# 
   252  001F                     	;# 
   253  0081                     	;# 
   254  0085                     	;# 
   255  0086                     	;# 
   256  0087                     	;# 
   257  0088                     	;# 
   258  0089                     	;# 
   259  008C                     	;# 
   260  008D                     	;# 
   261  008E                     	;# 
   262  008F                     	;# 
   263  0090                     	;# 
   264  0091                     	;# 
   265  0092                     	;# 
   266  0093                     	;# 
   267  0093                     	;# 
   268  0093                     	;# 
   269  0094                     	;# 
   270  0095                     	;# 
   271  0096                     	;# 
   272  0097                     	;# 
   273  0098                     	;# 
   274  0099                     	;# 
   275  009A                     	;# 
   276  009B                     	;# 
   277  009C                     	;# 
   278  009D                     	;# 
   279  009E                     	;# 
   280  009F                     	;# 
   281  0105                     	;# 
   282  0107                     	;# 
   283  0108                     	;# 
   284  0109                     	;# 
   285  010C                     	;# 
   286  010C                     	;# 
   287  010D                     	;# 
   288  010E                     	;# 
   289  010F                     	;# 
   290  0185                     	;# 
   291  0187                     	;# 
   292  0188                     	;# 
   293  0189                     	;# 
   294  018C                     	;# 
   295  018D                     	;# 
   296  0000                     	;# 
   297  0001                     	;# 
   298  0002                     	;# 
   299  0003                     	;# 
   300  0004                     	;# 
   301  0005                     	;# 
   302  0006                     	;# 
   303  0007                     	;# 
   304  0008                     	;# 
   305  0009                     	;# 
   306  000A                     	;# 
   307  000B                     	;# 
   308  000C                     	;# 
   309  000D                     	;# 
   310  000E                     	;# 
   311  000E                     	;# 
   312  000F                     	;# 
   313  0010                     	;# 
   314  0011                     	;# 
   315  0012                     	;# 
   316  0013                     	;# 
   317  0014                     	;# 
   318  0015                     	;# 
   319  0015                     	;# 
   320  0016                     	;# 
   321  0017                     	;# 
   322  0018                     	;# 
   323  0019                     	;# 
   324  001A                     	;# 
   325  001B                     	;# 
   326  001B                     	;# 
   327  001C                     	;# 
   328  001D                     	;# 
   329  001E                     	;# 
   330  001F                     	;# 
   331  0081                     	;# 
   332  0085                     	;# 
   333  0086                     	;# 
   334  0087                     	;# 
   335  0088                     	;# 
   336  0089                     	;# 
   337  008C                     	;# 
   338  008D                     	;# 
   339  008E                     	;# 
   340  008F                     	;# 
   341  0090                     	;# 
   342  0091                     	;# 
   343  0092                     	;# 
   344  0093                     	;# 
   345  0093                     	;# 
   346  0093                     	;# 
   347  0094                     	;# 
   348  0095                     	;# 
   349  0096                     	;# 
   350  0097                     	;# 
   351  0098                     	;# 
   352  0099                     	;# 
   353  009A                     	;# 
   354  009B                     	;# 
   355  009C                     	;# 
   356  009D                     	;# 
   357  009E                     	;# 
   358  009F                     	;# 
   359  0105                     	;# 
   360  0107                     	;# 
   361  0108                     	;# 
   362  0109                     	;# 
   363  010C                     	;# 
   364  010C                     	;# 
   365  010D                     	;# 
   366  010E                     	;# 
   367  010F                     	;# 
   368  0185                     	;# 
   369  0187                     	;# 
   370  0188                     	;# 
   371  0189                     	;# 
   372  018C                     	;# 
   373  018D                     	;# 
   374  0000                     	;# 
   375  0001                     	;# 
   376  0002                     	;# 
   377  0003                     	;# 
   378  0004                     	;# 
   379  0005                     	;# 
   380  0006                     	;# 
   381  0007                     	;# 
   382  0008                     	;# 
   383  0009                     	;# 
   384  000A                     	;# 
   385  000B                     	;# 
   386  000C                     	;# 
   387  000D                     	;# 
   388  000E                     	;# 
   389  000E                     	;# 
   390  000F                     	;# 
   391  0010                     	;# 
   392  0011                     	;# 
   393  0012                     	;# 
   394  0013                     	;# 
   395  0014                     	;# 
   396  0015                     	;# 
   397  0015                     	;# 
   398  0016                     	;# 
   399  0017                     	;# 
   400  0018                     	;# 
   401  0019                     	;# 
   402  001A                     	;# 
   403  001B                     	;# 
   404  001B                     	;# 
   405  001C                     	;# 
   406  001D                     	;# 
   407  001E                     	;# 
   408  001F                     	;# 
   409  0081                     	;# 
   410  0085                     	;# 
   411  0086                     	;# 
   412  0087                     	;# 
   413  0088                     	;# 
   414  0089                     	;# 
   415  008C                     	;# 
   416  008D                     	;# 
   417  008E                     	;# 
   418  008F                     	;# 
   419  0090                     	;# 
   420  0091                     	;# 
   421  0092                     	;# 
   422  0093                     	;# 
   423  0093                     	;# 
   424  0093                     	;# 
   425  0094                     	;# 
   426  0095                     	;# 
   427  0096                     	;# 
   428  0097                     	;# 
   429  0098                     	;# 
   430  0099                     	;# 
   431  009A                     	;# 
   432  009B                     	;# 
   433  009C                     	;# 
   434  009D                     	;# 
   435  009E                     	;# 
   436  009F                     	;# 
   437  0105                     	;# 
   438  0107                     	;# 
   439  0108                     	;# 
   440  0109                     	;# 
   441  010C                     	;# 
   442  010C                     	;# 
   443  010D                     	;# 
   444  010E                     	;# 
   445  010F                     	;# 
   446  0185                     	;# 
   447  0187                     	;# 
   448  0188                     	;# 
   449  0189                     	;# 
   450  018C                     	;# 
   451  018D                     	;# 
   452  000B                     _INTCONbits	set	11
   453  0018                     _RCSTAbits	set	24
   454  0013                     _SSPBUF	set	19
   455  0014                     _SSPCON	set	20
   456  0009                     _PORTE	set	9
   457  0008                     _PORTD	set	8
   458  0006                     _PORTB	set	6
   459  0005                     _PORTA	set	5
   460  0007                     _PORTCbits	set	7
   461  0049                     _RE1	set	73
   462  0048                     _RE0	set	72
   463  008C                     _PIE1bits	set	140
   464  009A                     _SPBRGH	set	154
   465  0098                     _TXSTAbits	set	152
   466  0099                     _SPBRG	set	153
   467  0087                     _TRISCbits	set	135
   468  0094                     _SSPSTATbits	set	148
   469  0094                     _SSPSTAT	set	148
   470  0089                     _TRISE	set	137
   471  0088                     _TRISD	set	136
   472  0086                     _TRISB	set	134
   473  0085                     _TRISA	set	133
   474  043B                     _TRISC3	set	1083
   475  043D                     _TRISC5	set	1085
   476  0438                     _TRISC0	set	1080
   477  0439                     _TRISC1	set	1081
   478  043A                     _TRISC2	set	1082
   479  0187                     _BAUDCTLbits	set	391
   480  0189                     _ANSELH	set	393
   481  0188                     _ANSEL	set	392
   482                           
   483                           	psect	strings
   484  0003                     __pstrings:
   485  0003                     stringtab:
   486  0003                     __stringtab:
   487  0003                     stringcode:	
   488                           ;	String table - string pointers are 1 byte each
   489                           
   490  0003                     stringdir:
   491  0003  3000               	movlw	high stringdir
   492  0004  008A               	movwf	10
   493  0005  0804               	movf	4,w
   494  0006  0A84               	incf	4,f
   495  0007  0782               	addwf	2,f
   496  0008                     __stringbase:
   497  0008  3400               	retlw	0
   498  0009                     __end_of__stringtab:
   499  0009                     STR_2:
   500  0009  3430               	retlw	48	;'0'
   501  000A  3430               	retlw	48	;'0'
   502  000B  3430               	retlw	48	;'0'
   503  000C  3400               	retlw	0
   504  000D                     STR_1:
   505  000D  3453               	retlw	83	;'S'
   506  000E  3431               	retlw	49	;'1'
   507  000F  3400               	retlw	0
   508  0010                     STR_3:
   509  0010  3453               	retlw	83	;'S'
   510  0011  3432               	retlw	50	;'2'
   511  0012  3400               	retlw	0
   512  0013                     STR_5:
   513  0013  3453               	retlw	83	;'S'
   514  0014  3433               	retlw	51	;'3'
   515  0015  3400               	retlw	0
   516  000A                     
   517                           	psect	cinit
   518  07EF                     start_initialization:	
   519                           ; #config settings
   520                           
   521  07EF                     __initialization:
   522                           
   523                           ; Clear objects allocated to COMMON
   524  07EF  01F9               	clrf	__pbssCOMMON& (0+127)
   525  07F0  01FA               	clrf	(__pbssCOMMON+1)& (0+127)
   526  07F1  01FB               	clrf	(__pbssCOMMON+2)& (0+127)
   527  07F2  01FC               	clrf	(__pbssCOMMON+3)& (0+127)
   528  07F3  01FD               	clrf	(__pbssCOMMON+4)& (0+127)
   529                           
   530                           ; Clear objects allocated to BANK0
   531  07F4  1283               	bcf	3,5	;RP0=0, select bank0
   532  07F5  1303               	bcf	3,6	;RP1=0, select bank0
   533  07F6  01A0               	clrf	__pbssBANK0& (0+127)
   534  07F7  01A1               	clrf	(__pbssBANK0+1)& (0+127)
   535  07F8  01A2               	clrf	(__pbssBANK0+2)& (0+127)
   536  07F9  01A3               	clrf	(__pbssBANK0+3)& (0+127)
   537  07FA  01A4               	clrf	(__pbssBANK0+4)& (0+127)
   538  07FB  01A5               	clrf	(__pbssBANK0+5)& (0+127)
   539  07FC                     end_of_initialization:	
   540                           ;End of C runtime variable initialization code
   541                           
   542  07FC                     __end_of__initialization:
   543  07FC  0183               	clrf	3
   544  07FD  120A  118A  2DF2   	ljmp	_main	;jump to C main() function
   545                           
   546                           	psect	bssCOMMON
   547  0079                     __pbssCOMMON:
   548  0079                     _s21:
   549  0079                     	ds	1
   550  007A                     _s11:
   551  007A                     	ds	1
   552  007B                     _temperatura:
   553  007B                     	ds	1
   554  007C                     _contador:
   555  007C                     	ds	1
   556  007D                     _ADC:
   557  007D                     	ds	1
   558                           
   559                           	psect	bssBANK0
   560  0020                     __pbssBANK0:
   561  0020                     _s32:
   562  0020                     	ds	1
   563  0021                     _s31:
   564  0021                     	ds	1
   565  0022                     _s23:
   566  0022                     	ds	1
   567  0023                     _s22:
   568  0023                     	ds	1
   569  0024                     _s13:
   570  0024                     	ds	1
   571  0025                     _s12:
   572  0025                     	ds	1
   573                           
   574                           	psect	cstackCOMMON
   575  0070                     __pcstackCOMMON:
   576  0070                     ?_setup:
   577  0070                     ?_spiWrite:	
   578                           ; 1 bytes @ 0x0
   579                           
   580  0070                     ??_spiWrite:	
   581                           ; 1 bytes @ 0x0
   582                           
   583  0070                     ?_spiRead:	
   584                           ; 1 bytes @ 0x0
   585                           
   586  0070                     ??_spiRead:	
   587                           ; 1 bytes @ 0x0
   588                           
   589  0070                     ?_Lcd_Write_Char:	
   590                           ; 1 bytes @ 0x0
   591                           
   592  0070                     ?_spiInit:	
   593                           ; 1 bytes @ 0x0
   594                           
   595  0070                     ?_initUSART:	
   596                           ; 1 bytes @ 0x0
   597                           
   598  0070                     ??_initUSART:	
   599                           ; 1 bytes @ 0x0
   600                           
   601  0070                     ?_Lcd_Init:	
   602                           ; 1 bytes @ 0x0
   603                           
   604  0070                     ?_Lcd_Write_String:	
   605                           ; 1 bytes @ 0x0
   606                           
   607  0070                     ?_main:	
   608                           ; 1 bytes @ 0x0
   609                           
   610  0070                     ?_spiReceiveWait:	
   611                           ; 1 bytes @ 0x0
   612                           
   613  0070                     ??_spiReceiveWait:	
   614                           ; 1 bytes @ 0x0
   615                           
   616  0070                     ?_Lcd_Port:	
   617                           ; 1 bytes @ 0x0
   618                           
   619  0070                     ??_Lcd_Port:	
   620                           ; 1 bytes @ 0x0
   621                           
   622  0070                     ?_Lcd_Cmd:	
   623                           ; 1 bytes @ 0x0
   624                           
   625  0070                     ?___bmul:	
   626                           ; 1 bytes @ 0x0
   627                           
   628  0070                     ?___awdiv:	
   629                           ; 1 bytes @ 0x0
   630                           
   631  0070                     spiInit@sDataSample:	
   632                           ; 2 bytes @ 0x0
   633                           
   634  0070                     spiWrite@variable:	
   635                           ; 1 bytes @ 0x0
   636                           
   637  0070                     Lcd_Port@a:	
   638                           ; 1 bytes @ 0x0
   639                           
   640  0070                     ___bmul@multiplicand:	
   641                           ; 1 bytes @ 0x0
   642                           
   643  0070                     ___awdiv@divisor:	
   644                           ; 1 bytes @ 0x0
   645                           
   646                           
   647                           ; 2 bytes @ 0x0
   648  0070                     	ds	1
   649  0071                     ??_Lcd_Write_Char:
   650  0071                     ??_Lcd_Cmd:	
   651                           ; 1 bytes @ 0x1
   652                           
   653  0071                     ??___bmul:	
   654                           ; 1 bytes @ 0x1
   655                           
   656  0071                     spiInit@sClockIdle:	
   657                           ; 1 bytes @ 0x1
   658                           
   659                           
   660                           ; 1 bytes @ 0x1
   661  0071                     	ds	1
   662  0072                     spiInit@sTransmitEdge:
   663  0072                     Lcd_Write_Char@a:	
   664                           ; 1 bytes @ 0x2
   665                           
   666  0072                     ___bmul@product:	
   667                           ; 1 bytes @ 0x2
   668                           
   669  0072                     ___awdiv@dividend:	
   670                           ; 1 bytes @ 0x2
   671                           
   672                           
   673                           ; 2 bytes @ 0x2
   674  0072                     	ds	1
   675  0073                     ??_spiInit:
   676  0073                     ??_Lcd_Write_String:	
   677                           ; 1 bytes @ 0x3
   678                           
   679  0073                     spiInit@sType:	
   680                           ; 1 bytes @ 0x3
   681                           
   682  0073                     Lcd_Cmd@a:	
   683                           ; 1 bytes @ 0x3
   684                           
   685  0073                     ___bmul@multiplier:	
   686                           ; 1 bytes @ 0x3
   687                           
   688  0073                     Lcd_Write_String@i:	
   689                           ; 1 bytes @ 0x3
   690                           
   691                           
   692                           ; 2 bytes @ 0x3
   693  0073                     	ds	1
   694  0074                     ?_Lcd_Set_Cursor:
   695  0074                     ??_Lcd_Init:	
   696                           ; 1 bytes @ 0x4
   697                           
   698  0074                     ??___awdiv:	
   699                           ; 1 bytes @ 0x4
   700                           
   701  0074                     Lcd_Set_Cursor@b:	
   702                           ; 1 bytes @ 0x4
   703                           
   704                           
   705                           ; 1 bytes @ 0x4
   706  0074                     	ds	1
   707  0075                     ??_Lcd_Set_Cursor:
   708  0075                     Lcd_Write_String@a:	
   709                           ; 1 bytes @ 0x5
   710                           
   711  0075                     ___awdiv@counter:	
   712                           ; 1 bytes @ 0x5
   713                           
   714                           
   715                           ; 1 bytes @ 0x5
   716  0075                     	ds	1
   717  0076                     Lcd_Set_Cursor@a:
   718  0076                     ___awdiv@sign:	
   719                           ; 1 bytes @ 0x6
   720                           
   721                           
   722                           ; 1 bytes @ 0x6
   723  0076                     	ds	1
   724  0077                     Lcd_Set_Cursor@temp:
   725  0077                     ___awdiv@quotient:	
   726                           ; 1 bytes @ 0x7
   727                           
   728                           
   729                           ; 2 bytes @ 0x7
   730  0077                     	ds	1
   731  0078                     ??_setup:
   732                           
   733                           ; 1 bytes @ 0x8
   734  0078                     	ds	1
   735                           
   736                           	psect	cstackBANK0
   737  0026                     __pcstackBANK0:
   738  0026                     ??_main:
   739                           
   740                           ; 1 bytes @ 0x0
   741  0026                     	ds	6
   742                           
   743                           	psect	maintext
   744  05F2                     __pmaintext:	
   745 ;;
   746 ;;Main: autosize = 0, tempsize = 6, incstack = 0, save=0
   747 ;;
   748 ;; *************** function _main *****************
   749 ;; Defined at:
   750 ;;		line 57 in file "C:/Users/danie/OneDrive/Desktop/DIGITAL2/proyecto/master.X/master.c"
   751 ;; Parameters:    Size  Location     Type
   752 ;;		None
   753 ;; Auto vars:     Size  Location     Type
   754 ;;		None
   755 ;; Return value:  Size  Location     Type
   756 ;;                  1    wreg      void 
   757 ;; Registers used:
   758 ;;		wreg, fsr0l, fsr0h, status,2, status,0, pclath, cstack
   759 ;; Tracked objects:
   760 ;;		On entry : B00/0
   761 ;;		On exit  : 0/0
   762 ;;		Unchanged: 0/0
   763 ;; Data sizes:     COMMON   BANK0   BANK1   BANK3   BANK2
   764 ;;      Params:         0       0       0       0       0
   765 ;;      Locals:         0       0       0       0       0
   766 ;;      Temps:          0       6       0       0       0
   767 ;;      Totals:         0       6       0       0       0
   768 ;;Total ram usage:        6 bytes
   769 ;; Hardware stack levels required when called:    4
   770 ;; This function calls:
   771 ;;		_Lcd_Set_Cursor
   772 ;;		_Lcd_Write_Char
   773 ;;		___awdiv
   774 ;;		___bmul
   775 ;;		_setup
   776 ;;		_spiRead
   777 ;;		_spiWrite
   778 ;; This function is called by:
   779 ;;		Startup code after reset
   780 ;; This function uses a non-reentrant model
   781 ;;
   782                           
   783                           
   784                           ;psect for function _main
   785  05F2                     _main:
   786  05F2                     l1277:	
   787                           ;incstack = 0
   788                           ; Regs used in _main: [wreg-fsr0h+status,2+status,0+pclath+cstack]
   789                           
   790                           
   791                           ;C:/Users/danie/OneDrive/Desktop/DIGITAL2/proyecto/master.X/master.c: 58:     setup();
   792  05F2  120A  118A  2566  120A  118A  	fcall	_setup
   793  05F7                     l1279:
   794                           
   795                           ;C:/Users/danie/OneDrive/Desktop/DIGITAL2/proyecto/master.X/master.c: 61:        PORTCbi
      +                          ts.RC2 = 0;
   796  05F7  1283               	bcf	3,5	;RP0=0, select bank0
   797  05F8  1303               	bcf	3,6	;RP1=0, select bank0
   798  05F9  1107               	bcf	7,2	;volatile
   799  05FA                     l1281:
   800                           
   801                           ;C:/Users/danie/OneDrive/Desktop/DIGITAL2/proyecto/master.X/master.c: 62:        _delay(
      +                          (unsigned long)((1)*(8000000/4000.0)));
   802  05FA  3003               	movlw	3
   803  05FB  1283               	bcf	3,5	;RP0=0, select bank0
   804  05FC  1303               	bcf	3,6	;RP1=0, select bank0
   805  05FD  00A7               	movwf	??_main+1
   806  05FE  3097               	movlw	151
   807  05FF  00A6               	movwf	??_main
   808  0600                     u357:
   809  0600  0BA6               	decfsz	??_main,f
   810  0601  2E00               	goto	u357
   811  0602  0BA7               	decfsz	??_main+1,f
   812  0603  2E00               	goto	u357
   813  0604                     l1283:
   814                           
   815                           ;C:/Users/danie/OneDrive/Desktop/DIGITAL2/proyecto/master.X/master.c: 64:        spiWrit
      +                          e(0);
   816  0604  3000               	movlw	0
   817  0605  120A  118A  23D2  120A  118A  	fcall	_spiWrite
   818  060A                     l1285:
   819                           
   820                           ;C:/Users/danie/OneDrive/Desktop/DIGITAL2/proyecto/master.X/master.c: 65:        ADC = s
      +                          piRead();
   821  060A  120A  118A  23DF  120A  118A  	fcall	_spiRead
   822  060F  1283               	bcf	3,5	;RP0=0, select bank0
   823  0610  1303               	bcf	3,6	;RP1=0, select bank0
   824  0611  00A6               	movwf	??_main
   825  0612  0826               	movf	??_main,w
   826  0613  00FD               	movwf	_ADC
   827  0614                     l1287:
   828                           
   829                           ;C:/Users/danie/OneDrive/Desktop/DIGITAL2/proyecto/master.X/master.c: 68:        _delay(
      +                          (unsigned long)((1)*(8000000/4000.0)));
   830  0614  3003               	movlw	3
   831  0615  1283               	bcf	3,5	;RP0=0, select bank0
   832  0616  1303               	bcf	3,6	;RP1=0, select bank0
   833  0617  00A7               	movwf	??_main+1
   834  0618  3097               	movlw	151
   835  0619  00A6               	movwf	??_main
   836  061A                     u367:
   837  061A  0BA6               	decfsz	??_main,f
   838  061B  2E1A               	goto	u367
   839  061C  0BA7               	decfsz	??_main+1,f
   840  061D  2E1A               	goto	u367
   841  061E                     l1289:
   842                           
   843                           ;C:/Users/danie/OneDrive/Desktop/DIGITAL2/proyecto/master.X/master.c: 69:        PORTCbi
      +                          ts.RC2 = 1;
   844  061E  1283               	bcf	3,5	;RP0=0, select bank0
   845  061F  1303               	bcf	3,6	;RP1=0, select bank0
   846  0620  1507               	bsf	7,2	;volatile
   847  0621                     l1291:
   848                           
   849                           ;C:/Users/danie/OneDrive/Desktop/DIGITAL2/proyecto/master.X/master.c: 72:        s11 = (
      +                          ADC/100) + 48;
   850  0621  3064               	movlw	100
   851  0622  00F0               	movwf	___awdiv@divisor
   852  0623  3000               	movlw	0
   853  0624  00F1               	movwf	___awdiv@divisor+1
   854  0625  087D               	movf	_ADC,w
   855  0626  00A6               	movwf	??_main
   856  0627  01A7               	clrf	??_main+1
   857  0628  0826               	movf	??_main,w
   858  0629  00F2               	movwf	___awdiv@dividend
   859  062A  0827               	movf	??_main+1,w
   860  062B  00F3               	movwf	___awdiv@dividend+1
   861  062C  120A  118A  24FF  120A  118A  	fcall	___awdiv
   862  0631  0870               	movf	?___awdiv,w
   863  0632  3E30               	addlw	48
   864  0633  1283               	bcf	3,5	;RP0=0, select bank0
   865  0634  1303               	bcf	3,6	;RP1=0, select bank0
   866  0635  00A8               	movwf	??_main+2
   867  0636  0828               	movf	??_main+2,w
   868  0637  00FA               	movwf	_s11
   869  0638                     l1293:
   870                           
   871                           ;C:/Users/danie/OneDrive/Desktop/DIGITAL2/proyecto/master.X/master.c: 73:        s12 = (
      +                          ADC/10) - ((s11 - 48) * 10) + 48;
   872  0638  300A               	movlw	10
   873  0639  00F0               	movwf	___awdiv@divisor
   874  063A  3000               	movlw	0
   875  063B  00F1               	movwf	___awdiv@divisor+1
   876  063C  087D               	movf	_ADC,w
   877  063D  00A6               	movwf	??_main
   878  063E  01A7               	clrf	??_main+1
   879  063F  0826               	movf	??_main,w
   880  0640  00F2               	movwf	___awdiv@dividend
   881  0641  0827               	movf	??_main+1,w
   882  0642  00F3               	movwf	___awdiv@dividend+1
   883  0643  120A  118A  24FF  120A  118A  	fcall	___awdiv
   884  0648  0870               	movf	?___awdiv,w
   885  0649  1283               	bcf	3,5	;RP0=0, select bank0
   886  064A  1303               	bcf	3,6	;RP1=0, select bank0
   887  064B  00A8               	movwf	??_main+2
   888  064C  0871               	movf	?___awdiv+1,w
   889  064D  00A9               	movwf	??_main+3
   890  064E  30F6               	movlw	246
   891  064F  00AA               	movwf	??_main+4
   892  0650  082A               	movf	??_main+4,w
   893  0651  00F0               	movwf	___bmul@multiplicand
   894  0652  087A               	movf	_s11,w
   895  0653  120A  118A  23E8  120A  118A  	fcall	___bmul
   896  0658  1283               	bcf	3,5	;RP0=0, select bank0
   897  0659  1303               	bcf	3,6	;RP1=0, select bank0
   898  065A  0728               	addwf	??_main+2,w
   899  065B  3E10               	addlw	16
   900  065C  00AB               	movwf	??_main+5
   901  065D  082B               	movf	??_main+5,w
   902  065E  00A5               	movwf	_s12
   903  065F                     l1295:
   904                           
   905                           ;C:/Users/danie/OneDrive/Desktop/DIGITAL2/proyecto/master.X/master.c: 74:        s13 = (
      +                          ADC) - ((s11 - 48) * 100) - ((s12 - 48) * 10) + 48;
   906  065F  309C               	movlw	156
   907  0660  00A6               	movwf	??_main
   908  0661  0826               	movf	??_main,w
   909  0662  00F0               	movwf	___bmul@multiplicand
   910  0663  087A               	movf	_s11,w
   911  0664  120A  118A  23E8  120A  118A  	fcall	___bmul
   912  0669  1283               	bcf	3,5	;RP0=0, select bank0
   913  066A  1303               	bcf	3,6	;RP1=0, select bank0
   914  066B  00A7               	movwf	??_main+1
   915  066C  30F6               	movlw	246
   916  066D  00A8               	movwf	??_main+2
   917  066E  0828               	movf	??_main+2,w
   918  066F  00F0               	movwf	___bmul@multiplicand
   919  0670  0825               	movf	_s12,w
   920  0671  120A  118A  23E8  120A  118A  	fcall	___bmul
   921  0676  1283               	bcf	3,5	;RP0=0, select bank0
   922  0677  1303               	bcf	3,6	;RP1=0, select bank0
   923  0678  0727               	addwf	??_main+1,w
   924  0679  077D               	addwf	_ADC,w
   925  067A  3ED0               	addlw	208
   926  067B  00A9               	movwf	??_main+3
   927  067C  0829               	movf	??_main+3,w
   928  067D  00A4               	movwf	_s13
   929  067E                     l1297:
   930                           
   931                           ;C:/Users/danie/OneDrive/Desktop/DIGITAL2/proyecto/master.X/master.c: 76:         Lcd_Se
      +                          t_Cursor(2,1);
   932  067E  01F4               	clrf	Lcd_Set_Cursor@b
   933  067F  0AF4               	incf	Lcd_Set_Cursor@b,f
   934  0680  3002               	movlw	2
   935  0681  120A  118A  2460  120A  118A  	fcall	_Lcd_Set_Cursor
   936  0686                     l1299:
   937                           
   938                           ;C:/Users/danie/OneDrive/Desktop/DIGITAL2/proyecto/master.X/master.c: 77:         Lcd_Wr
      +                          ite_Char(s11);
   939  0686  087A               	movf	_s11,w
   940  0687  120A  118A  23FD  120A  118A  	fcall	_Lcd_Write_Char
   941  068C                     l1301:
   942                           
   943                           ;C:/Users/danie/OneDrive/Desktop/DIGITAL2/proyecto/master.X/master.c: 78:         Lcd_Se
      +                          t_Cursor(2,2);
   944  068C  3002               	movlw	2
   945  068D  1283               	bcf	3,5	;RP0=0, select bank0
   946  068E  1303               	bcf	3,6	;RP1=0, select bank0
   947  068F  00A6               	movwf	??_main
   948  0690  0826               	movf	??_main,w
   949  0691  00F4               	movwf	Lcd_Set_Cursor@b
   950  0692  3002               	movlw	2
   951  0693  120A  118A  2460  120A  118A  	fcall	_Lcd_Set_Cursor
   952  0698                     l1303:
   953                           
   954                           ;C:/Users/danie/OneDrive/Desktop/DIGITAL2/proyecto/master.X/master.c: 79:         Lcd_Wr
      +                          ite_Char(s12);
   955  0698  1283               	bcf	3,5	;RP0=0, select bank0
   956  0699  1303               	bcf	3,6	;RP1=0, select bank0
   957  069A  0825               	movf	_s12,w
   958  069B  120A  118A  23FD  120A  118A  	fcall	_Lcd_Write_Char
   959  06A0                     l1305:
   960                           
   961                           ;C:/Users/danie/OneDrive/Desktop/DIGITAL2/proyecto/master.X/master.c: 80:         Lcd_Se
      +                          t_Cursor(2,3);
   962  06A0  3003               	movlw	3
   963  06A1  1283               	bcf	3,5	;RP0=0, select bank0
   964  06A2  1303               	bcf	3,6	;RP1=0, select bank0
   965  06A3  00A6               	movwf	??_main
   966  06A4  0826               	movf	??_main,w
   967  06A5  00F4               	movwf	Lcd_Set_Cursor@b
   968  06A6  3002               	movlw	2
   969  06A7  120A  118A  2460  120A  118A  	fcall	_Lcd_Set_Cursor
   970  06AC                     l1307:
   971                           
   972                           ;C:/Users/danie/OneDrive/Desktop/DIGITAL2/proyecto/master.X/master.c: 81:         Lcd_Wr
      +                          ite_Char(s13);
   973  06AC  1283               	bcf	3,5	;RP0=0, select bank0
   974  06AD  1303               	bcf	3,6	;RP1=0, select bank0
   975  06AE  0824               	movf	_s13,w
   976  06AF  120A  118A  23FD  120A  118A  	fcall	_Lcd_Write_Char
   977  06B4                     l1309:
   978                           
   979                           ;C:/Users/danie/OneDrive/Desktop/DIGITAL2/proyecto/master.X/master.c: 85:        PORTCbi
      +                          ts.RC1 = 0;
   980  06B4  1283               	bcf	3,5	;RP0=0, select bank0
   981  06B5  1303               	bcf	3,6	;RP1=0, select bank0
   982  06B6  1087               	bcf	7,1	;volatile
   983  06B7                     l1311:
   984                           
   985                           ;C:/Users/danie/OneDrive/Desktop/DIGITAL2/proyecto/master.X/master.c: 86:        _delay(
      +                          (unsigned long)((1)*(8000000/4000.0)));
   986  06B7  3003               	movlw	3
   987  06B8  1283               	bcf	3,5	;RP0=0, select bank0
   988  06B9  1303               	bcf	3,6	;RP1=0, select bank0
   989  06BA  00A7               	movwf	??_main+1
   990  06BB  3097               	movlw	151
   991  06BC  00A6               	movwf	??_main
   992  06BD                     u377:
   993  06BD  0BA6               	decfsz	??_main,f
   994  06BE  2EBD               	goto	u377
   995  06BF  0BA7               	decfsz	??_main+1,f
   996  06C0  2EBD               	goto	u377
   997  06C1                     l1313:
   998                           
   999                           ;C:/Users/danie/OneDrive/Desktop/DIGITAL2/proyecto/master.X/master.c: 88:        spiWrit
      +                          e(0);
  1000  06C1  3000               	movlw	0
  1001  06C2  120A  118A  23D2  120A  118A  	fcall	_spiWrite
  1002  06C7                     l1315:
  1003                           
  1004                           ;C:/Users/danie/OneDrive/Desktop/DIGITAL2/proyecto/master.X/master.c: 89:        contado
      +                          r = spiRead();
  1005  06C7  120A  118A  23DF  120A  118A  	fcall	_spiRead
  1006  06CC  1283               	bcf	3,5	;RP0=0, select bank0
  1007  06CD  1303               	bcf	3,6	;RP1=0, select bank0
  1008  06CE  00A6               	movwf	??_main
  1009  06CF  0826               	movf	??_main,w
  1010  06D0  00FC               	movwf	_contador
  1011  06D1                     l1317:
  1012                           
  1013                           ;C:/Users/danie/OneDrive/Desktop/DIGITAL2/proyecto/master.X/master.c: 92:        _delay(
      +                          (unsigned long)((1)*(8000000/4000.0)));
  1014  06D1  3003               	movlw	3
  1015  06D2  1283               	bcf	3,5	;RP0=0, select bank0
  1016  06D3  1303               	bcf	3,6	;RP1=0, select bank0
  1017  06D4  00A7               	movwf	??_main+1
  1018  06D5  3097               	movlw	151
  1019  06D6  00A6               	movwf	??_main
  1020  06D7                     u387:
  1021  06D7  0BA6               	decfsz	??_main,f
  1022  06D8  2ED7               	goto	u387
  1023  06D9  0BA7               	decfsz	??_main+1,f
  1024  06DA  2ED7               	goto	u387
  1025  06DB                     l1319:
  1026                           
  1027                           ;C:/Users/danie/OneDrive/Desktop/DIGITAL2/proyecto/master.X/master.c: 93:        PORTCbi
      +                          ts.RC1 = 1;
  1028  06DB  1283               	bcf	3,5	;RP0=0, select bank0
  1029  06DC  1303               	bcf	3,6	;RP1=0, select bank0
  1030  06DD  1487               	bsf	7,1	;volatile
  1031  06DE                     l1321:
  1032                           
  1033                           ;C:/Users/danie/OneDrive/Desktop/DIGITAL2/proyecto/master.X/master.c: 95:        s21 = (
      +                          contador/100) + 48;
  1034  06DE  3064               	movlw	100
  1035  06DF  00F0               	movwf	___awdiv@divisor
  1036  06E0  3000               	movlw	0
  1037  06E1  00F1               	movwf	___awdiv@divisor+1
  1038  06E2  087C               	movf	_contador,w
  1039  06E3  00A6               	movwf	??_main
  1040  06E4  01A7               	clrf	??_main+1
  1041  06E5  0826               	movf	??_main,w
  1042  06E6  00F2               	movwf	___awdiv@dividend
  1043  06E7  0827               	movf	??_main+1,w
  1044  06E8  00F3               	movwf	___awdiv@dividend+1
  1045  06E9  120A  118A  24FF  120A  118A  	fcall	___awdiv
  1046  06EE  0870               	movf	?___awdiv,w
  1047  06EF  3E30               	addlw	48
  1048  06F0  1283               	bcf	3,5	;RP0=0, select bank0
  1049  06F1  1303               	bcf	3,6	;RP1=0, select bank0
  1050  06F2  00A8               	movwf	??_main+2
  1051  06F3  0828               	movf	??_main+2,w
  1052  06F4  00F9               	movwf	_s21
  1053  06F5                     l1323:
  1054                           
  1055                           ;C:/Users/danie/OneDrive/Desktop/DIGITAL2/proyecto/master.X/master.c: 96:        s22 = (
      +                          contador/10) - ((s21 - 48) * 10) + 48;
  1056  06F5  300A               	movlw	10
  1057  06F6  00F0               	movwf	___awdiv@divisor
  1058  06F7  3000               	movlw	0
  1059  06F8  00F1               	movwf	___awdiv@divisor+1
  1060  06F9  087C               	movf	_contador,w
  1061  06FA  00A6               	movwf	??_main
  1062  06FB  01A7               	clrf	??_main+1
  1063  06FC  0826               	movf	??_main,w
  1064  06FD  00F2               	movwf	___awdiv@dividend
  1065  06FE  0827               	movf	??_main+1,w
  1066  06FF  00F3               	movwf	___awdiv@dividend+1
  1067  0700  120A  118A  24FF  120A  118A  	fcall	___awdiv
  1068  0705  0870               	movf	?___awdiv,w
  1069  0706  1283               	bcf	3,5	;RP0=0, select bank0
  1070  0707  1303               	bcf	3,6	;RP1=0, select bank0
  1071  0708  00A8               	movwf	??_main+2
  1072  0709  0871               	movf	?___awdiv+1,w
  1073  070A  00A9               	movwf	??_main+3
  1074  070B  30F6               	movlw	246
  1075  070C  00AA               	movwf	??_main+4
  1076  070D  082A               	movf	??_main+4,w
  1077  070E  00F0               	movwf	___bmul@multiplicand
  1078  070F  0879               	movf	_s21,w
  1079  0710  120A  118A  23E8  120A  118A  	fcall	___bmul
  1080  0715  1283               	bcf	3,5	;RP0=0, select bank0
  1081  0716  1303               	bcf	3,6	;RP1=0, select bank0
  1082  0717  0728               	addwf	??_main+2,w
  1083  0718  3E10               	addlw	16
  1084  0719  00AB               	movwf	??_main+5
  1085  071A  082B               	movf	??_main+5,w
  1086  071B  00A3               	movwf	_s22
  1087  071C                     l1325:
  1088                           
  1089                           ;C:/Users/danie/OneDrive/Desktop/DIGITAL2/proyecto/master.X/master.c: 97:        s23 = (
      +                          contador) - ((s21 - 48) * 100) - ((s22 - 48) * 10) + 48;
  1090  071C  309C               	movlw	156
  1091  071D  00A6               	movwf	??_main
  1092  071E  0826               	movf	??_main,w
  1093  071F  00F0               	movwf	___bmul@multiplicand
  1094  0720  0879               	movf	_s21,w
  1095  0721  120A  118A  23E8  120A  118A  	fcall	___bmul
  1096  0726  1283               	bcf	3,5	;RP0=0, select bank0
  1097  0727  1303               	bcf	3,6	;RP1=0, select bank0
  1098  0728  00A7               	movwf	??_main+1
  1099  0729  30F6               	movlw	246
  1100  072A  00A8               	movwf	??_main+2
  1101  072B  0828               	movf	??_main+2,w
  1102  072C  00F0               	movwf	___bmul@multiplicand
  1103  072D  0823               	movf	_s22,w
  1104  072E  120A  118A  23E8  120A  118A  	fcall	___bmul
  1105  0733  1283               	bcf	3,5	;RP0=0, select bank0
  1106  0734  1303               	bcf	3,6	;RP1=0, select bank0
  1107  0735  0727               	addwf	??_main+1,w
  1108  0736  077C               	addwf	_contador,w
  1109  0737  3ED0               	addlw	208
  1110  0738  00A9               	movwf	??_main+3
  1111  0739  0829               	movf	??_main+3,w
  1112  073A  00A2               	movwf	_s23
  1113  073B                     l1327:
  1114                           
  1115                           ;C:/Users/danie/OneDrive/Desktop/DIGITAL2/proyecto/master.X/master.c: 99:         Lcd_Se
      +                          t_Cursor(2,7);
  1116  073B  3007               	movlw	7
  1117  073C  00A6               	movwf	??_main
  1118  073D  0826               	movf	??_main,w
  1119  073E  00F4               	movwf	Lcd_Set_Cursor@b
  1120  073F  3002               	movlw	2
  1121  0740  120A  118A  2460  120A  118A  	fcall	_Lcd_Set_Cursor
  1122  0745                     l1329:
  1123                           
  1124                           ;C:/Users/danie/OneDrive/Desktop/DIGITAL2/proyecto/master.X/master.c: 100:         Lcd_W
      +                          rite_Char(s21);
  1125  0745  0879               	movf	_s21,w
  1126  0746  120A  118A  23FD  120A  118A  	fcall	_Lcd_Write_Char
  1127  074B                     l1331:
  1128                           
  1129                           ;C:/Users/danie/OneDrive/Desktop/DIGITAL2/proyecto/master.X/master.c: 101:         Lcd_S
      +                          et_Cursor(2,8);
  1130  074B  3008               	movlw	8
  1131  074C  1283               	bcf	3,5	;RP0=0, select bank0
  1132  074D  1303               	bcf	3,6	;RP1=0, select bank0
  1133  074E  00A6               	movwf	??_main
  1134  074F  0826               	movf	??_main,w
  1135  0750  00F4               	movwf	Lcd_Set_Cursor@b
  1136  0751  3002               	movlw	2
  1137  0752  120A  118A  2460  120A  118A  	fcall	_Lcd_Set_Cursor
  1138  0757                     l1333:
  1139                           
  1140                           ;C:/Users/danie/OneDrive/Desktop/DIGITAL2/proyecto/master.X/master.c: 102:         Lcd_W
      +                          rite_Char(s22);
  1141  0757  1283               	bcf	3,5	;RP0=0, select bank0
  1142  0758  1303               	bcf	3,6	;RP1=0, select bank0
  1143  0759  0823               	movf	_s22,w
  1144  075A  120A  118A  23FD  120A  118A  	fcall	_Lcd_Write_Char
  1145  075F                     l1335:
  1146                           
  1147                           ;C:/Users/danie/OneDrive/Desktop/DIGITAL2/proyecto/master.X/master.c: 103:         Lcd_S
      +                          et_Cursor(2,9);
  1148  075F  3009               	movlw	9
  1149  0760  1283               	bcf	3,5	;RP0=0, select bank0
  1150  0761  1303               	bcf	3,6	;RP1=0, select bank0
  1151  0762  00A6               	movwf	??_main
  1152  0763  0826               	movf	??_main,w
  1153  0764  00F4               	movwf	Lcd_Set_Cursor@b
  1154  0765  3002               	movlw	2
  1155  0766  120A  118A  2460  120A  118A  	fcall	_Lcd_Set_Cursor
  1156  076B                     l1337:
  1157                           
  1158                           ;C:/Users/danie/OneDrive/Desktop/DIGITAL2/proyecto/master.X/master.c: 104:         Lcd_W
      +                          rite_Char(s23);
  1159  076B  1283               	bcf	3,5	;RP0=0, select bank0
  1160  076C  1303               	bcf	3,6	;RP1=0, select bank0
  1161  076D  0822               	movf	_s23,w
  1162  076E  120A  118A  23FD  120A  118A  	fcall	_Lcd_Write_Char
  1163  0773                     l1339:
  1164                           
  1165                           ;C:/Users/danie/OneDrive/Desktop/DIGITAL2/proyecto/master.X/master.c: 107:        PORTCb
      +                          its.RC0 = 0;
  1166  0773  1283               	bcf	3,5	;RP0=0, select bank0
  1167  0774  1303               	bcf	3,6	;RP1=0, select bank0
  1168  0775  1007               	bcf	7,0	;volatile
  1169  0776                     l1341:
  1170                           
  1171                           ;C:/Users/danie/OneDrive/Desktop/DIGITAL2/proyecto/master.X/master.c: 108:        _delay
      +                          ((unsigned long)((1)*(8000000/4000.0)));
  1172  0776  3003               	movlw	3
  1173  0777  1283               	bcf	3,5	;RP0=0, select bank0
  1174  0778  1303               	bcf	3,6	;RP1=0, select bank0
  1175  0779  00A7               	movwf	??_main+1
  1176  077A  3097               	movlw	151
  1177  077B  00A6               	movwf	??_main
  1178  077C                     u397:
  1179  077C  0BA6               	decfsz	??_main,f
  1180  077D  2F7C               	goto	u397
  1181  077E  0BA7               	decfsz	??_main+1,f
  1182  077F  2F7C               	goto	u397
  1183  0780                     l1343:
  1184                           
  1185                           ;C:/Users/danie/OneDrive/Desktop/DIGITAL2/proyecto/master.X/master.c: 110:        spiWri
      +                          te(0);
  1186  0780  3000               	movlw	0
  1187  0781  120A  118A  23D2  120A  118A  	fcall	_spiWrite
  1188  0786                     l1345:
  1189                           
  1190                           ;C:/Users/danie/OneDrive/Desktop/DIGITAL2/proyecto/master.X/master.c: 111:        temper
      +                          atura = spiRead();
  1191  0786  120A  118A  23DF  120A  118A  	fcall	_spiRead
  1192  078B  1283               	bcf	3,5	;RP0=0, select bank0
  1193  078C  1303               	bcf	3,6	;RP1=0, select bank0
  1194  078D  00A6               	movwf	??_main
  1195  078E  0826               	movf	??_main,w
  1196  078F  00FB               	movwf	_temperatura
  1197  0790                     l1347:
  1198                           
  1199                           ;C:/Users/danie/OneDrive/Desktop/DIGITAL2/proyecto/master.X/master.c: 114:        _delay
      +                          ((unsigned long)((1)*(8000000/4000.0)));
  1200  0790  3003               	movlw	3
  1201  0791  1283               	bcf	3,5	;RP0=0, select bank0
  1202  0792  1303               	bcf	3,6	;RP1=0, select bank0
  1203  0793  00A7               	movwf	??_main+1
  1204  0794  3097               	movlw	151
  1205  0795  00A6               	movwf	??_main
  1206  0796                     u407:
  1207  0796  0BA6               	decfsz	??_main,f
  1208  0797  2F96               	goto	u407
  1209  0798  0BA7               	decfsz	??_main+1,f
  1210  0799  2F96               	goto	u407
  1211  079A                     l1349:
  1212                           
  1213                           ;C:/Users/danie/OneDrive/Desktop/DIGITAL2/proyecto/master.X/master.c: 115:        PORTCb
      +                          its.RC0 = 1;
  1214  079A  1283               	bcf	3,5	;RP0=0, select bank0
  1215  079B  1303               	bcf	3,6	;RP1=0, select bank0
  1216  079C  1407               	bsf	7,0	;volatile
  1217  079D                     l1351:
  1218                           
  1219                           ;C:/Users/danie/OneDrive/Desktop/DIGITAL2/proyecto/master.X/master.c: 118:        s31 = 
      +                          (temperatura/10) + 48;
  1220  079D  300A               	movlw	10
  1221  079E  00F0               	movwf	___awdiv@divisor
  1222  079F  3000               	movlw	0
  1223  07A0  00F1               	movwf	___awdiv@divisor+1
  1224  07A1  087B               	movf	_temperatura,w
  1225  07A2  00A6               	movwf	??_main
  1226  07A3  01A7               	clrf	??_main+1
  1227  07A4  0826               	movf	??_main,w
  1228  07A5  00F2               	movwf	___awdiv@dividend
  1229  07A6  0827               	movf	??_main+1,w
  1230  07A7  00F3               	movwf	___awdiv@dividend+1
  1231  07A8  120A  118A  24FF  120A  118A  	fcall	___awdiv
  1232  07AD  0870               	movf	?___awdiv,w
  1233  07AE  3E30               	addlw	48
  1234  07AF  1283               	bcf	3,5	;RP0=0, select bank0
  1235  07B0  1303               	bcf	3,6	;RP1=0, select bank0
  1236  07B1  00A8               	movwf	??_main+2
  1237  07B2  0828               	movf	??_main+2,w
  1238  07B3  00A1               	movwf	_s31
  1239  07B4                     l1353:
  1240                           
  1241                           ;C:/Users/danie/OneDrive/Desktop/DIGITAL2/proyecto/master.X/master.c: 119:        s32 = 
      +                          (temperatura) - ((s31 - 48) * 10) + 48;
  1242  07B4  30F6               	movlw	246
  1243  07B5  00A6               	movwf	??_main
  1244  07B6  0826               	movf	??_main,w
  1245  07B7  00F0               	movwf	___bmul@multiplicand
  1246  07B8  0821               	movf	_s31,w
  1247  07B9  120A  118A  23E8  120A  118A  	fcall	___bmul
  1248  07BE  077B               	addwf	_temperatura,w
  1249  07BF  3E10               	addlw	16
  1250  07C0  1283               	bcf	3,5	;RP0=0, select bank0
  1251  07C1  1303               	bcf	3,6	;RP1=0, select bank0
  1252  07C2  00A7               	movwf	??_main+1
  1253  07C3  0827               	movf	??_main+1,w
  1254  07C4  00A0               	movwf	_s32
  1255  07C5                     l1355:
  1256                           
  1257                           ;C:/Users/danie/OneDrive/Desktop/DIGITAL2/proyecto/master.X/master.c: 121:         Lcd_S
      +                          et_Cursor(2,13);
  1258  07C5  300D               	movlw	13
  1259  07C6  00A6               	movwf	??_main
  1260  07C7  0826               	movf	??_main,w
  1261  07C8  00F4               	movwf	Lcd_Set_Cursor@b
  1262  07C9  3002               	movlw	2
  1263  07CA  120A  118A  2460  120A  118A  	fcall	_Lcd_Set_Cursor
  1264  07CF                     l1357:
  1265                           
  1266                           ;C:/Users/danie/OneDrive/Desktop/DIGITAL2/proyecto/master.X/master.c: 122:         Lcd_W
      +                          rite_Char(s31);
  1267  07CF  1283               	bcf	3,5	;RP0=0, select bank0
  1268  07D0  1303               	bcf	3,6	;RP1=0, select bank0
  1269  07D1  0821               	movf	_s31,w
  1270  07D2  120A  118A  23FD  120A  118A  	fcall	_Lcd_Write_Char
  1271  07D7                     l1359:
  1272                           
  1273                           ;C:/Users/danie/OneDrive/Desktop/DIGITAL2/proyecto/master.X/master.c: 123:         Lcd_S
      +                          et_Cursor(2,14);
  1274  07D7  300E               	movlw	14
  1275  07D8  1283               	bcf	3,5	;RP0=0, select bank0
  1276  07D9  1303               	bcf	3,6	;RP1=0, select bank0
  1277  07DA  00A6               	movwf	??_main
  1278  07DB  0826               	movf	??_main,w
  1279  07DC  00F4               	movwf	Lcd_Set_Cursor@b
  1280  07DD  3002               	movlw	2
  1281  07DE  120A  118A  2460  120A  118A  	fcall	_Lcd_Set_Cursor
  1282  07E3                     l1361:
  1283                           
  1284                           ;C:/Users/danie/OneDrive/Desktop/DIGITAL2/proyecto/master.X/master.c: 124:         Lcd_W
      +                          rite_Char(s32);
  1285  07E3  1283               	bcf	3,5	;RP0=0, select bank0
  1286  07E4  1303               	bcf	3,6	;RP1=0, select bank0
  1287  07E5  0820               	movf	_s32,w
  1288  07E6  120A  118A  23FD  120A  118A  	fcall	_Lcd_Write_Char
  1289  07EB  2DF7               	goto	l1279
  1290  07EC  120A  118A  2800   	ljmp	start
  1291  07EF                     __end_of_main:
  1292                           
  1293                           	psect	text1
  1294  03D2                     __ptext1:	
  1295 ;; *************** function _spiWrite *****************
  1296 ;; Defined at:
  1297 ;;		line 32 in file "C:/Users/danie/OneDrive/Desktop/DIGITAL2/proyecto/master.X/SPI.c"
  1298 ;; Parameters:    Size  Location     Type
  1299 ;;  variable        1    wreg     unsigned char 
  1300 ;; Auto vars:     Size  Location     Type
  1301 ;;  variable        1    0[COMMON] unsigned char 
  1302 ;; Return value:  Size  Location     Type
  1303 ;;                  1    wreg      void 
  1304 ;; Registers used:
  1305 ;;		wreg
  1306 ;; Tracked objects:
  1307 ;;		On entry : 0/0
  1308 ;;		On exit  : 0/0
  1309 ;;		Unchanged: 0/0
  1310 ;; Data sizes:     COMMON   BANK0   BANK1   BANK3   BANK2
  1311 ;;      Params:         0       0       0       0       0
  1312 ;;      Locals:         1       0       0       0       0
  1313 ;;      Temps:          0       0       0       0       0
  1314 ;;      Totals:         1       0       0       0       0
  1315 ;;Total ram usage:        1 bytes
  1316 ;; Hardware stack levels used:    1
  1317 ;; This function calls:
  1318 ;;		Nothing
  1319 ;; This function is called by:
  1320 ;;		_main
  1321 ;; This function uses a non-reentrant model
  1322 ;;
  1323                           
  1324                           
  1325                           ;psect for function _spiWrite
  1326  03D2                     _spiWrite:
  1327                           
  1328                           ;incstack = 0
  1329                           ; Regs used in _spiWrite: [wreg]
  1330                           ;spiWrite@variable stored from wreg
  1331  03D2  00F0               	movwf	spiWrite@variable
  1332  03D3                     l1211:
  1333                           
  1334                           ;C:/Users/danie/OneDrive/Desktop/DIGITAL2/proyecto/master.X/SPI.c: 33:     SSPBUF = vari
      +                          able;
  1335  03D3  0870               	movf	spiWrite@variable,w
  1336  03D4  1283               	bcf	3,5	;RP0=0, select bank0
  1337  03D5  1303               	bcf	3,6	;RP1=0, select bank0
  1338  03D6  0093               	movwf	19	;volatile
  1339  03D7                     l107:
  1340  03D7  0008               	return
  1341  03D8                     __end_of_spiWrite:
  1342                           
  1343                           	psect	text2
  1344  03DF                     __ptext2:	
  1345 ;; *************** function _spiRead *****************
  1346 ;; Defined at:
  1347 ;;		line 44 in file "C:/Users/danie/OneDrive/Desktop/DIGITAL2/proyecto/master.X/SPI.c"
  1348 ;; Parameters:    Size  Location     Type
  1349 ;;		None
  1350 ;; Auto vars:     Size  Location     Type
  1351 ;;		None
  1352 ;; Return value:  Size  Location     Type
  1353 ;;                  1    wreg      unsigned char 
  1354 ;; Registers used:
  1355 ;;		wreg, status,2, status,0, pclath, cstack
  1356 ;; Tracked objects:
  1357 ;;		On entry : 0/0
  1358 ;;		On exit  : 0/0
  1359 ;;		Unchanged: 0/0
  1360 ;; Data sizes:     COMMON   BANK0   BANK1   BANK3   BANK2
  1361 ;;      Params:         0       0       0       0       0
  1362 ;;      Locals:         0       0       0       0       0
  1363 ;;      Temps:          0       0       0       0       0
  1364 ;;      Totals:         0       0       0       0       0
  1365 ;;Total ram usage:        0 bytes
  1366 ;; Hardware stack levels used:    1
  1367 ;; Hardware stack levels required when called:    1
  1368 ;; This function calls:
  1369 ;;		_spiReceiveWait
  1370 ;; This function is called by:
  1371 ;;		_main
  1372 ;; This function uses a non-reentrant model
  1373 ;;
  1374                           
  1375                           
  1376                           ;psect for function _spiRead
  1377  03DF                     _spiRead:
  1378  03DF                     l1213:	
  1379                           ;incstack = 0
  1380                           ; Regs used in _spiRead: [wreg+status,2+status,0+pclath+cstack]
  1381                           
  1382                           
  1383                           ;C:/Users/danie/OneDrive/Desktop/DIGITAL2/proyecto/master.X/SPI.c: 45:     spiReceiveWai
      +                          t();
  1384  03DF  120A  118A  23D8  120A  118A  	fcall	_spiReceiveWait
  1385  03E4                     l1215:
  1386                           
  1387                           ;C:/Users/danie/OneDrive/Desktop/DIGITAL2/proyecto/master.X/SPI.c: 46:     return(SSPBUF
      +                          );
  1388  03E4  1283               	bcf	3,5	;RP0=0, select bank0
  1389  03E5  1303               	bcf	3,6	;RP1=0, select bank0
  1390  03E6  0813               	movf	19,w	;volatile
  1391  03E7                     l110:
  1392  03E7  0008               	return
  1393  03E8                     __end_of_spiRead:
  1394                           
  1395                           	psect	text3
  1396  03D8                     __ptext3:	
  1397 ;; *************** function _spiReceiveWait *****************
  1398 ;; Defined at:
  1399 ;;		line 28 in file "C:/Users/danie/OneDrive/Desktop/DIGITAL2/proyecto/master.X/SPI.c"
  1400 ;; Parameters:    Size  Location     Type
  1401 ;;		None
  1402 ;; Auto vars:     Size  Location     Type
  1403 ;;		None
  1404 ;; Return value:  Size  Location     Type
  1405 ;;                  1    wreg      void 
  1406 ;; Registers used:
  1407 ;;		None
  1408 ;; Tracked objects:
  1409 ;;		On entry : 0/0
  1410 ;;		On exit  : 0/0
  1411 ;;		Unchanged: 0/0
  1412 ;; Data sizes:     COMMON   BANK0   BANK1   BANK3   BANK2
  1413 ;;      Params:         0       0       0       0       0
  1414 ;;      Locals:         0       0       0       0       0
  1415 ;;      Temps:          0       0       0       0       0
  1416 ;;      Totals:         0       0       0       0       0
  1417 ;;Total ram usage:        0 bytes
  1418 ;; Hardware stack levels used:    1
  1419 ;; This function calls:
  1420 ;;		Nothing
  1421 ;; This function is called by:
  1422 ;;		_spiRead
  1423 ;; This function uses a non-reentrant model
  1424 ;;
  1425                           
  1426                           
  1427                           ;psect for function _spiReceiveWait
  1428  03D8                     _spiReceiveWait:
  1429  03D8                     l1165:	
  1430                           ;incstack = 0
  1431                           ; Regs used in _spiReceiveWait: []
  1432                           
  1433  03D8                     l101:	
  1434                           ;C:/Users/danie/OneDrive/Desktop/DIGITAL2/proyecto/master.X/SPI.c: 29:     while ( !SSPS
      +                          TATbits.BF );
  1435                           
  1436  03D8  1683               	bsf	3,5	;RP0=1, select bank1
  1437  03D9  1303               	bcf	3,6	;RP1=0, select bank1
  1438  03DA  1C14               	btfss	20,0	;volatile
  1439  03DB  2BDD               	goto	u221
  1440  03DC  2BDE               	goto	u220
  1441  03DD                     u221:
  1442  03DD  2BD8               	goto	l101
  1443  03DE                     u220:
  1444  03DE                     l104:
  1445  03DE  0008               	return
  1446  03DF                     __end_of_spiReceiveWait:
  1447                           
  1448                           	psect	text4
  1449  0566                     __ptext4:	
  1450 ;; *************** function _setup *****************
  1451 ;; Defined at:
  1452 ;;		line 133 in file "C:/Users/danie/OneDrive/Desktop/DIGITAL2/proyecto/master.X/master.c"
  1453 ;; Parameters:    Size  Location     Type
  1454 ;;		None
  1455 ;; Auto vars:     Size  Location     Type
  1456 ;;		None
  1457 ;; Return value:  Size  Location     Type
  1458 ;;                  1    wreg      void 
  1459 ;; Registers used:
  1460 ;;		wreg, fsr0l, fsr0h, status,2, status,0, pclath, cstack
  1461 ;; Tracked objects:
  1462 ;;		On entry : 0/0
  1463 ;;		On exit  : 0/0
  1464 ;;		Unchanged: 0/0
  1465 ;; Data sizes:     COMMON   BANK0   BANK1   BANK3   BANK2
  1466 ;;      Params:         0       0       0       0       0
  1467 ;;      Locals:         0       0       0       0       0
  1468 ;;      Temps:          1       0       0       0       0
  1469 ;;      Totals:         1       0       0       0       0
  1470 ;;Total ram usage:        1 bytes
  1471 ;; Hardware stack levels used:    1
  1472 ;; Hardware stack levels required when called:    3
  1473 ;; This function calls:
  1474 ;;		_Lcd_Init
  1475 ;;		_Lcd_Set_Cursor
  1476 ;;		_Lcd_Write_String
  1477 ;;		_initUSART
  1478 ;;		_spiInit
  1479 ;; This function is called by:
  1480 ;;		_main
  1481 ;; This function uses a non-reentrant model
  1482 ;;
  1483                           
  1484                           
  1485                           ;psect for function _setup
  1486  0566                     _setup:
  1487  0566                     l1167:	
  1488                           ;incstack = 0
  1489                           ; Regs used in _setup: [wreg-fsr0h+status,2+status,0+pclath+cstack]
  1490                           
  1491                           
  1492                           ;C:/Users/danie/OneDrive/Desktop/DIGITAL2/proyecto/master.X/master.c: 134:     ANSEL = 0
      +                          ;
  1493  0566  1683               	bsf	3,5	;RP0=1, select bank3
  1494  0567  1703               	bsf	3,6	;RP1=1, select bank3
  1495  0568  0188               	clrf	8	;volatile
  1496                           
  1497                           ;C:/Users/danie/OneDrive/Desktop/DIGITAL2/proyecto/master.X/master.c: 135:     ANSELH = 
      +                          0;
  1498  0569  0189               	clrf	9	;volatile
  1499                           
  1500                           ;C:/Users/danie/OneDrive/Desktop/DIGITAL2/proyecto/master.X/master.c: 137:     TRISA = 0
      +                          ;
  1501  056A  1683               	bsf	3,5	;RP0=1, select bank1
  1502  056B  1303               	bcf	3,6	;RP1=0, select bank1
  1503  056C  0185               	clrf	5	;volatile
  1504                           
  1505                           ;C:/Users/danie/OneDrive/Desktop/DIGITAL2/proyecto/master.X/master.c: 138:     PORTA = 0
      +                          ;
  1506  056D  1283               	bcf	3,5	;RP0=0, select bank0
  1507  056E  1303               	bcf	3,6	;RP1=0, select bank0
  1508  056F  0185               	clrf	5	;volatile
  1509  0570                     l1169:
  1510                           
  1511                           ;C:/Users/danie/OneDrive/Desktop/DIGITAL2/proyecto/master.X/master.c: 141:     TRISC2 = 
      +                          0;
  1512  0570  1683               	bsf	3,5	;RP0=1, select bank1
  1513  0571  1303               	bcf	3,6	;RP1=0, select bank1
  1514  0572  1107               	bcf	7,2	;volatile
  1515  0573                     l1171:
  1516                           
  1517                           ;C:/Users/danie/OneDrive/Desktop/DIGITAL2/proyecto/master.X/master.c: 142:     TRISC1 = 
      +                          0;
  1518  0573  1087               	bcf	7,1	;volatile
  1519  0574                     l1173:
  1520                           
  1521                           ;C:/Users/danie/OneDrive/Desktop/DIGITAL2/proyecto/master.X/master.c: 143:     TRISC0 = 
      +                          0;
  1522  0574  1007               	bcf	7,0	;volatile
  1523                           
  1524                           ;C:/Users/danie/OneDrive/Desktop/DIGITAL2/proyecto/master.X/master.c: 145:     TRISB = 0
      +                          ;
  1525  0575  0186               	clrf	6	;volatile
  1526                           
  1527                           ;C:/Users/danie/OneDrive/Desktop/DIGITAL2/proyecto/master.X/master.c: 146:     TRISD = 0
      +                          ;
  1528  0576  0188               	clrf	8	;volatile
  1529                           
  1530                           ;C:/Users/danie/OneDrive/Desktop/DIGITAL2/proyecto/master.X/master.c: 147:     TRISE = 0
      +                          ;
  1531  0577  0189               	clrf	9	;volatile
  1532                           
  1533                           ;C:/Users/danie/OneDrive/Desktop/DIGITAL2/proyecto/master.X/master.c: 148:     PORTB = 0
      +                          ;
  1534  0578  1283               	bcf	3,5	;RP0=0, select bank0
  1535  0579  1303               	bcf	3,6	;RP1=0, select bank0
  1536  057A  0186               	clrf	6	;volatile
  1537                           
  1538                           ;C:/Users/danie/OneDrive/Desktop/DIGITAL2/proyecto/master.X/master.c: 149:     PORTD = 0
      +                          ;
  1539  057B  0188               	clrf	8	;volatile
  1540                           
  1541                           ;C:/Users/danie/OneDrive/Desktop/DIGITAL2/proyecto/master.X/master.c: 150:     PORTE = 0
      +                          ;
  1542  057C  0189               	clrf	9	;volatile
  1543  057D                     l1175:
  1544                           
  1545                           ;C:/Users/danie/OneDrive/Desktop/DIGITAL2/proyecto/master.X/master.c: 153:     PORTCbits
      +                          .RC2 = 1;
  1546  057D  1507               	bsf	7,2	;volatile
  1547  057E                     l1177:
  1548                           
  1549                           ;C:/Users/danie/OneDrive/Desktop/DIGITAL2/proyecto/master.X/master.c: 154:     PORTCbits
      +                          .RC1 = 1;
  1550  057E  1487               	bsf	7,1	;volatile
  1551  057F                     l1179:
  1552                           
  1553                           ;C:/Users/danie/OneDrive/Desktop/DIGITAL2/proyecto/master.X/master.c: 155:     PORTCbits
      +                          .RC0 = 1;
  1554  057F  1407               	bsf	7,0	;volatile
  1555  0580                     l1181:
  1556                           
  1557                           ;C:/Users/danie/OneDrive/Desktop/DIGITAL2/proyecto/master.X/master.c: 158:     spiInit(S
      +                          PI_MASTER_OSC_DIV4, SPI_DATA_SAMPLE_MIDDLE, SPI_CLOCK_IDLE_LOW, SPI_IDLE_2_ACTIVE);
  1558  0580  01F0               	clrf	spiInit@sDataSample
  1559  0581  01F1               	clrf	spiInit@sClockIdle
  1560  0582  01F2               	clrf	spiInit@sTransmitEdge
  1561  0583  3020               	movlw	32
  1562  0584  120A  118A  2413  120A  118A  	fcall	_spiInit
  1563  0589                     l1183:
  1564                           
  1565                           ;C:/Users/danie/OneDrive/Desktop/DIGITAL2/proyecto/master.X/master.c: 162:     initUSART
      +                          ();
  1566  0589  120A  118A  2443  120A  118A  	fcall	_initUSART
  1567  058E                     l1185:
  1568                           
  1569                           ;C:/Users/danie/OneDrive/Desktop/DIGITAL2/proyecto/master.X/master.c: 165:     Lcd_Init(
      +                          );
  1570  058E  120A  118A  24A9  120A  118A  	fcall	_Lcd_Init
  1571  0593                     l1187:
  1572                           
  1573                           ;C:/Users/danie/OneDrive/Desktop/DIGITAL2/proyecto/master.X/master.c: 168:     Lcd_Set_C
      +                          ursor(1,3);
  1574  0593  3003               	movlw	3
  1575  0594  00F8               	movwf	??_setup
  1576  0595  0878               	movf	??_setup,w
  1577  0596  00F4               	movwf	Lcd_Set_Cursor@b
  1578  0597  3001               	movlw	1
  1579  0598  120A  118A  2460  120A  118A  	fcall	_Lcd_Set_Cursor
  1580  059D                     l1189:
  1581                           
  1582                           ;C:/Users/danie/OneDrive/Desktop/DIGITAL2/proyecto/master.X/master.c: 169:     Lcd_Write
      +                          _String("S1");
  1583  059D  3005               	movlw	(low ((STR_1-__stringbase)| (0+32768)))& (0+255)
  1584  059E  120A  118A  2484  120A  118A  	fcall	_Lcd_Write_String
  1585  05A3                     l1191:
  1586                           
  1587                           ;C:/Users/danie/OneDrive/Desktop/DIGITAL2/proyecto/master.X/master.c: 170:     Lcd_Set_C
      +                          ursor(2,1);
  1588  05A3  01F4               	clrf	Lcd_Set_Cursor@b
  1589  05A4  0AF4               	incf	Lcd_Set_Cursor@b,f
  1590  05A5  3002               	movlw	2
  1591  05A6  120A  118A  2460  120A  118A  	fcall	_Lcd_Set_Cursor
  1592  05AB                     l1193:
  1593                           
  1594                           ;C:/Users/danie/OneDrive/Desktop/DIGITAL2/proyecto/master.X/master.c: 171:     Lcd_Write
      +                          _String("000");
  1595  05AB  3001               	movlw	(low ((STR_2-__stringbase)| (0+32768)))& (0+255)
  1596  05AC  120A  118A  2484  120A  118A  	fcall	_Lcd_Write_String
  1597  05B1                     l1195:
  1598                           
  1599                           ;C:/Users/danie/OneDrive/Desktop/DIGITAL2/proyecto/master.X/master.c: 172:     Lcd_Set_C
      +                          ursor(1,8);
  1600  05B1  3008               	movlw	8
  1601  05B2  00F8               	movwf	??_setup
  1602  05B3  0878               	movf	??_setup,w
  1603  05B4  00F4               	movwf	Lcd_Set_Cursor@b
  1604  05B5  3001               	movlw	1
  1605  05B6  120A  118A  2460  120A  118A  	fcall	_Lcd_Set_Cursor
  1606  05BB                     l1197:
  1607                           
  1608                           ;C:/Users/danie/OneDrive/Desktop/DIGITAL2/proyecto/master.X/master.c: 173:     Lcd_Write
      +                          _String("S2");
  1609  05BB  3008               	movlw	(low ((STR_3-__stringbase)| (0+32768)))& (0+255)
  1610  05BC  120A  118A  2484  120A  118A  	fcall	_Lcd_Write_String
  1611  05C1                     l1199:
  1612                           
  1613                           ;C:/Users/danie/OneDrive/Desktop/DIGITAL2/proyecto/master.X/master.c: 174:     Lcd_Set_C
      +                          ursor(2,7);
  1614  05C1  3007               	movlw	7
  1615  05C2  00F8               	movwf	??_setup
  1616  05C3  0878               	movf	??_setup,w
  1617  05C4  00F4               	movwf	Lcd_Set_Cursor@b
  1618  05C5  3002               	movlw	2
  1619  05C6  120A  118A  2460  120A  118A  	fcall	_Lcd_Set_Cursor
  1620  05CB                     l1201:
  1621                           
  1622                           ;C:/Users/danie/OneDrive/Desktop/DIGITAL2/proyecto/master.X/master.c: 175:     Lcd_Write
      +                          _String("000");
  1623  05CB  3001               	movlw	(low ((STR_2-__stringbase)| (0+32768)))& (0+255)
  1624  05CC  120A  118A  2484  120A  118A  	fcall	_Lcd_Write_String
  1625  05D1                     l1203:
  1626                           
  1627                           ;C:/Users/danie/OneDrive/Desktop/DIGITAL2/proyecto/master.X/master.c: 176:     Lcd_Set_C
      +                          ursor(1,14);
  1628  05D1  300E               	movlw	14
  1629  05D2  00F8               	movwf	??_setup
  1630  05D3  0878               	movf	??_setup,w
  1631  05D4  00F4               	movwf	Lcd_Set_Cursor@b
  1632  05D5  3001               	movlw	1
  1633  05D6  120A  118A  2460  120A  118A  	fcall	_Lcd_Set_Cursor
  1634  05DB                     l1205:
  1635                           
  1636                           ;C:/Users/danie/OneDrive/Desktop/DIGITAL2/proyecto/master.X/master.c: 177:     Lcd_Write
      +                          _String("S3");
  1637  05DB  300B               	movlw	(low ((STR_5-__stringbase)| (0+32768)))& (0+255)
  1638  05DC  120A  118A  2484  120A  118A  	fcall	_Lcd_Write_String
  1639  05E1                     l1207:
  1640                           
  1641                           ;C:/Users/danie/OneDrive/Desktop/DIGITAL2/proyecto/master.X/master.c: 178:     Lcd_Set_C
      +                          ursor(2,13);
  1642  05E1  300D               	movlw	13
  1643  05E2  00F8               	movwf	??_setup
  1644  05E3  0878               	movf	??_setup,w
  1645  05E4  00F4               	movwf	Lcd_Set_Cursor@b
  1646  05E5  3002               	movlw	2
  1647  05E6  120A  118A  2460  120A  118A  	fcall	_Lcd_Set_Cursor
  1648  05EB                     l1209:
  1649                           
  1650                           ;C:/Users/danie/OneDrive/Desktop/DIGITAL2/proyecto/master.X/master.c: 179:     Lcd_Write
      +                          _String("00");
  1651  05EB  3002               	movlw	(low (((STR_2+1)-__stringbase)| (0+32768)))& (0+255)
  1652  05EC  120A  118A  2484  120A  118A  	fcall	_Lcd_Write_String
  1653  05F1                     l81:
  1654  05F1  0008               	return
  1655  05F2                     __end_of_setup:
  1656                           
  1657                           	psect	text5
  1658  0413                     __ptext5:	
  1659 ;; *************** function _spiInit *****************
  1660 ;; Defined at:
  1661 ;;		line 10 in file "C:/Users/danie/OneDrive/Desktop/DIGITAL2/proyecto/master.X/SPI.c"
  1662 ;; Parameters:    Size  Location     Type
  1663 ;;  sType           1    wreg     enum E1264
  1664 ;;  sDataSample     1    0[COMMON] enum E1276
  1665 ;;  sClockIdle      1    1[COMMON] enum E1272
  1666 ;;  sTransmitEdg    1    2[COMMON] enum E1280
  1667 ;; Auto vars:     Size  Location     Type
  1668 ;;  sType           1    3[COMMON] enum E1264
  1669 ;; Return value:  Size  Location     Type
  1670 ;;                  1    wreg      void 
  1671 ;; Registers used:
  1672 ;;		wreg, status,2, status,0
  1673 ;; Tracked objects:
  1674 ;;		On entry : 0/0
  1675 ;;		On exit  : 0/0
  1676 ;;		Unchanged: 0/0
  1677 ;; Data sizes:     COMMON   BANK0   BANK1   BANK3   BANK2
  1678 ;;      Params:         3       0       0       0       0
  1679 ;;      Locals:         1       0       0       0       0
  1680 ;;      Temps:          0       0       0       0       0
  1681 ;;      Totals:         4       0       0       0       0
  1682 ;;Total ram usage:        4 bytes
  1683 ;; Hardware stack levels used:    1
  1684 ;; This function calls:
  1685 ;;		Nothing
  1686 ;; This function is called by:
  1687 ;;		_setup
  1688 ;; This function uses a non-reentrant model
  1689 ;;
  1690                           
  1691                           
  1692                           ;psect for function _spiInit
  1693  0413                     _spiInit:
  1694                           
  1695                           ;incstack = 0
  1696                           ; Regs used in _spiInit: [wreg+status,2+status,0]
  1697                           ;spiInit@sType stored from wreg
  1698  0413  00F3               	movwf	spiInit@sType
  1699  0414                     l1097:
  1700                           
  1701                           ;C:/Users/danie/OneDrive/Desktop/DIGITAL2/proyecto/master.X/SPI.c: 10: void spiInit(Spi_
      +                          Type sType, Spi_Data_Sample sDataSample, Spi_Clock_Idle sClockIdle, Spi_Transmit_Edge sT
      +                          ransmitEdge);C:/Users/danie/OneDrive/Desktop/DIGITAL2/proyecto/master.X/SPI.c: 11: {;C:/
      +                          Users/danie/OneDrive/Desktop/DIGITAL2/proyecto/master.X/SPI.c: 12:     TRISC5 = 0;
  1702  0414  1683               	bsf	3,5	;RP0=1, select bank1
  1703  0415  1303               	bcf	3,6	;RP1=0, select bank1
  1704  0416  1287               	bcf	7,5	;volatile
  1705                           
  1706                           ;C:/Users/danie/OneDrive/Desktop/DIGITAL2/proyecto/master.X/SPI.c: 14:     if(sType & 0b
      +                          00000100)
  1707  0417  1D73               	btfss	spiInit@sType,2
  1708  0418  2C1A               	goto	u201
  1709  0419  2C1B               	goto	u200
  1710  041A                     u201:
  1711  041A  2C1F               	goto	l1103
  1712  041B                     u200:
  1713  041B                     l1099:
  1714                           
  1715                           ;C:/Users/danie/OneDrive/Desktop/DIGITAL2/proyecto/master.X/SPI.c: 15:     {;C:/Users/da
      +                          nie/OneDrive/Desktop/DIGITAL2/proyecto/master.X/SPI.c: 16:         SSPSTAT = sTransmitEd
      +                          ge;
  1716  041B  0872               	movf	spiInit@sTransmitEdge,w
  1717  041C  0094               	movwf	20	;volatile
  1718  041D                     l1101:
  1719                           
  1720                           ;C:/Users/danie/OneDrive/Desktop/DIGITAL2/proyecto/master.X/SPI.c: 17:         TRISC3 = 
      +                          1;
  1721  041D  1587               	bsf	7,3	;volatile
  1722                           
  1723                           ;C:/Users/danie/OneDrive/Desktop/DIGITAL2/proyecto/master.X/SPI.c: 18:     }
  1724  041E  2C23               	goto	l97
  1725  041F                     l1103:
  1726                           
  1727                           ;C:/Users/danie/OneDrive/Desktop/DIGITAL2/proyecto/master.X/SPI.c: 20:     {;C:/Users/da
      +                          nie/OneDrive/Desktop/DIGITAL2/proyecto/master.X/SPI.c: 21:         SSPSTAT = sDataSample
      +                           | sTransmitEdge;
  1728  041F  0870               	movf	spiInit@sDataSample,w
  1729  0420  0472               	iorwf	spiInit@sTransmitEdge,w
  1730  0421  0094               	movwf	20	;volatile
  1731  0422                     l1105:
  1732                           
  1733                           ;C:/Users/danie/OneDrive/Desktop/DIGITAL2/proyecto/master.X/SPI.c: 22:         TRISC3 = 
      +                          0;
  1734  0422  1187               	bcf	7,3	;volatile
  1735  0423                     l97:	
  1736                           ;C:/Users/danie/OneDrive/Desktop/DIGITAL2/proyecto/master.X/SPI.c: 23:     }
  1737                           
  1738                           
  1739                           ;C:/Users/danie/OneDrive/Desktop/DIGITAL2/proyecto/master.X/SPI.c: 25:     SSPCON = sTyp
      +                          e | sClockIdle;
  1740  0423  0873               	movf	spiInit@sType,w
  1741  0424  0471               	iorwf	spiInit@sClockIdle,w
  1742  0425  1283               	bcf	3,5	;RP0=0, select bank0
  1743  0426  1303               	bcf	3,6	;RP1=0, select bank0
  1744  0427  0094               	movwf	20	;volatile
  1745  0428                     l98:
  1746  0428  0008               	return
  1747  0429                     __end_of_spiInit:
  1748                           
  1749                           	psect	text6
  1750  0443                     __ptext6:	
  1751 ;; *************** function _initUSART *****************
  1752 ;; Defined at:
  1753 ;;		line 3 in file "C:/Users/danie/OneDrive/Desktop/DIGITAL2/proyecto/master.X/USART.c"
  1754 ;; Parameters:    Size  Location     Type
  1755 ;;		None
  1756 ;; Auto vars:     Size  Location     Type
  1757 ;;		None
  1758 ;; Return value:  Size  Location     Type
  1759 ;;                  1    wreg      void 
  1760 ;; Registers used:
  1761 ;;		wreg, status,2
  1762 ;; Tracked objects:
  1763 ;;		On entry : 0/0
  1764 ;;		On exit  : 0/0
  1765 ;;		Unchanged: 0/0
  1766 ;; Data sizes:     COMMON   BANK0   BANK1   BANK3   BANK2
  1767 ;;      Params:         0       0       0       0       0
  1768 ;;      Locals:         0       0       0       0       0
  1769 ;;      Temps:          0       0       0       0       0
  1770 ;;      Totals:         0       0       0       0       0
  1771 ;;Total ram usage:        0 bytes
  1772 ;; Hardware stack levels used:    1
  1773 ;; This function calls:
  1774 ;;		Nothing
  1775 ;; This function is called by:
  1776 ;;		_setup
  1777 ;; This function uses a non-reentrant model
  1778 ;;
  1779                           
  1780                           
  1781                           ;psect for function _initUSART
  1782  0443                     _initUSART:
  1783  0443                     l1107:	
  1784                           ;incstack = 0
  1785                           ; Regs used in _initUSART: [wreg+status,2]
  1786                           
  1787                           
  1788                           ;C:/Users/danie/OneDrive/Desktop/DIGITAL2/proyecto/master.X/USART.c: 5:     TRISCbits.TR
      +                          ISC6 = 0;
  1789  0443  1683               	bsf	3,5	;RP0=1, select bank1
  1790  0444  1303               	bcf	3,6	;RP1=0, select bank1
  1791  0445  1307               	bcf	7,6	;volatile
  1792                           
  1793                           ;C:/Users/danie/OneDrive/Desktop/DIGITAL2/proyecto/master.X/USART.c: 6:     TRISCbits.TR
      +                          ISC7 = 1;
  1794  0446  1787               	bsf	7,7	;volatile
  1795  0447                     l1109:
  1796                           
  1797                           ;C:/Users/danie/OneDrive/Desktop/DIGITAL2/proyecto/master.X/USART.c: 9:     SPBRG = 25;
  1798  0447  3019               	movlw	25
  1799  0448  0099               	movwf	25	;volatile
  1800  0449                     l1111:
  1801                           
  1802                           ;C:/Users/danie/OneDrive/Desktop/DIGITAL2/proyecto/master.X/USART.c: 10:     TXSTAbits.B
      +                          RGH = 1;
  1803  0449  1518               	bsf	24,2	;volatile
  1804  044A                     l1113:
  1805                           
  1806                           ;C:/Users/danie/OneDrive/Desktop/DIGITAL2/proyecto/master.X/USART.c: 11:     BAUDCTLbits
      +                          .BRG16 = 0;
  1807  044A  1683               	bsf	3,5	;RP0=1, select bank3
  1808  044B  1703               	bsf	3,6	;RP1=1, select bank3
  1809  044C  1187               	bcf	7,3	;volatile
  1810  044D                     l1115:
  1811                           
  1812                           ;C:/Users/danie/OneDrive/Desktop/DIGITAL2/proyecto/master.X/USART.c: 12:     SPBRGH = 0;
  1813  044D  1683               	bsf	3,5	;RP0=1, select bank1
  1814  044E  1303               	bcf	3,6	;RP1=0, select bank1
  1815  044F  019A               	clrf	26	;volatile
  1816  0450                     l1117:
  1817                           
  1818                           ;C:/Users/danie/OneDrive/Desktop/DIGITAL2/proyecto/master.X/USART.c: 15:     TXSTAbits.S
      +                          YNC = 0;
  1819  0450  1218               	bcf	24,4	;volatile
  1820  0451                     l1119:
  1821                           
  1822                           ;C:/Users/danie/OneDrive/Desktop/DIGITAL2/proyecto/master.X/USART.c: 16:     RCSTAbits.S
      +                          PEN = 1;
  1823  0451  1283               	bcf	3,5	;RP0=0, select bank0
  1824  0452  1303               	bcf	3,6	;RP1=0, select bank0
  1825  0453  1798               	bsf	24,7	;volatile
  1826  0454                     l1121:
  1827                           
  1828                           ;C:/Users/danie/OneDrive/Desktop/DIGITAL2/proyecto/master.X/USART.c: 17:     TXSTAbits.T
      +                          X9 = 0;
  1829  0454  1683               	bsf	3,5	;RP0=1, select bank1
  1830  0455  1303               	bcf	3,6	;RP1=0, select bank1
  1831  0456  1318               	bcf	24,6	;volatile
  1832  0457                     l1123:
  1833                           
  1834                           ;C:/Users/danie/OneDrive/Desktop/DIGITAL2/proyecto/master.X/USART.c: 18:     TXSTAbits.T
      +                          XEN = 1;
  1835  0457  1698               	bsf	24,5	;volatile
  1836  0458                     l1125:
  1837                           
  1838                           ;C:/Users/danie/OneDrive/Desktop/DIGITAL2/proyecto/master.X/USART.c: 21:     PIE1bits.RC
      +                          IE = 1;
  1839  0458  168C               	bsf	12,5	;volatile
  1840  0459                     l1127:
  1841                           
  1842                           ;C:/Users/danie/OneDrive/Desktop/DIGITAL2/proyecto/master.X/USART.c: 22:     RCSTAbits.R
      +                          X9 = 0;
  1843  0459  1283               	bcf	3,5	;RP0=0, select bank0
  1844  045A  1303               	bcf	3,6	;RP1=0, select bank0
  1845  045B  1318               	bcf	24,6	;volatile
  1846  045C                     l1129:
  1847                           
  1848                           ;C:/Users/danie/OneDrive/Desktop/DIGITAL2/proyecto/master.X/USART.c: 23:     RCSTAbits.C
      +                          REN = 1;
  1849  045C  1618               	bsf	24,4	;volatile
  1850  045D                     l1131:
  1851                           
  1852                           ;C:/Users/danie/OneDrive/Desktop/DIGITAL2/proyecto/master.X/USART.c: 26:     INTCONbits.
      +                          GIE = 1;
  1853  045D  178B               	bsf	11,7	;volatile
  1854  045E                     l1133:
  1855                           
  1856                           ;C:/Users/danie/OneDrive/Desktop/DIGITAL2/proyecto/master.X/USART.c: 27:     INTCONbits.
      +                          PEIE = 1;
  1857  045E  170B               	bsf	11,6	;volatile
  1858  045F                     l129:
  1859  045F  0008               	return
  1860  0460                     __end_of_initUSART:
  1861                           
  1862                           	psect	text7
  1863  0484                     __ptext7:	
  1864 ;; *************** function _Lcd_Write_String *****************
  1865 ;; Defined at:
  1866 ;;		line 72 in file "C:/Users/danie/OneDrive/Desktop/DIGITAL2/proyecto/master.X/lcd.c"
  1867 ;; Parameters:    Size  Location     Type
  1868 ;;  a               1    wreg     PTR unsigned char 
  1869 ;;		 -> STR_6(3), STR_5(3), STR_4(4), STR_3(3), 
  1870 ;;		 -> STR_2(4), STR_1(3), 
  1871 ;; Auto vars:     Size  Location     Type
  1872 ;;  a               1    5[COMMON] PTR unsigned char 
  1873 ;;		 -> STR_6(3), STR_5(3), STR_4(4), STR_3(3), 
  1874 ;;		 -> STR_2(4), STR_1(3), 
  1875 ;;  i               2    3[COMMON] int 
  1876 ;; Return value:  Size  Location     Type
  1877 ;;                  1    wreg      void 
  1878 ;; Registers used:
  1879 ;;		wreg, fsr0l, fsr0h, status,2, status,0, pclath, cstack
  1880 ;; Tracked objects:
  1881 ;;		On entry : 0/0
  1882 ;;		On exit  : 0/0
  1883 ;;		Unchanged: 0/0
  1884 ;; Data sizes:     COMMON   BANK0   BANK1   BANK3   BANK2
  1885 ;;      Params:         0       0       0       0       0
  1886 ;;      Locals:         3       0       0       0       0
  1887 ;;      Temps:          0       0       0       0       0
  1888 ;;      Totals:         3       0       0       0       0
  1889 ;;Total ram usage:        3 bytes
  1890 ;; Hardware stack levels used:    1
  1891 ;; Hardware stack levels required when called:    2
  1892 ;; This function calls:
  1893 ;;		_Lcd_Write_Char
  1894 ;; This function is called by:
  1895 ;;		_setup
  1896 ;; This function uses a non-reentrant model
  1897 ;;
  1898                           
  1899                           
  1900                           ;psect for function _Lcd_Write_String
  1901  0484                     _Lcd_Write_String:
  1902                           
  1903                           ;incstack = 0
  1904                           ; Regs used in _Lcd_Write_String: [wreg-fsr0h+status,2+status,0+pclath+cstack]
  1905                           ;Lcd_Write_String@a stored from wreg
  1906  0484  00F5               	movwf	Lcd_Write_String@a
  1907  0485                     l1157:
  1908                           
  1909                           ;C:/Users/danie/OneDrive/Desktop/DIGITAL2/proyecto/master.X/lcd.c: 72: void Lcd_Write_St
      +                          ring(char *a);C:/Users/danie/OneDrive/Desktop/DIGITAL2/proyecto/master.X/lcd.c: 73: {;C:
      +                          /Users/danie/OneDrive/Desktop/DIGITAL2/proyecto/master.X/lcd.c: 74:  int i;;C:/Users/dan
      +                          ie/OneDrive/Desktop/DIGITAL2/proyecto/master.X/lcd.c: 75:  for(i=0;a[i]!='\0';i++)
  1910  0485  01F3               	clrf	Lcd_Write_String@i
  1911  0486  01F4               	clrf	Lcd_Write_String@i+1
  1912  0487  2C9B               	goto	l1163
  1913  0488                     l1159:
  1914                           
  1915                           ;C:/Users/danie/OneDrive/Desktop/DIGITAL2/proyecto/master.X/lcd.c: 76:     Lcd_Write_Cha
      +                          r(a[i]);
  1916  0488  0873               	movf	Lcd_Write_String@i,w
  1917  0489  0775               	addwf	Lcd_Write_String@a,w
  1918  048A  0084               	movwf	4
  1919  048B  120A  118A  2003  120A  118A  	fcall	stringdir
  1920  0490  120A  118A  23FD  120A  118A  	fcall	_Lcd_Write_Char
  1921  0495                     l1161:
  1922  0495  3001               	movlw	1
  1923  0496  07F3               	addwf	Lcd_Write_String@i,f
  1924  0497  1803               	skipnc
  1925  0498  0AF4               	incf	Lcd_Write_String@i+1,f
  1926  0499  3000               	movlw	0
  1927  049A  07F4               	addwf	Lcd_Write_String@i+1,f
  1928  049B                     l1163:
  1929  049B  0873               	movf	Lcd_Write_String@i,w
  1930  049C  0775               	addwf	Lcd_Write_String@a,w
  1931  049D  0084               	movwf	4
  1932  049E  120A  118A  2003  120A  118A  	fcall	stringdir
  1933  04A3  3A00               	xorlw	0
  1934  04A4  1D03               	skipz
  1935  04A5  2CA7               	goto	u211
  1936  04A6  2CA8               	goto	u210
  1937  04A7                     u211:
  1938  04A7  2C88               	goto	l1159
  1939  04A8                     u210:
  1940  04A8                     l161:
  1941  04A8  0008               	return
  1942  04A9                     __end_of_Lcd_Write_String:
  1943                           
  1944                           	psect	text8
  1945  03FD                     __ptext8:	
  1946 ;; *************** function _Lcd_Write_Char *****************
  1947 ;; Defined at:
  1948 ;;		line 63 in file "C:/Users/danie/OneDrive/Desktop/DIGITAL2/proyecto/master.X/lcd.c"
  1949 ;; Parameters:    Size  Location     Type
  1950 ;;  a               1    wreg     unsigned char 
  1951 ;; Auto vars:     Size  Location     Type
  1952 ;;  a               1    2[COMMON] unsigned char 
  1953 ;; Return value:  Size  Location     Type
  1954 ;;                  1    wreg      void 
  1955 ;; Registers used:
  1956 ;;		wreg, status,2, status,0, pclath, cstack
  1957 ;; Tracked objects:
  1958 ;;		On entry : 0/0
  1959 ;;		On exit  : 0/0
  1960 ;;		Unchanged: 0/0
  1961 ;; Data sizes:     COMMON   BANK0   BANK1   BANK3   BANK2
  1962 ;;      Params:         0       0       0       0       0
  1963 ;;      Locals:         1       0       0       0       0
  1964 ;;      Temps:          1       0       0       0       0
  1965 ;;      Totals:         2       0       0       0       0
  1966 ;;Total ram usage:        2 bytes
  1967 ;; Hardware stack levels used:    1
  1968 ;; Hardware stack levels required when called:    1
  1969 ;; This function calls:
  1970 ;;		_Lcd_Port
  1971 ;; This function is called by:
  1972 ;;		_main
  1973 ;;		_Lcd_Write_String
  1974 ;; This function uses a non-reentrant model
  1975 ;;
  1976                           
  1977                           
  1978                           ;psect for function _Lcd_Write_Char
  1979  03FD                     _Lcd_Write_Char:
  1980                           
  1981                           ;incstack = 0
  1982                           ; Regs used in _Lcd_Write_Char: [wreg+status,2+status,0+pclath+cstack]
  1983                           ;Lcd_Write_Char@a stored from wreg
  1984  03FD  00F2               	movwf	Lcd_Write_Char@a
  1985  03FE                     l1065:
  1986                           
  1987                           ;C:/Users/danie/OneDrive/Desktop/DIGITAL2/proyecto/master.X/lcd.c: 63: void Lcd_Write_Ch
      +                          ar(char a);C:/Users/danie/OneDrive/Desktop/DIGITAL2/proyecto/master.X/lcd.c: 64: {;C:/Us
      +                          ers/danie/OneDrive/Desktop/DIGITAL2/proyecto/master.X/lcd.c: 65:     RE0 = 1;
  1988  03FE  1283               	bcf	3,5	;RP0=0, select bank0
  1989  03FF  1303               	bcf	3,6	;RP1=0, select bank0
  1990  0400  1409               	bsf	9,0	;volatile
  1991  0401                     l1067:
  1992                           
  1993                           ;C:/Users/danie/OneDrive/Desktop/DIGITAL2/proyecto/master.X/lcd.c: 66:    Lcd_Port(a);
  1994  0401  0872               	movf	Lcd_Write_Char@a,w
  1995  0402  120A  118A  23CC  120A  118A  	fcall	_Lcd_Port
  1996  0407                     l1069:
  1997                           
  1998                           ;C:/Users/danie/OneDrive/Desktop/DIGITAL2/proyecto/master.X/lcd.c: 67:    RE1 = 1;
  1999  0407  1283               	bcf	3,5	;RP0=0, select bank0
  2000  0408  1303               	bcf	3,6	;RP1=0, select bank0
  2001  0409  1489               	bsf	9,1	;volatile
  2002  040A                     l1071:
  2003                           
  2004                           ;C:/Users/danie/OneDrive/Desktop/DIGITAL2/proyecto/master.X/lcd.c: 68:    _delay((unsign
      +                          ed long)((40)*(8000000/4000000.0)));
  2005  040A  301A               	movlw	26
  2006  040B  00F1               	movwf	??_Lcd_Write_Char
  2007  040C                     u417:
  2008  040C  0BF1               	decfsz	??_Lcd_Write_Char,f
  2009  040D  2C0C               	goto	u417
  2010  040E  0000               	nop
  2011  040F                     l1073:
  2012                           
  2013                           ;C:/Users/danie/OneDrive/Desktop/DIGITAL2/proyecto/master.X/lcd.c: 69:    RE1 = 0;
  2014  040F  1283               	bcf	3,5	;RP0=0, select bank0
  2015  0410  1303               	bcf	3,6	;RP1=0, select bank0
  2016  0411  1089               	bcf	9,1	;volatile
  2017  0412                     l155:
  2018  0412  0008               	return
  2019  0413                     __end_of_Lcd_Write_Char:
  2020                           
  2021                           	psect	text9
  2022  0460                     __ptext9:	
  2023 ;; *************** function _Lcd_Set_Cursor *****************
  2024 ;; Defined at:
  2025 ;;		line 30 in file "C:/Users/danie/OneDrive/Desktop/DIGITAL2/proyecto/master.X/lcd.c"
  2026 ;; Parameters:    Size  Location     Type
  2027 ;;  a               1    wreg     unsigned char 
  2028 ;;  b               1    4[COMMON] unsigned char 
  2029 ;; Auto vars:     Size  Location     Type
  2030 ;;  a               1    6[COMMON] unsigned char 
  2031 ;;  temp            1    7[COMMON] unsigned char 
  2032 ;;  y               1    0        unsigned char 
  2033 ;;  z               1    0        unsigned char 
  2034 ;; Return value:  Size  Location     Type
  2035 ;;                  1    wreg      void 
  2036 ;; Registers used:
  2037 ;;		wreg, status,2, status,0, pclath, cstack
  2038 ;; Tracked objects:
  2039 ;;		On entry : 0/0
  2040 ;;		On exit  : 0/0
  2041 ;;		Unchanged: 0/0
  2042 ;; Data sizes:     COMMON   BANK0   BANK1   BANK3   BANK2
  2043 ;;      Params:         1       0       0       0       0
  2044 ;;      Locals:         2       0       0       0       0
  2045 ;;      Temps:          1       0       0       0       0
  2046 ;;      Totals:         4       0       0       0       0
  2047 ;;Total ram usage:        4 bytes
  2048 ;; Hardware stack levels used:    1
  2049 ;; Hardware stack levels required when called:    2
  2050 ;; This function calls:
  2051 ;;		_Lcd_Cmd
  2052 ;; This function is called by:
  2053 ;;		_main
  2054 ;;		_setup
  2055 ;; This function uses a non-reentrant model
  2056 ;;
  2057                           
  2058                           
  2059                           ;psect for function _Lcd_Set_Cursor
  2060  0460                     _Lcd_Set_Cursor:
  2061                           
  2062                           ;incstack = 0
  2063                           ; Regs used in _Lcd_Set_Cursor: [wreg+status,2+status,0+pclath+cstack]
  2064                           ;Lcd_Set_Cursor@a stored from wreg
  2065  0460  00F6               	movwf	Lcd_Set_Cursor@a
  2066  0461                     l1085:
  2067                           
  2068                           ;C:/Users/danie/OneDrive/Desktop/DIGITAL2/proyecto/master.X/lcd.c: 30: void Lcd_Set_Curs
      +                          or(char a, char b);C:/Users/danie/OneDrive/Desktop/DIGITAL2/proyecto/master.X/lcd.c: 31:
      +                           {;C:/Users/danie/OneDrive/Desktop/DIGITAL2/proyecto/master.X/lcd.c: 32:  char temp,z,y;
      +                          ;C:/Users/danie/OneDrive/Desktop/DIGITAL2/proyecto/master.X/lcd.c: 33:  if(a == 1)
  2069  0461  0376               	decf	Lcd_Set_Cursor@a,w
  2070  0462  1D03               	btfss	3,2
  2071  0463  2C65               	goto	u181
  2072  0464  2C66               	goto	u180
  2073  0465                     u181:
  2074  0465  2C72               	goto	l1091
  2075  0466                     u180:
  2076  0466                     l1087:
  2077                           
  2078                           ;C:/Users/danie/OneDrive/Desktop/DIGITAL2/proyecto/master.X/lcd.c: 34:  {;C:/Users/danie
      +                          /OneDrive/Desktop/DIGITAL2/proyecto/master.X/lcd.c: 35:    temp = 0x80 + b - 1;
  2079  0466  0874               	movf	Lcd_Set_Cursor@b,w
  2080  0467  3E7F               	addlw	127
  2081  0468  00F5               	movwf	??_Lcd_Set_Cursor
  2082  0469  0875               	movf	??_Lcd_Set_Cursor,w
  2083  046A  00F7               	movwf	Lcd_Set_Cursor@temp
  2084  046B                     l1089:
  2085                           
  2086                           ;C:/Users/danie/OneDrive/Desktop/DIGITAL2/proyecto/master.X/lcd.c: 36:   Lcd_Cmd(temp);
  2087  046B  0877               	movf	Lcd_Set_Cursor@temp,w
  2088  046C  120A  118A  2429  120A  118A  	fcall	_Lcd_Cmd
  2089                           
  2090                           ;C:/Users/danie/OneDrive/Desktop/DIGITAL2/proyecto/master.X/lcd.c: 37:  }
  2091  0471  2C83               	goto	l149
  2092  0472                     l1091:
  2093  0472  3002               	movlw	2
  2094  0473  0676               	xorwf	Lcd_Set_Cursor@a,w
  2095  0474  1D03               	btfss	3,2
  2096  0475  2C77               	goto	u191
  2097  0476  2C78               	goto	u190
  2098  0477                     u191:
  2099  0477  2C83               	goto	l149
  2100  0478                     u190:
  2101  0478                     l1093:
  2102                           
  2103                           ;C:/Users/danie/OneDrive/Desktop/DIGITAL2/proyecto/master.X/lcd.c: 39:  {;C:/Users/danie
      +                          /OneDrive/Desktop/DIGITAL2/proyecto/master.X/lcd.c: 40:   temp = 0xC0 + b - 1;
  2104  0478  0874               	movf	Lcd_Set_Cursor@b,w
  2105  0479  3EBF               	addlw	191
  2106  047A  00F5               	movwf	??_Lcd_Set_Cursor
  2107  047B  0875               	movf	??_Lcd_Set_Cursor,w
  2108  047C  00F7               	movwf	Lcd_Set_Cursor@temp
  2109  047D                     l1095:
  2110                           
  2111                           ;C:/Users/danie/OneDrive/Desktop/DIGITAL2/proyecto/master.X/lcd.c: 41:   Lcd_Cmd(temp);
  2112  047D  0877               	movf	Lcd_Set_Cursor@temp,w
  2113  047E  120A  118A  2429  120A  118A  	fcall	_Lcd_Cmd
  2114  0483                     l149:
  2115  0483  0008               	return
  2116  0484                     __end_of_Lcd_Set_Cursor:
  2117                           
  2118                           	psect	text10
  2119  04A9                     __ptext10:	
  2120 ;; *************** function _Lcd_Init *****************
  2121 ;; Defined at:
  2122 ;;		line 45 in file "C:/Users/danie/OneDrive/Desktop/DIGITAL2/proyecto/master.X/lcd.c"
  2123 ;; Parameters:    Size  Location     Type
  2124 ;;		None
  2125 ;; Auto vars:     Size  Location     Type
  2126 ;;		None
  2127 ;; Return value:  Size  Location     Type
  2128 ;;                  1    wreg      void 
  2129 ;; Registers used:
  2130 ;;		wreg, status,2, status,0, pclath, cstack
  2131 ;; Tracked objects:
  2132 ;;		On entry : 0/0
  2133 ;;		On exit  : 0/0
  2134 ;;		Unchanged: 0/0
  2135 ;; Data sizes:     COMMON   BANK0   BANK1   BANK3   BANK2
  2136 ;;      Params:         0       0       0       0       0
  2137 ;;      Locals:         0       0       0       0       0
  2138 ;;      Temps:          2       0       0       0       0
  2139 ;;      Totals:         2       0       0       0       0
  2140 ;;Total ram usage:        2 bytes
  2141 ;; Hardware stack levels used:    1
  2142 ;; Hardware stack levels required when called:    2
  2143 ;; This function calls:
  2144 ;;		_Lcd_Cmd
  2145 ;;		_Lcd_Port
  2146 ;; This function is called by:
  2147 ;;		_setup
  2148 ;; This function uses a non-reentrant model
  2149 ;;
  2150                           
  2151                           
  2152                           ;psect for function _Lcd_Init
  2153  04A9                     _Lcd_Init:
  2154  04A9                     l1135:	
  2155                           ;incstack = 0
  2156                           ; Regs used in _Lcd_Init: [wreg+status,2+status,0+pclath+cstack]
  2157                           
  2158                           
  2159                           ;C:/Users/danie/OneDrive/Desktop/DIGITAL2/proyecto/master.X/lcd.c: 46:    _delay((unsign
      +                          ed long)((15)*(8000000/4000.0)));
  2160  04A9  3027               	movlw	39
  2161  04AA  00F5               	movwf	??_Lcd_Init+1
  2162  04AB  30F5               	movlw	245
  2163  04AC  00F4               	movwf	??_Lcd_Init
  2164  04AD                     u427:
  2165  04AD  0BF4               	decfsz	??_Lcd_Init,f
  2166  04AE  2CAD               	goto	u427
  2167  04AF  0BF5               	decfsz	??_Lcd_Init+1,f
  2168  04B0  2CAD               	goto	u427
  2169  04B1                     l1137:
  2170                           
  2171                           ;C:/Users/danie/OneDrive/Desktop/DIGITAL2/proyecto/master.X/lcd.c: 47:   Lcd_Port(0x00);
  2172  04B1  3000               	movlw	0
  2173  04B2  120A  118A  23CC  120A  118A  	fcall	_Lcd_Port
  2174  04B7                     l1139:
  2175                           
  2176                           ;C:/Users/danie/OneDrive/Desktop/DIGITAL2/proyecto/master.X/lcd.c: 48:    _delay((unsign
      +                          ed long)((20)*(8000000/4000.0)));
  2177  04B7  3034               	movlw	52
  2178  04B8  00F5               	movwf	??_Lcd_Init+1
  2179  04B9  30F1               	movlw	241
  2180  04BA  00F4               	movwf	??_Lcd_Init
  2181  04BB                     u437:
  2182  04BB  0BF4               	decfsz	??_Lcd_Init,f
  2183  04BC  2CBB               	goto	u437
  2184  04BD  0BF5               	decfsz	??_Lcd_Init+1,f
  2185  04BE  2CBB               	goto	u437
  2186  04BF  2CC0               	nop2
  2187                           
  2188                           ;C:/Users/danie/OneDrive/Desktop/DIGITAL2/proyecto/master.X/lcd.c: 49:   Lcd_Cmd(0x030);
  2189  04C0  3030               	movlw	48
  2190  04C1  120A  118A  2429  120A  118A  	fcall	_Lcd_Cmd
  2191  04C6                     l1141:
  2192                           
  2193                           ;C:/Users/danie/OneDrive/Desktop/DIGITAL2/proyecto/master.X/lcd.c: 50:  _delay((unsigned
      +                           long)((5)*(8000000/4000.0)));
  2194  04C6  300D               	movlw	13
  2195  04C7  00F5               	movwf	??_Lcd_Init+1
  2196  04C8  30FB               	movlw	251
  2197  04C9  00F4               	movwf	??_Lcd_Init
  2198  04CA                     u447:
  2199  04CA  0BF4               	decfsz	??_Lcd_Init,f
  2200  04CB  2CCA               	goto	u447
  2201  04CC  0BF5               	decfsz	??_Lcd_Init+1,f
  2202  04CD  2CCA               	goto	u447
  2203  04CE  2CCF               	nop2
  2204  04CF                     l1143:
  2205                           
  2206                           ;C:/Users/danie/OneDrive/Desktop/DIGITAL2/proyecto/master.X/lcd.c: 51:   Lcd_Cmd(0x030);
  2207  04CF  3030               	movlw	48
  2208  04D0  120A  118A  2429  120A  118A  	fcall	_Lcd_Cmd
  2209                           
  2210                           ;C:/Users/danie/OneDrive/Desktop/DIGITAL2/proyecto/master.X/lcd.c: 52:  _delay((unsigned
      +                           long)((160)*(8000000/4000000.0)));
  2211  04D5  306A               	movlw	106
  2212  04D6  00F4               	movwf	??_Lcd_Init
  2213  04D7                     u457:
  2214  04D7  0BF4               	decfsz	??_Lcd_Init,f
  2215  04D8  2CD7               	goto	u457
  2216  04D9  0000               	nop
  2217  04DA                     l1145:
  2218                           
  2219                           ;C:/Users/danie/OneDrive/Desktop/DIGITAL2/proyecto/master.X/lcd.c: 53:   Lcd_Cmd(0x030);
  2220  04DA  3030               	movlw	48
  2221  04DB  120A  118A  2429  120A  118A  	fcall	_Lcd_Cmd
  2222  04E0                     l1147:
  2223                           
  2224                           ;C:/Users/danie/OneDrive/Desktop/DIGITAL2/proyecto/master.X/lcd.c: 55:   Lcd_Cmd(0x038);
  2225  04E0  3038               	movlw	56
  2226  04E1  120A  118A  2429  120A  118A  	fcall	_Lcd_Cmd
  2227  04E6                     l1149:
  2228                           
  2229                           ;C:/Users/danie/OneDrive/Desktop/DIGITAL2/proyecto/master.X/lcd.c: 56:   Lcd_Cmd(0x010);
  2230  04E6  3010               	movlw	16
  2231  04E7  120A  118A  2429  120A  118A  	fcall	_Lcd_Cmd
  2232  04EC                     l1151:
  2233                           
  2234                           ;C:/Users/danie/OneDrive/Desktop/DIGITAL2/proyecto/master.X/lcd.c: 57:   Lcd_Cmd(0x001);
  2235  04EC  3001               	movlw	1
  2236  04ED  120A  118A  2429  120A  118A  	fcall	_Lcd_Cmd
  2237  04F2                     l1153:
  2238                           
  2239                           ;C:/Users/danie/OneDrive/Desktop/DIGITAL2/proyecto/master.X/lcd.c: 58:   Lcd_Cmd(0x006);
  2240  04F2  3006               	movlw	6
  2241  04F3  120A  118A  2429  120A  118A  	fcall	_Lcd_Cmd
  2242  04F8                     l1155:
  2243                           
  2244                           ;C:/Users/danie/OneDrive/Desktop/DIGITAL2/proyecto/master.X/lcd.c: 60:   Lcd_Cmd(0x0C);
  2245  04F8  300C               	movlw	12
  2246  04F9  120A  118A  2429  120A  118A  	fcall	_Lcd_Cmd
  2247  04FE                     l152:
  2248  04FE  0008               	return
  2249  04FF                     __end_of_Lcd_Init:
  2250                           
  2251                           	psect	text11
  2252  0429                     __ptext11:	
  2253 ;; *************** function _Lcd_Cmd *****************
  2254 ;; Defined at:
  2255 ;;		line 16 in file "C:/Users/danie/OneDrive/Desktop/DIGITAL2/proyecto/master.X/lcd.c"
  2256 ;; Parameters:    Size  Location     Type
  2257 ;;  a               1    wreg     unsigned char 
  2258 ;; Auto vars:     Size  Location     Type
  2259 ;;  a               1    3[COMMON] unsigned char 
  2260 ;; Return value:  Size  Location     Type
  2261 ;;                  1    wreg      void 
  2262 ;; Registers used:
  2263 ;;		wreg, status,2, status,0, pclath, cstack
  2264 ;; Tracked objects:
  2265 ;;		On entry : 0/0
  2266 ;;		On exit  : 0/0
  2267 ;;		Unchanged: 0/0
  2268 ;; Data sizes:     COMMON   BANK0   BANK1   BANK3   BANK2
  2269 ;;      Params:         0       0       0       0       0
  2270 ;;      Locals:         1       0       0       0       0
  2271 ;;      Temps:          2       0       0       0       0
  2272 ;;      Totals:         3       0       0       0       0
  2273 ;;Total ram usage:        3 bytes
  2274 ;; Hardware stack levels used:    1
  2275 ;; Hardware stack levels required when called:    1
  2276 ;; This function calls:
  2277 ;;		_Lcd_Port
  2278 ;; This function is called by:
  2279 ;;		_Lcd_Set_Cursor
  2280 ;;		_Lcd_Init
  2281 ;;		_Lcd_Shift_Right
  2282 ;;		_Lcd_Shift_Left
  2283 ;; This function uses a non-reentrant model
  2284 ;;
  2285                           
  2286                           
  2287                           ;psect for function _Lcd_Cmd
  2288  0429                     _Lcd_Cmd:
  2289                           
  2290                           ;incstack = 0
  2291                           ; Regs used in _Lcd_Cmd: [wreg+status,2+status,0+pclath+cstack]
  2292                           ;Lcd_Cmd@a stored from wreg
  2293  0429  00F3               	movwf	Lcd_Cmd@a
  2294  042A                     l1075:
  2295                           
  2296                           ;C:/Users/danie/OneDrive/Desktop/DIGITAL2/proyecto/master.X/lcd.c: 16: void Lcd_Cmd(char
      +                           a);C:/Users/danie/OneDrive/Desktop/DIGITAL2/proyecto/master.X/lcd.c: 17: {;C:/Users/dan
      +                          ie/OneDrive/Desktop/DIGITAL2/proyecto/master.X/lcd.c: 18:  RE0 = 0;
  2297  042A  1283               	bcf	3,5	;RP0=0, select bank0
  2298  042B  1303               	bcf	3,6	;RP1=0, select bank0
  2299  042C  1009               	bcf	9,0	;volatile
  2300  042D                     l1077:
  2301                           
  2302                           ;C:/Users/danie/OneDrive/Desktop/DIGITAL2/proyecto/master.X/lcd.c: 19:  Lcd_Port(a);
  2303  042D  0873               	movf	Lcd_Cmd@a,w
  2304  042E  120A  118A  23CC  120A  118A  	fcall	_Lcd_Port
  2305  0433                     l1079:
  2306                           
  2307                           ;C:/Users/danie/OneDrive/Desktop/DIGITAL2/proyecto/master.X/lcd.c: 20:  RE1 = 1;
  2308  0433  1283               	bcf	3,5	;RP0=0, select bank0
  2309  0434  1303               	bcf	3,6	;RP1=0, select bank0
  2310  0435  1489               	bsf	9,1	;volatile
  2311  0436                     l1081:
  2312                           
  2313                           ;C:/Users/danie/OneDrive/Desktop/DIGITAL2/proyecto/master.X/lcd.c: 21:         _delay((u
      +                          nsigned long)((10)*(8000000/4000.0)));
  2314  0436  301A               	movlw	26
  2315  0437  00F2               	movwf	??_Lcd_Cmd+1
  2316  0438  30F8               	movlw	248
  2317  0439  00F1               	movwf	??_Lcd_Cmd
  2318  043A                     u467:
  2319  043A  0BF1               	decfsz	??_Lcd_Cmd,f
  2320  043B  2C3A               	goto	u467
  2321  043C  0BF2               	decfsz	??_Lcd_Cmd+1,f
  2322  043D  2C3A               	goto	u467
  2323  043E  0000               	nop
  2324  043F                     l1083:
  2325                           
  2326                           ;C:/Users/danie/OneDrive/Desktop/DIGITAL2/proyecto/master.X/lcd.c: 22:         RE1 = 0;
  2327  043F  1283               	bcf	3,5	;RP0=0, select bank0
  2328  0440  1303               	bcf	3,6	;RP1=0, select bank0
  2329  0441  1089               	bcf	9,1	;volatile
  2330  0442                     l143:
  2331  0442  0008               	return
  2332  0443                     __end_of_Lcd_Cmd:
  2333                           
  2334                           	psect	text12
  2335  03CC                     __ptext12:	
  2336 ;; *************** function _Lcd_Port *****************
  2337 ;; Defined at:
  2338 ;;		line 12 in file "C:/Users/danie/OneDrive/Desktop/DIGITAL2/proyecto/master.X/lcd.c"
  2339 ;; Parameters:    Size  Location     Type
  2340 ;;  a               1    wreg     unsigned char 
  2341 ;; Auto vars:     Size  Location     Type
  2342 ;;  a               1    0[COMMON] unsigned char 
  2343 ;; Return value:  Size  Location     Type
  2344 ;;                  1    wreg      void 
  2345 ;; Registers used:
  2346 ;;		wreg
  2347 ;; Tracked objects:
  2348 ;;		On entry : 0/0
  2349 ;;		On exit  : 0/0
  2350 ;;		Unchanged: 0/0
  2351 ;; Data sizes:     COMMON   BANK0   BANK1   BANK3   BANK2
  2352 ;;      Params:         0       0       0       0       0
  2353 ;;      Locals:         1       0       0       0       0
  2354 ;;      Temps:          0       0       0       0       0
  2355 ;;      Totals:         1       0       0       0       0
  2356 ;;Total ram usage:        1 bytes
  2357 ;; Hardware stack levels used:    1
  2358 ;; This function calls:
  2359 ;;		Nothing
  2360 ;; This function is called by:
  2361 ;;		_Lcd_Cmd
  2362 ;;		_Lcd_Init
  2363 ;;		_Lcd_Write_Char
  2364 ;; This function uses a non-reentrant model
  2365 ;;
  2366                           
  2367                           
  2368                           ;psect for function _Lcd_Port
  2369  03CC                     _Lcd_Port:
  2370                           
  2371                           ;incstack = 0
  2372                           ; Regs used in _Lcd_Port: [wreg]
  2373                           ;Lcd_Port@a stored from wreg
  2374  03CC  00F0               	movwf	Lcd_Port@a
  2375  03CD                     l1063:
  2376                           
  2377                           ;C:/Users/danie/OneDrive/Desktop/DIGITAL2/proyecto/master.X/lcd.c: 12: void Lcd_Port(cha
      +                          r a);C:/Users/danie/OneDrive/Desktop/DIGITAL2/proyecto/master.X/lcd.c: 13: {;C:/Users/da
      +                          nie/OneDrive/Desktop/DIGITAL2/proyecto/master.X/lcd.c: 14:  PORTD = a;
  2378  03CD  0870               	movf	Lcd_Port@a,w
  2379  03CE  1283               	bcf	3,5	;RP0=0, select bank0
  2380  03CF  1303               	bcf	3,6	;RP1=0, select bank0
  2381  03D0  0088               	movwf	8	;volatile
  2382  03D1                     l140:
  2383  03D1  0008               	return
  2384  03D2                     __end_of_Lcd_Port:
  2385                           
  2386                           	psect	text13
  2387  03E8                     __ptext13:	
  2388 ;; *************** function ___bmul *****************
  2389 ;; Defined at:
  2390 ;;		line 4 in file "C:\Program Files\Microchip\xc8\v2.31\pic\sources\c90\common\Umul8.c"
  2391 ;; Parameters:    Size  Location     Type
  2392 ;;  multiplier      1    wreg     unsigned char 
  2393 ;;  multiplicand    1    0[COMMON] unsigned char 
  2394 ;; Auto vars:     Size  Location     Type
  2395 ;;  multiplier      1    3[COMMON] unsigned char 
  2396 ;;  product         1    2[COMMON] unsigned char 
  2397 ;; Return value:  Size  Location     Type
  2398 ;;                  1    wreg      unsigned char 
  2399 ;; Registers used:
  2400 ;;		wreg, status,2, status,0
  2401 ;; Tracked objects:
  2402 ;;		On entry : 0/0
  2403 ;;		On exit  : 0/0
  2404 ;;		Unchanged: 0/0
  2405 ;; Data sizes:     COMMON   BANK0   BANK1   BANK3   BANK2
  2406 ;;      Params:         1       0       0       0       0
  2407 ;;      Locals:         2       0       0       0       0
  2408 ;;      Temps:          1       0       0       0       0
  2409 ;;      Totals:         4       0       0       0       0
  2410 ;;Total ram usage:        4 bytes
  2411 ;; Hardware stack levels used:    1
  2412 ;; This function calls:
  2413 ;;		Nothing
  2414 ;; This function is called by:
  2415 ;;		_main
  2416 ;; This function uses a non-reentrant model
  2417 ;;
  2418                           
  2419                           
  2420                           ;psect for function ___bmul
  2421  03E8                     ___bmul:
  2422                           
  2423                           ;incstack = 0
  2424                           ; Regs used in ___bmul: [wreg+status,2+status,0]
  2425                           ;___bmul@multiplier stored from wreg
  2426  03E8  00F3               	movwf	___bmul@multiplier
  2427  03E9                     l1219:
  2428  03E9  01F2               	clrf	___bmul@product
  2429  03EA                     l1221:
  2430  03EA  1C73               	btfss	___bmul@multiplier,0
  2431  03EB  2BED               	goto	u231
  2432  03EC  2BEE               	goto	u230
  2433  03ED                     u231:
  2434  03ED  2BF2               	goto	l1225
  2435  03EE                     u230:
  2436  03EE                     l1223:
  2437  03EE  0870               	movf	___bmul@multiplicand,w
  2438  03EF  00F1               	movwf	??___bmul
  2439  03F0  0871               	movf	??___bmul,w
  2440  03F1  07F2               	addwf	___bmul@product,f
  2441  03F2                     l1225:
  2442  03F2  1003               	clrc
  2443  03F3  0DF0               	rlf	___bmul@multiplicand,f
  2444  03F4                     l1227:
  2445  03F4  1003               	clrc
  2446  03F5  0CF3               	rrf	___bmul@multiplier,f
  2447  03F6  0873               	movf	___bmul@multiplier,w
  2448  03F7  1D03               	btfss	3,2
  2449  03F8  2BFA               	goto	u241
  2450  03F9  2BFB               	goto	u240
  2451  03FA                     u241:
  2452  03FA  2BEA               	goto	l1221
  2453  03FB                     u240:
  2454  03FB                     l1229:
  2455  03FB  0872               	movf	___bmul@product,w
  2456  03FC                     l279:
  2457  03FC  0008               	return
  2458  03FD                     __end_of___bmul:
  2459                           
  2460                           	psect	text14
  2461  04FF                     __ptext14:	
  2462 ;; *************** function ___awdiv *****************
  2463 ;; Defined at:
  2464 ;;		line 5 in file "C:\Program Files\Microchip\xc8\v2.31\pic\sources\c90\common\awdiv.c"
  2465 ;; Parameters:    Size  Location     Type
  2466 ;;  divisor         2    0[COMMON] int 
  2467 ;;  dividend        2    2[COMMON] int 
  2468 ;; Auto vars:     Size  Location     Type
  2469 ;;  quotient        2    7[COMMON] int 
  2470 ;;  sign            1    6[COMMON] unsigned char 
  2471 ;;  counter         1    5[COMMON] unsigned char 
  2472 ;; Return value:  Size  Location     Type
  2473 ;;                  2    0[COMMON] int 
  2474 ;; Registers used:
  2475 ;;		wreg, status,2, status,0
  2476 ;; Tracked objects:
  2477 ;;		On entry : 0/0
  2478 ;;		On exit  : 0/0
  2479 ;;		Unchanged: 0/0
  2480 ;; Data sizes:     COMMON   BANK0   BANK1   BANK3   BANK2
  2481 ;;      Params:         4       0       0       0       0
  2482 ;;      Locals:         4       0       0       0       0
  2483 ;;      Temps:          1       0       0       0       0
  2484 ;;      Totals:         9       0       0       0       0
  2485 ;;Total ram usage:        9 bytes
  2486 ;; Hardware stack levels used:    1
  2487 ;; This function calls:
  2488 ;;		Nothing
  2489 ;; This function is called by:
  2490 ;;		_main
  2491 ;; This function uses a non-reentrant model
  2492 ;;
  2493                           
  2494                           
  2495                           ;psect for function ___awdiv
  2496  04FF                     ___awdiv:
  2497  04FF                     l1233:	
  2498                           ;incstack = 0
  2499                           ; Regs used in ___awdiv: [wreg+status,2+status,0]
  2500                           
  2501  04FF  01F6               	clrf	___awdiv@sign
  2502  0500                     l1235:
  2503  0500  1FF1               	btfss	___awdiv@divisor+1,7
  2504  0501  2D03               	goto	u251
  2505  0502  2D04               	goto	u250
  2506  0503                     u251:
  2507  0503  2D0B               	goto	l1241
  2508  0504                     u250:
  2509  0504                     l1237:
  2510  0504  09F0               	comf	___awdiv@divisor,f
  2511  0505  09F1               	comf	___awdiv@divisor+1,f
  2512  0506  0AF0               	incf	___awdiv@divisor,f
  2513  0507  1903               	skipnz
  2514  0508  0AF1               	incf	___awdiv@divisor+1,f
  2515  0509                     l1239:
  2516  0509  01F6               	clrf	___awdiv@sign
  2517  050A  0AF6               	incf	___awdiv@sign,f
  2518  050B                     l1241:
  2519  050B  1FF3               	btfss	___awdiv@dividend+1,7
  2520  050C  2D0E               	goto	u261
  2521  050D  2D0F               	goto	u260
  2522  050E                     u261:
  2523  050E  2D18               	goto	l1247
  2524  050F                     u260:
  2525  050F                     l1243:
  2526  050F  09F2               	comf	___awdiv@dividend,f
  2527  0510  09F3               	comf	___awdiv@dividend+1,f
  2528  0511  0AF2               	incf	___awdiv@dividend,f
  2529  0512  1903               	skipnz
  2530  0513  0AF3               	incf	___awdiv@dividend+1,f
  2531  0514                     l1245:
  2532  0514  3001               	movlw	1
  2533  0515  00F4               	movwf	??___awdiv
  2534  0516  0874               	movf	??___awdiv,w
  2535  0517  06F6               	xorwf	___awdiv@sign,f
  2536  0518                     l1247:
  2537  0518  01F7               	clrf	___awdiv@quotient
  2538  0519  01F8               	clrf	___awdiv@quotient+1
  2539  051A                     l1249:
  2540  051A  0870               	movf	___awdiv@divisor,w
  2541  051B  0471               	iorwf	___awdiv@divisor+1,w
  2542  051C  1903               	btfsc	3,2
  2543  051D  2D1F               	goto	u271
  2544  051E  2D20               	goto	u270
  2545  051F                     u271:
  2546  051F  2D57               	goto	l1269
  2547  0520                     u270:
  2548  0520                     l1251:
  2549  0520  01F5               	clrf	___awdiv@counter
  2550  0521  0AF5               	incf	___awdiv@counter,f
  2551  0522  2D2E               	goto	l1257
  2552  0523                     l1253:
  2553  0523  3001               	movlw	1
  2554  0524                     u285:
  2555  0524  1003               	clrc
  2556  0525  0DF0               	rlf	___awdiv@divisor,f
  2557  0526  0DF1               	rlf	___awdiv@divisor+1,f
  2558  0527  3EFF               	addlw	-1
  2559  0528  1D03               	skipz
  2560  0529  2D24               	goto	u285
  2561  052A                     l1255:
  2562  052A  3001               	movlw	1
  2563  052B  00F4               	movwf	??___awdiv
  2564  052C  0874               	movf	??___awdiv,w
  2565  052D  07F5               	addwf	___awdiv@counter,f
  2566  052E                     l1257:
  2567  052E  1FF1               	btfss	___awdiv@divisor+1,7
  2568  052F  2D31               	goto	u291
  2569  0530  2D32               	goto	u290
  2570  0531                     u291:
  2571  0531  2D23               	goto	l1253
  2572  0532                     u290:
  2573  0532                     l1259:
  2574  0532  3001               	movlw	1
  2575  0533                     u305:
  2576  0533  1003               	clrc
  2577  0534  0DF7               	rlf	___awdiv@quotient,f
  2578  0535  0DF8               	rlf	___awdiv@quotient+1,f
  2579  0536  3EFF               	addlw	-1
  2580  0537  1D03               	skipz
  2581  0538  2D33               	goto	u305
  2582  0539  0871               	movf	___awdiv@divisor+1,w
  2583  053A  0273               	subwf	___awdiv@dividend+1,w
  2584  053B  1D03               	skipz
  2585  053C  2D3F               	goto	u315
  2586  053D  0870               	movf	___awdiv@divisor,w
  2587  053E  0272               	subwf	___awdiv@dividend,w
  2588  053F                     u315:
  2589  053F  1C03               	skipc
  2590  0540  2D42               	goto	u311
  2591  0541  2D43               	goto	u310
  2592  0542                     u311:
  2593  0542  2D4A               	goto	l1265
  2594  0543                     u310:
  2595  0543                     l1261:
  2596  0543  0870               	movf	___awdiv@divisor,w
  2597  0544  02F2               	subwf	___awdiv@dividend,f
  2598  0545  0871               	movf	___awdiv@divisor+1,w
  2599  0546  1C03               	skipc
  2600  0547  03F3               	decf	___awdiv@dividend+1,f
  2601  0548  02F3               	subwf	___awdiv@dividend+1,f
  2602  0549                     l1263:
  2603  0549  1477               	bsf	___awdiv@quotient,0
  2604  054A                     l1265:
  2605  054A  3001               	movlw	1
  2606  054B                     u325:
  2607  054B  1003               	clrc
  2608  054C  0CF1               	rrf	___awdiv@divisor+1,f
  2609  054D  0CF0               	rrf	___awdiv@divisor,f
  2610  054E  3EFF               	addlw	-1
  2611  054F  1D03               	skipz
  2612  0550  2D4B               	goto	u325
  2613  0551                     l1267:
  2614  0551  3001               	movlw	1
  2615  0552  02F5               	subwf	___awdiv@counter,f
  2616  0553  1D03               	btfss	3,2
  2617  0554  2D56               	goto	u331
  2618  0555  2D57               	goto	u330
  2619  0556                     u331:
  2620  0556  2D32               	goto	l1259
  2621  0557                     u330:
  2622  0557                     l1269:
  2623  0557  0876               	movf	___awdiv@sign,w
  2624  0558  1903               	btfsc	3,2
  2625  0559  2D5B               	goto	u341
  2626  055A  2D5C               	goto	u340
  2627  055B                     u341:
  2628  055B  2D61               	goto	l1273
  2629  055C                     u340:
  2630  055C                     l1271:
  2631  055C  09F7               	comf	___awdiv@quotient,f
  2632  055D  09F8               	comf	___awdiv@quotient+1,f
  2633  055E  0AF7               	incf	___awdiv@quotient,f
  2634  055F  1903               	skipnz
  2635  0560  0AF8               	incf	___awdiv@quotient+1,f
  2636  0561                     l1273:
  2637  0561  0878               	movf	___awdiv@quotient+1,w
  2638  0562  00F1               	movwf	?___awdiv+1
  2639  0563  0877               	movf	___awdiv@quotient,w
  2640  0564  00F0               	movwf	?___awdiv
  2641  0565                     l406:
  2642  0565  0008               	return
  2643  0566                     __end_of___awdiv:
  2644  007E                     btemp	set	126	;btemp
  2645  007E                     wtemp0	set	126
  2646                           
  2647                           	psect	config
  2648                           
  2649                           ;Config register CONFIG1 @ 0x2007
  2650                           ;	Oscillator Selection bits
  2651                           ;	FOSC = EXTRC_NOCLKOUT, RCIO oscillator: I/O function on RA6/OSC2/CLKOUT pin, RC on RA7
      +                          /OSC1/CLKIN
  2652                           ;	Watchdog Timer Enable bit
  2653                           ;	WDTE = OFF, WDT disabled and can be enabled by SWDTEN bit of the WDTCON register
  2654                           ;	Power-up Timer Enable bit
  2655                           ;	PWRTE = OFF, PWRT disabled
  2656                           ;	RE3/MCLR pin function select bit
  2657                           ;	MCLRE = OFF, RE3/MCLR pin function is digital input, MCLR internally tied to VDD
  2658                           ;	Code Protection bit
  2659                           ;	CP = OFF, Program memory code protection is disabled
  2660                           ;	Data Code Protection bit
  2661                           ;	CPD = OFF, Data memory code protection is disabled
  2662                           ;	Brown Out Reset Selection bits
  2663                           ;	BOREN = OFF, BOR disabled
  2664                           ;	Internal External Switchover bit
  2665                           ;	IESO = OFF, Internal/External Switchover mode is disabled
  2666                           ;	Fail-Safe Clock Monitor Enabled bit
  2667                           ;	FCMEN = OFF, Fail-Safe Clock Monitor is disabled
  2668                           ;	Low Voltage Programming Enable bit
  2669                           ;	LVP = OFF, RB3 pin has digital I/O, HV on MCLR must be used for programming
  2670                           ;	In-Circuit Debugger Mode bit
  2671                           ;	DEBUG = 0x1, unprogrammed default
  2672  2007                     	org	8199
  2673  2007  20D6               	dw	8406
  2674                           
  2675                           ;Config register CONFIG2 @ 0x2008
  2676                           ;	Brown-out Reset Selection bit
  2677                           ;	BOR4V = BOR40V, Brown-out Reset set to 4.0V
  2678                           ;	Flash Program Memory Self Write Enable bits
  2679                           ;	WRT = OFF, Write protection off
  2680  2008                     	org	8200
  2681  2008  3FFF               	dw	16383

Data Sizes:
    Strings     13
    Constant    0
    Data        0
    BSS         11
    Persistent  0
    Stack       0

Auto Spaces:
    Space          Size  Autos    Used
    COMMON           14      9      14
    BANK0            80      6      12
    BANK1            80      0       0
    BANK3            96      0       0
    BANK2            96      0       0

Pointer List with Targets:

    Lcd_Write_String@a	PTR unsigned char  size(1) Largest target is 4
		 -> STR_6(CODE[3]), STR_5(CODE[3]), STR_4(CODE[4]), STR_3(CODE[3]), 
		 -> STR_2(CODE[4]), STR_1(CODE[3]), 


Critical Paths under _main in COMMON

    _main->___awdiv
    _main->_setup
    _setup->_Lcd_Set_Cursor
    _Lcd_Write_String->_Lcd_Write_Char
    _Lcd_Write_Char->_Lcd_Port
    _Lcd_Set_Cursor->_Lcd_Cmd
    _Lcd_Init->_Lcd_Cmd
    _Lcd_Cmd->_Lcd_Port

Critical Paths under _main in BANK0

    None.

Critical Paths under _main in BANK1

    None.

Critical Paths under _main in BANK3

    None.

Critical Paths under _main in BANK2

    None.

Call Graph Tables:

 ---------------------------------------------------------------------------------
 (Depth) Function   	        Calls       Base Space   Used Autos Params    Refs
 ---------------------------------------------------------------------------------
 (0) _main                                                 6     6      0    4992
                                              0 BANK0      6     6      0
                     _Lcd_Set_Cursor
                     _Lcd_Write_Char
                            ___awdiv
                             ___bmul
                              _setup
                            _spiRead
                           _spiWrite
 ---------------------------------------------------------------------------------
 (1) _spiWrite                                             1     1      0      22
                                              0 COMMON     1     1      0
 ---------------------------------------------------------------------------------
 (1) _spiRead                                              0     0      0       0
                     _spiReceiveWait
 ---------------------------------------------------------------------------------
 (2) _spiReceiveWait                                       0     0      0       0
 ---------------------------------------------------------------------------------
 (1) _setup                                                1     1      0    2000
                                              8 COMMON     1     1      0
                           _Lcd_Init
                     _Lcd_Set_Cursor
                   _Lcd_Write_String
                          _initUSART
                            _spiInit
 ---------------------------------------------------------------------------------
 (2) _spiInit                                              4     1      3     360
                                              0 COMMON     4     1      3
 ---------------------------------------------------------------------------------
 (2) _initUSART                                            0     0      0       0
 ---------------------------------------------------------------------------------
 (2) _Lcd_Write_String                                     3     3      0     332
                                              3 COMMON     3     3      0
                     _Lcd_Write_Char
 ---------------------------------------------------------------------------------
 (3) _Lcd_Write_Char                                       2     2      0      44
                                              1 COMMON     2     2      0
                           _Lcd_Port
 ---------------------------------------------------------------------------------
 (2) _Lcd_Set_Cursor                                       6     5      1    1242
                                              4 COMMON     4     3      1
                            _Lcd_Cmd
 ---------------------------------------------------------------------------------
 (2) _Lcd_Init                                             2     2      0      66
                                              4 COMMON     2     2      0
                            _Lcd_Cmd
                           _Lcd_Port
 ---------------------------------------------------------------------------------
 (3) _Lcd_Cmd                                              3     3      0      44
                                              1 COMMON     3     3      0
                           _Lcd_Port
 ---------------------------------------------------------------------------------
 (4) _Lcd_Port                                             1     1      0      22
                                              0 COMMON     1     1      0
 ---------------------------------------------------------------------------------
 (1) ___bmul                                               4     3      1     624
                                              0 COMMON     4     3      1
 ---------------------------------------------------------------------------------
 (1) ___awdiv                                              9     5      4    1060
                                              0 COMMON     9     5      4
 ---------------------------------------------------------------------------------
 Estimated maximum stack depth 4
 ---------------------------------------------------------------------------------

 Call Graph Graphs:

 _main (ROOT)
   _Lcd_Set_Cursor
     _Lcd_Cmd
       _Lcd_Port
   _Lcd_Write_Char
     _Lcd_Port
   ___awdiv
   ___bmul
   _setup
     _Lcd_Init
       _Lcd_Cmd
         _Lcd_Port
       _Lcd_Port
     _Lcd_Set_Cursor
       _Lcd_Cmd
         _Lcd_Port
     _Lcd_Write_String
       _Lcd_Write_Char
         _Lcd_Port
     _initUSART
     _spiInit
   _spiRead
     _spiReceiveWait
   _spiWrite

 Address spaces:
Name               Size   Autos  Total    Cost      Usage
BITCOMMON            E      0       0       0        0.0%
EEDATA             100      0       0       0        0.0%
NULL                 0      0       0       0        0.0%
CODE                 0      0       0       0        0.0%
COMMON               E      9       E       1      100.0%
BITSFR0              0      0       0       1        0.0%
SFR0                 0      0       0       1        0.0%
BITSFR1              0      0       0       2        0.0%
SFR1                 0      0       0       2        0.0%
STACK                0      0       0       2        0.0%
ABS                  0      0      1A       3        0.0%
BITBANK0            50      0       0       4        0.0%
BITSFR3              0      0       0       4        0.0%
SFR3                 0      0       0       4        0.0%
BANK0               50      6       C       5       15.0%
BITSFR2              0      0       0       5        0.0%
SFR2                 0      0       0       5        0.0%
BITBANK1            50      0       0       6        0.0%
BANK1               50      0       0       7        0.0%
BITBANK3            60      0       0       8        0.0%
BANK3               60      0       0       9        0.0%
BITBANK2            60      0       0      10        0.0%
BANK2               60      0       0      11        0.0%
DATA                 0      0      1A      12        0.0%


Microchip Technology PIC Macro Assembler V2.31 build 20201012212115 
Symbol Table                                                                                   Fri Feb 12 12:57:31 2021

                        pc 0002             ___bmul@product 0072                _SSPSTATbits 0094  
                       l81 05F1                         l97 0423                         l98 0428  
             ___awdiv@sign 0076                         fsr 0004                        l101 03D8  
                      l110 03E7                        l104 03DE                        l107 03D7  
                      l140 03D1                        l143 0442                        l152 04FE  
                      l161 04A8                        l129 045F                        l155 0412  
                      l149 0483                        l406 0565                        _ADC 007D  
                      l279 03FC                        _RE0 0048                        _RE1 0049  
                      u200 041B                        u201 041A                        u210 04A8  
                      u211 04A7                        u220 03DE                        u221 03DD  
                      u310 0543                        u230 03EE                        u311 0542  
                      u231 03ED                        u240 03FB                        u305 0533  
                      u241 03FA                        u330 0557                        u250 0504  
                      u331 0556                        u315 053F                        u251 0503  
                      u340 055C                        u260 050F                        u180 0466  
                      u341 055B                        u325 054B                        u261 050E  
                      u181 0465                        u270 0520                        u190 0478  
                      u271 051F                        u191 0477                        u407 0796  
                      u417 040C                        u290 0532                        u291 0531  
                      u427 04AD                        u285 0524                        u437 04BB  
                      u357 0600                        u447 04CA                        u367 061A  
                      u457 04D7                        u377 06BD                        u467 043A  
                      u387 06D7                        u397 077C                        _s11 007A  
                      _s12 0025                        _s13 0024                        _s21 0079  
                      _s22 0023                        _s23 0022                        _s31 0021  
                      _s32 0020                        fsr0 0004                       l1101 041D  
                     l1111 0449                       l1103 041F                       l1121 0454  
                     l1113 044A                       l1105 0422                       l1201 05CB  
                     l1131 045D                       l1123 0457                       l1115 044D  
                     l1107 0443                       l1203 05D1                       l1211 03D3  
                     l1221 03EA                       l1141 04C6                       l1133 045E  
                     l1125 0458                       l1117 0450                       l1109 0447  
                     l1205 05DB                       l1213 03DF                       l1301 068C  
                     l1223 03EE                       l1063 03CD                       l1151 04EC  
                     l1143 04CF                       l1135 04A9                       l1071 040A  
                     l1127 0459                       l1119 0451                       l1207 05E1  
                     l1215 03E4                       l1311 06B7                       l1303 0698  
                     l1241 050B                       l1233 04FF                       l1225 03F2  
                     l1081 0436                       l1153 04F2                       l1145 04DA  
                     l1137 04B1                       l1073 040F                       l1065 03FE  
                     l1161 0495                       l1129 045C                       l1209 05EB  
                     l1321 06DE                       l1313 06C1                       l1305 06A0  
                     l1251 0520                       l1243 050F                       l1235 0500  
                     l1227 03F4                       l1219 03E9                       l1083 043F  
                     l1075 042A                       l1155 04F8                       l1147 04E0  
                     l1139 04B7                       l1091 0472                       l1067 0401  
                     l1163 049B                       l1171 0573                       l1331 074B  
                     l1323 06F5                       l1315 06C7                       l1307 06AC  
                     l1261 0543                       l1253 0523                       l1245 0514  
                     l1237 0504                       l1229 03FB                       l1077 042D  
                     l1149 04E6                       l1093 0478                       l1085 0461  
                     l1069 0407                       l1157 0485                       l1181 0580  
                     l1173 0574                       l1165 03D8                       l1341 0776  
                     l1333 0757                       l1325 071C                       l1317 06D1  
                     l1309 06B4                       l1271 055C                       l1263 0549  
                     l1255 052A                       l1247 0518                       l1239 0509  
                     l1079 0433                       l1095 047D                       l1087 0466  
                     l1159 0488                       l1191 05A3                       l1183 0589  
                     l1175 057D                       l1167 0566                       l1351 079D  
                     l1343 0780                       l1335 075F                       l1327 073B  
                     l1319 06DB                       l1273 0561                       l1265 054A  
                     l1257 052E                       l1249 051A                       l1089 046B  
                     l1097 0414                       l1193 05AB                       l1185 058E  
                     l1177 057E                       l1169 0570                       l1361 07E3  
                     l1353 07B4                       l1345 0786                       l1337 076B  
                     l1329 0745                       l1281 05FA                       l1267 0551  
                     l1259 0532                       l1099 041B                       l1195 05B1  
                     l1187 0593                       l1179 057F                       l1355 07C5  
                     l1347 0790                       l1339 0773                       l1291 0621  
                     l1283 0604                       l1269 0557                       l1197 05BB  
                     l1189 059D                       l1357 07CF                       l1349 079A  
                     l1293 0638                       l1285 060A                       l1277 05F2  
                     l1199 05C1                       l1359 07D7                       l1295 065F  
                     l1287 0614                       l1279 05F7                       l1297 067E  
                     l1289 061E                       l1299 0686                       STR_1 000D  
                     STR_2 0009                       STR_3 0010                       STR_4 0009  
                     STR_5 0013                       STR_6 000A          ?_Lcd_Write_String 0070  
                     _main 05F2                       btemp 007E                       start 0000  
       ??_Lcd_Write_String 0073            __end_of_Lcd_Cmd 0443          ___bmul@multiplier 0073  
                    ?_main 0070            __end_of___awdiv 0566                      _ANSEL 0188  
          ___awdiv@divisor 0070            ___awdiv@counter 0075                      _SPBRG 0099  
                    _PORTA 0005                      _PORTB 0006                      _PORTD 0008  
                    _PORTE 0009    __size_of_Lcd_Set_Cursor 0024                      _TRISA 0085  
                    _TRISB 0086                      _TRISD 0088                      _TRISE 0089  
                    _setup 0566                      pclath 000A            __end_of_spiInit 0429  
          __end_of_spiRead 03E8                      status 0003                      wtemp0 007E  
         __end_of_Lcd_Init 04FF           __end_of_Lcd_Port 03D2            __initialization 07EF  
             __end_of_main 07EF                     ??_main 0026           ___awdiv@dividend 0072  
                   ?_setup 0070                     _ANSELH 0189                  ??_Lcd_Cmd 0071  
                   _SPBRGH 009A    __size_of_Lcd_Write_Char 0016                     _TRISC0 0438  
                   _TRISC1 0439                     _TRISC2 043A                     _TRISC3 043B  
                   _TRISC5 043D                     _SSPCON 0014                     _SSPBUF 0013  
                   ___bmul 03E8                  ??___awdiv 0074           ___awdiv@quotient 0077  
         __end_of_spiWrite 03D8                  ??_spiInit 0073                  ??_spiRead 0070  
          Lcd_Set_Cursor@a 0076            Lcd_Set_Cursor@b 0074    __end_of__initialization 07FC  
      ___bmul@multiplicand 0070             __pcstackCOMMON 0070              __end_of_setup 05F2  
           _Lcd_Set_Cursor 0460                  ?_Lcd_Init 0070                  ?_Lcd_Port 0070  
         spiWrite@variable 0070                    ??_setup 0078                 __pbssBANK0 0020  
       __size_of_initUSART 001D                 __pmaintext 05F2                    ?___bmul 0070  
  __size_of_spiReceiveWait 0007  __size_of_Lcd_Write_String 0025     __end_of_Lcd_Set_Cursor 0484  
               ??_Lcd_Init 0074                 ??_Lcd_Port 0070                    _SSPSTAT 0094  
               __stringtab 0003             _Lcd_Write_Char 03FD                    _Lcd_Cmd 0429  
                ?_spiWrite 0070            __size_of___bmul 0015                    ___awdiv 04FF  
          ?_Lcd_Set_Cursor 0074          __end_of_initUSART 0460                    __ptext1 03D2  
                  __ptext2 03DF                    __ptext3 03D8                    __ptext4 0566  
                  __ptext5 0413                    __ptext6 0443                    __ptext7 0484  
                  __ptext8 03FD                    __ptext9 0460                    _spiInit 0413  
                  _spiRead 03DF     __end_of_Lcd_Write_Char 0413       end_of_initialization 07FC  
                _RCSTAbits 0018                 ??_spiWrite 0070                  Lcd_Port@a 0070  
                _PORTCbits 0007                  _TRISCbits 0087            ?_Lcd_Write_Char 0070  
        Lcd_Write_String@a 0075          Lcd_Write_String@i 0073                  _TXSTAbits 0098  
           _spiReceiveWait 03D8             __end_of___bmul 03FD           _Lcd_Write_String 0484  
              _BAUDCTLbits 0187        start_initialization 07EF          __size_of_Lcd_Init 0056  
        __size_of_Lcd_Port 0006     __end_of_spiReceiveWait 03DF                   ??___bmul 0071  
          Lcd_Write_Char@a 0072                __pbssCOMMON 0079                  ___latbits 0002  
            __pcstackBANK0 0026                   ?_Lcd_Cmd 0070            ?_spiReceiveWait 0070  
         ??_Lcd_Set_Cursor 0075                   ?___awdiv 0070          __size_of_spiWrite 0006  
                __pstrings 0003                  _initUSART 0443                   ?_spiInit 0070  
                 ?_spiRead 0070             __size_of_setup 008C       spiInit@sTransmitEdge 0072  
                 _PIE1bits 008C         spiInit@sDataSample 0070                   Lcd_Cmd@a 0073  
              __stringbase 0008           ??_Lcd_Write_Char 0071                 ?_initUSART 0070  
                 _Lcd_Init 04A9                   _Lcd_Port 03CC   __end_of_Lcd_Write_String 04A9  
         __size_of_Lcd_Cmd 001A           __size_of___awdiv 0067         __end_of__stringtab 0009  
                 __ptext10 04A9                   __ptext11 0429                   __ptext12 03CC  
                 __ptext13 03E8                   __ptext14 04FF           __size_of_spiInit 0016  
         __size_of_spiRead 0009                   _contador 007C              __size_of_main 01FD  
                 _spiWrite 03D2               spiInit@sType 0073          spiInit@sClockIdle 0071  
               _INTCONbits 000B                ??_initUSART 0070           ??_spiReceiveWait 0070  
                stringcode 0003         Lcd_Set_Cursor@temp 0077                _temperatura 007B  
                 stringdir 0003                   stringtab 0003  
